 vwntoe

 Timestamp is 42557985 (Thu Apr 07 11:18:45 2005)

 Preferred load address is 00410000

 Start         Length     Name                   Class
 0001:00000000 000c3df4H .text                   CODE
 0002:00000000 00000d24H CODE                    CODE
 0003:00000000 00000524H .idata$5                DATA
 0003:00000528 00023281H .rdata                  DATA
 0003:000237ac 000000c8H .idata$2                DATA
 0003:00023874 00000014H .idata$3                DATA
 0003:00023888 00000524H .idata$4                DATA
 0003:00023dac 000011f2H .idata$6                DATA
 0003:00024fa0 00001523H .edata                  DATA
 0004:00000000 00000004H .CRT$XCA                DATA
 0004:00000004 00000004H .CRT$XCZ                DATA
 0004:00000008 00000004H .CRT$XIA                DATA
 0004:0000000c 00000004H .CRT$XIZ                DATA
 0004:00000010 00002c6cH .data                   DATA
 0004:00002c80 0000ca38H .bss                    DATA
 0005:00000000 0000002cH DATA                    DATA
 0006:00000000 000000a0H .rsrc$01                DATA
 0006:000000a0 00000300H .rsrc$02                DATA

  Address         Publics by Value              Rva+Base     Lib:Object

 0001:00000000       __ftext                    00411000 f   ntstart.obj
 0001:00000010       _UPfail                    00411010 f   prUdummy.obj
 0001:00000030       _oeFail                    00411030 f   prUdummy.obj
 0001:00000050       __UPaddPrimitive           00411050 f   prUdummy.obj
 0001:00000090       _UPstartLongPrimitive      00411090 f   prUdummy.obj
 0001:000000a0       _UPfinishLongPrimitive     004110a0 f   prUdummy.obj
 0001:000000b0       _UPnil                     004110b0 f   prUdummy.obj
 0001:000000c0       _UPSTtoCbool               004110c0 f   prUdummy.obj
 0001:00000140       _UPSTtoCint                00411140 f   prUdummy.obj
 0001:000001c0       _UPSTtoCchar               004111c0 f   prUdummy.obj
 0001:00000240       _UPSTtoCfloat              00411240 f   prUdummy.obj
 0001:000002e0       _UPCtoSTbool               004112e0 f   prUdummy.obj
 0001:00000300       _UPCtoSTint                00411300 f   prUdummy.obj
 0001:00000360       _UPCtoSTchar               00411360 f   prUdummy.obj
 0001:00000370       _UPCtoSTfloat              00411370 f   prUdummy.obj
 0001:00000480       _UPallocString             00411480 f   prUdummy.obj
 0001:00000610       _UPallocByteArray          00411610 f   prUdummy.obj
 0001:000007a0       _UPallocArray              004117a0 f   prUdummy.obj
 0001:00000ac0       _UPcopySTtoCstring         00411ac0 f   prUdummy.obj
 0001:00000bf0       _UPcopySTtoCbytes          00411bf0 f   prUdummy.obj
 0001:00000d10       _UPcopySTtoCintArray       00411d10 f   prUdummy.obj
 0001:00000e90       _UPcopySTtoCfloatArray     00411e90 f   prUdummy.obj
 0001:00001040       _UPcopyCtoSTstring         00412040 f   prUdummy.obj
 0001:00001170       _UPcopyCtoSTbytes          00412170 f   prUdummy.obj
 0001:00001290       _UPcopyCtoSTintArray       00412290 f   prUdummy.obj
 0001:00001400       _UPcopyCtoSTfloatArray     00412400 f   prUdummy.obj
 0001:00001710       _UPinstVarSize             00412710 f   prUdummy.obj
 0001:00001780       _UPindexVarSize            00412780 f   prUdummy.obj
 0001:00001870       _UPbasicAt                 00412870 f   prUdummy.obj
 0001:00001980       _UPinstVarAt               00412980 f   prUdummy.obj
 0001:00001a70       _UPbyteAt                  00412a70 f   prUdummy.obj
 0001:00001b70       _UPintegerAt               00412b70 f   prUdummy.obj
 0001:00001cc0       _UPfloatAt                 00412cc0 f   prUdummy.obj
 0001:00001e20       _UPdoubleAt                00412e20 f   prUdummy.obj
 0001:00001fa0       _UPbasicAtPut              00412fa0 f   prUdummy.obj
 0001:00002260       _UPinstVarAtPut            00413260 f   prUdummy.obj
 0001:00002500       _UPbyteAtPut               00413500 f   prUdummy.obj
 0001:00002610       _UPintegerAtPut            00413610 f   prUdummy.obj
 0001:000028c0       _UPfloatAtPut              004138c0 f   prUdummy.obj
 0001:00002b70       _UPisCharacter             00413b70 f   prUdummy.obj
 0001:00002b90       _UPisInteger               00413b90 f   prUdummy.obj
 0001:00002ba0       _UPisString                00413ba0 f   prUdummy.obj
 0001:00002c30       _UPisByteArray             00413c30 f   prUdummy.obj
 0001:00002cc0       _UPisArrayOfInteger        00413cc0 f   prUdummy.obj
 0001:00002db0       _UPisArrayOfFloat          00413db0 f   prUdummy.obj
 0001:00002ec0       _UPisBoolean               00413ec0 f   prUdummy.obj
 0001:00002f30       _UPisFloat                 00413f30 f   prUdummy.obj
 0001:00002fc0       _UPisByteLike              00413fc0 f   prUdummy.obj
 0001:00003030       _UPinstallErrorHandler     00414030 f   prUdummy.obj
 0001:00003050       _UPisImmediate             00414050 f   prUdummy.obj
 0001:00003060       _UPclass                   00414060 f   prUdummy.obj
 0001:000030d0       _UPSTtoCdouble             004140d0 f   prUdummy.obj
 0001:00003180       _UPCtoSTdouble             00414180 f   prUdummy.obj
 0001:000032b0       _UPisDouble                004142b0 f   prUdummy.obj
 0001:00003330       _UPisKindOf                00414330 f   prUdummy.obj
 0001:000033f0       _UPinstallPollHandler      004143f0 f   prUdummy.obj
 0001:00003410       _UPsignalSemaphore         00414410 f   prUdummy.obj
 0001:00003480       _UPpostInterrupt           00414480 f   prUdummy.obj
 0001:00003490       _UPregisteredHandleAt      00414490 f   prUdummy.obj
 0001:000034e0       _UPregisteredHandleAtPut   004144e0 f   prUdummy.obj
 0001:00003520       _UPallocRegistrySlot       00414520 f   prUdummy.obj
 0001:00003550       _UPallocFsObject           00414550 f   prUdummy.obj
 0001:00003600       _UPallocVsObject           00414600 f   prUdummy.obj
 0001:000036d0       _UPclassType               004146d0 f   prUdummy.obj
 0001:00003730       _UPreturnHandle            00414730 f   prUdummy.obj
 0001:00003780       _UPreturnNil               00414780 f   prUdummy.obj
 0001:00003790       _UPreturnTrue              00414790 f   prUdummy.obj
 0001:000037a0       _UPreturnFalse             004147a0 f   prUdummy.obj
 0001:000037b0       _UPmustBeByteLike          004147b0 f   prUdummy.obj
 0001:000037d0       _UPmustBeCharacter         004147d0 f   prUdummy.obj
 0001:000037f0       _UPmustBeInteger           004147f0 f   prUdummy.obj
 0001:00003810       _UPmustBeString            00414810 f   prUdummy.obj
 0001:00003830       _UPmustBeByteArray         00414830 f   prUdummy.obj
 0001:00003850       _UPmustBeArrayOfInteger    00414850 f   prUdummy.obj
 0001:00003870       _UPmustBeArrayOfFloat      00414870 f   prUdummy.obj
 0001:00003890       _UPmustBeBoolean           00414890 f   prUdummy.obj
 0001:000038b0       _UPmustBeFloat             004148b0 f   prUdummy.obj
 0001:000038d0       _main                      004148d0 f   prUdummy.obj
 0001:000038f0       _CrtUPrimGlue0             004148f0 f   prUdummy.obj
 0001:00003900       _CrtUPrimGlue1             00414900 f   prUdummy.obj
 0001:00003910       _CrtUPrimGlue2             00414910 f   prUdummy.obj
 0001:00003920       _CrtUPrimGlue3             00414920 f   prUdummy.obj
 0001:00003930       _CrtUPrimGlueMany          00414930 f   prUdummy.obj
 0001:00003940       _initUserPrimitives        00414940 f   prUdummy.obj
 0001:00003950       _UPInitLinkRegistry        00414950 f   prUdummy.obj
 0001:00003960       _initUPprotocol            00414960 f   prUdummy.obj
 0001:00003970       _pdTerminateTimer          00414970 f   ntalarm.obj
 0001:000039e0       _pdSignalAtMicroseconds    004149e0 f   ntalarm.obj
 0001:00003b10       _startPollTimer            00414b10 f   ntalarm.obj
 0001:00003b90       _stopPollTimer             00414b90 f   ntalarm.obj
 0001:00003bc0       _pdBeginCritical           00414bc0 f   ntalarm.obj
 0001:00003be0       _pdEndCritical             00414be0 f   ntalarm.obj
 0001:00003c00       _pdResetCritical           00414c00 f   ntalarm.obj
 0001:00003c10       _pdInitTimers              00414c10 f   ntalarm.obj
 0001:00003f30       _pdExitTimers              00414f30 f   ntalarm.obj
 0001:00003fc0       _platBlockUntilEvent       00414fc0 f   ntalarm.obj
 0001:000040c0       _pdWakeup                  004150c0 f   ntalarm.obj
 0001:00004110       _pdStartProfileTimer       00415110 f   ntalarm.obj
 0001:00004370       _pdStopProfileTimer        00415370 f   ntalarm.obj
 0001:000043a0       _pdInitProfile             004153a0 f   ntalarm.obj
 0001:000043f0       _initNTAnimationPrims      004153f0 f   ntanim.obj
 0001:00006bb0       _freeWindowResources       00417bb0 f   ntcanvas.obj
 0001:00006d40       _initNTCanvasPrims         00417d40 f   ntcanvas.obj
 0001:0000aff0       _pdMoveMouse               0041bff0 f   ntcurs.obj
 0001:0000b010       _initNTCursPrims           0041c010 f   ntcurs.obj
 0001:0000b460       _initDynamicLoadPrimitives 0041c460 f   ntdynld.obj
 0001:0000bc30       _initOSErrorCodePrims      0041cc30 f   ntecode.obj
 0001:0000be70       _pdErrorString             0041ce70 f   nterror.obj
 0001:0000be90       _pdPrint                   0041ce90 f   nterror.obj
 0001:0000bf60       _openConsole               0041cf60 f   nterror.obj
 0001:0000c040       _pdDebugLog                0041d040 f   nterror.obj
 0001:0000c0b0       _pdCloseDebugLog           0041d0b0 f   nterror.obj
 0001:0000c0f0       _pdSizeOfEvent             0041d0f0 f   ntevent.obj
 0001:0000c100       _PopupWndProc@16           0041d100 f   ntevent.obj
 0001:0000c190       _MainWndProc@16            0041d190 f   ntevent.obj
 0001:0000d8b0       _hfWinQueryFont            0041e8b0 f   ntfont.obj
 0001:0000dae0       _listFonts                 0041eae0 f   ntfont.obj
 0001:0000e3e0       _initNTFontPrims           0041f3e0 f   ntfont.obj
 0001:0000f530       _flushWindowCachedDC       00420530 f   ntgc.obj
 0001:0000f580       _flushPixmapCachedDC       00420580 f   ntgc.obj
 0001:0000f5c0       _bDeinstallGraphicsState   004205c0 f   ntgc.obj
 0001:0000f9d0       _bInstallGraphicsState     004209d0 f   ntgc.obj
 0001:000103b0       _buildPoints               004213b0 f   ntgc.obj
 0001:000106c0       _bGetMask                  004216c0 f   ntgc.obj
 0001:00010790       _vw_GetWindowRgn           00421790 f   ntgc.obj
 0001:000108b0       _initNTGCPrims             004218b0 f   ntgc.obj
 0001:00012d20       _CreateColorMapOop         00423d20 f   ntgraph.obj
 0001:00013c60       _BuildPalette              00424c60 f   ntgraph.obj
 0001:00013e10       _RemovePalette             00424e10 f   ntgraph.obj
 0001:00013e50       _InitPalette               00424e50 f   ntgraph.obj
 0001:00013e80       _TermPalette               00424e80 f   ntgraph.obj
 0001:00013e90       _InitScreen                00424e90 f   ntgraph.obj
 0001:00013f20       _initWindowPrimitives      00424f20 f   ntgraph.obj
 0001:00013fe0       _pdHerald                  00424fe0 f   ntherald.obj
 0001:00014500       _pdTearDownHerald          00425500 f   ntherald.obj
 0001:00014530       _pdReportVersion           00425530 f   ntherald.obj
 0001:00014970       _initPixmapRegistry        00425970 f   nthreg.obj
 0001:00014aa0       _bFreeHandleRegistry       00425aa0 f   nthreg.obj
 0001:00014cd0       _registerHandle            00425cd0 f   nthreg.obj
 0001:00014f10       _iHandleOfKey              00425f10 f   nthreg.obj
 0001:00014fa0       _iKeyOfHandle              00425fa0 f   nthreg.obj
 0001:00015030       _unRegisterHandle          00426030 f   nthreg.obj
 0001:000150d0       _pdMustFlushICache         004260d0 f   nticache.obj
 0001:00015160       _convert32BETo24LE         00426160 f   ntimage.obj
 0001:00015190       _convert24LETo32BE         00426190 f   ntimage.obj
 0001:000151c0       _getImage                  004261c0 f   ntimage.obj
 0001:00015260       _initNTImagePrims          00426260 f   ntimage.obj
 0001:00015b50       _initIOBlock               00426b50 f   ntioblok.obj
 0001:00015d30       _freeIOBlock               00426d30 f   ntioblok.obj
 0001:00015e30       _pioblockOfHandle          00426e30 f   ntioblok.obj
 0001:00015e90       _pioblockFirst             00426e90 f   ntioblok.obj
 0001:00015ee0       _pioblockNext              00426ee0 f   ntioblok.obj
 0001:00015f30       _validIOBlock              00426f30 f   ntioblok.obj
 0001:00015f70       _logErrorInformation       00426f70 f   ntleave.obj
 0001:00015fb0       _pdExit                    00426fb0 f   ntleave.obj
 0001:00015ff0       _pdInvokeDebugger          00426ff0 f   ntleave.obj
 0001:00016000       _InitMultipleMonitorStubs  00427000 f   ntmain.obj
 0001:000160e0       _xGetSystemMetrics@4       004270e0 f   ntmain.obj
 0001:00016150       _xMonitorFromPoint@12      00427150 f   ntmain.obj
 0001:000161c0       _xMonitorFromRect@8        004271c0 f   ntmain.obj
 0001:00016230       _xMonitorFromWindow@8      00427230 f   ntmain.obj
 0001:000162b0       _xGetMonitorInfo@8         004272b0 f   ntmain.obj
 0001:00016370       _xEnumDisplayMonitors@16   00427370 f   ntmain.obj
 0001:000164a0       _oeMain                    004274a0 f   ntmain.obj
 0001:00016ba0       _dllCMain                  00427ba0 f   ntmain.obj
 0001:00016bc0       _WinMain@16                00427bc0 f   ntmain.obj
 0001:00016c10       _dllWMain                  00427c10 f   ntmain.obj
 0001:00016d00       _pdInformSystemReady       00427d00 f   ntmain.obj
 0001:00017030       _profileInt                00428030 f   ntmain.obj
 0001:00017050       _profileString             00428050 f   ntmain.obj
 0001:00017070       _UPInitInternalLinkRegistry 00428070 f   ntmain.obj
 0001:00017080       _pdSetMemExecPerm          00428080 f   ntmem.obj
 0001:00017090       _pdMoreMemory              00428090 f   ntmem.obj
 0001:000171f0       _pdMapMemory               004281f0 f   ntmem.obj
 0001:00017410       _pdUnmapMemory             00428410 f   ntmem.obj
 0001:00017470       _pdStringLength            00428470 f   ntmem.obj
 0001:00017510       _pdCopyFromExternalHeap    00428510 f   ntmem.obj
 0001:000175b0       _pdCopyToExternalHeap      004285b0 f   ntmem.obj
 0001:00017650       _pdAllocMemory             00428650 f   ntmem.obj
 0001:00017680       _pdFreeMemory              00428680 f   ntmem.obj
 0001:000176b0       _pdMemStrategy             004286b0 f   ntmem.obj
 0001:000176c0       _pdGetPagesize             004286c0 f   ntmem.obj
 0001:000176f0       _pdMapFile                 004286f0 f   ntmem.obj
 0001:00017700       _cleanUpNTNLS              00428700 f   ntnls.obj
 0001:00017720       _initNTNLS                 00428720 f   ntnls.obj
 0001:00017920       _checkResources            00428920 f   ntfile.obj
 0001:00017940       _pdOpenImageResource       00428940 f   ntfile.obj
 0001:000179d0       _pdBlessSnapshot           004289d0 f   ntfile.obj
 0001:00017a10       _pdOpenImage               00428a10 f   ntfile.obj
 0001:00017ab0       _pdCloseImage              00428ab0 f   ntfile.obj
 0001:00017af0       _pdCloseImageResource      00428af0 f   ntfile.obj
 0001:00017b00       _pdRead                    00428b00 f   ntfile.obj
 0001:00017b50       _pdWrite                   00428b50 f   ntfile.obj
 0001:00017bb0       _pdSeek                    00428bb0 f   ntfile.obj
 0001:00017c80       _initFileUtilityPrims      00428c80 f   ntfile.obj
 0001:0001b1b0       _bDoFileReadFunc           0042c1b0 f   ntfio.obj
 0001:0001b1f0       _bDoFileWriteFunc          0042c1f0 f   ntfio.obj
 0001:0001b270       _bDoFileBytesToReadFunc    0042c270 f   ntfio.obj
 0001:0001b280       _initFileIOPrims           0042c280 f   ntfio.obj
 0001:0001c610       _initNewIO                 0042d610 f   ntfio.obj
 0001:0001c620       _freeSocketLibrary         0042d620 f   ntsock.obj
 0001:0001c710       _bDoSockRecvFunc           0042d710 f   ntsock.obj
 0001:0001c7b0       _bDoSockSendFunc           0042d7b0 f   ntsock.obj
 0001:0001c860       _bDoSockBytesToReadFunc    0042d860 f   ntsock.obj
 0001:0001c8a0       _HiddenSocketWndProc@16    0042d8a0 f   ntsock.obj
 0001:0001cb20       _initSocketPrims           0042db20 f   ntsock.obj
 0001:0001f7c0       _pdInitPlatform            004307c0 f   ntplat.obj
 0001:0001f7d0       _pdFPUType                 004307d0 f   ntplat.obj
 0001:0001f7e0       _pdSupportNBAPI            004307e0 f   ntplat.obj
 0001:0001f7f0       _PrintTextFile             004307f0 f   ntplat.obj
 0001:0001fad0       _PrintPostScriptFile       00430ad0 f   ntplat.obj
 0001:0001fd40       _PrinterAbortProc@8        00430d40 f   ntprint.obj
 0001:0001fda0       _initNTPrinterPrims        00430da0 f   ntprint.obj
 0001:00021ed0       _pdInitSelection           00432ed0 f   ntsel.obj
 0001:00021ee0       _pdGetSelection            00432ee0 f   ntsel.obj
 0001:00021fa0       _pdGetSelectionDone        00432fa0 f   ntsel.obj
 0001:00021fc0       _pdSetSelection            00432fc0 f   ntsel.obj
 0001:00022030       _setIOSemSlot              00433030 f   ntsem.obj
 0001:00022200       _getIOSemSlot              00433200 f   ntsem.obj
 0001:00022220       _iAllocIOSemSlot           00433220 f   ntsem.obj
 0001:000225b0       _freeIOSemSlot             004335b0 f   ntsem.obj
 0001:00022640       _bInitIOSemRegistry        00433640 f   ntsem.obj
 0001:000227f0       _validIOSem                004337f0 f   ntsem.obj
 0001:00022850       _pdAckChildSignal          00433850 f   ntsig.obj
 0001:00022860       _pdInitTime                00433860 f   nttime.obj
 0001:000229f0       _pdMicrosecondClock        004339f0 f   nttime.obj
 0001:00022b20       _FileToSmalltalkSeconds    00433b20 f   nttime.obj
 0001:00022bb0       _pdStringEncoding          00433bb0 f   ntwin.obj
 0001:00022bd0       _pdInitWindow              00433bd0 f   ntwin.obj
 0001:00022bf0       _pdTerminateWindow         00433bf0 f   ntwin.obj
 0001:00022c10       _pdSynchronizeInput        00433c10 f   ntwin.obj
 0001:00022ce0       _pdThunkProcess            00433ce0 f   ntwin.obj
 0001:00022d10       _pdBlockUntilEvent         00433d10 f   ntwin.obj
 0001:00022d40       _pdRingBell                00433d40 f   ntwin.obj
 0001:00022d50       _pdCallFar                 00433d50 f   ntcall16.obj
 0001:00023ef0       _pdCOMMethodThunkSize      00434ef0 f   ntcom.obj
 0001:00023f20       _pdCOMPlaceThunkInto       00434f20 f   ntcom.obj
 0001:000255f0       _pdThunkCreate             004365f0 f   ntcallbk.obj
 0001:00025780       _pdThunkDestroy            00436780 f   ntcallbk.obj
 0001:00025f40       _NBAPICallbackArgsInto     00436f40 f   ntcallbk.obj
 0001:00025f90       _NBAPIReapCallbackReturn   00436f90 f   ntcallbk.obj
 0001:00026340       _pdCallC                   00437340 f   ntcallc.obj
 0001:00027600       _pdNumBitsForKind          00438600 f   ntcallc.obj
 0001:00027680       _NBAPIInnerCall            00438680 f   ntcallc.obj
 0001:00027900       _NBAPIReapInnerCall        00438900 f   ntcallc.obj
 0001:00027d30       _thunkCreateFar            00438d30 f   ntcbk16.obj
 0001:00027f60       _thunkDestroyFar           00438f60 f   ntcbk16.obj
 0001:00027f70       _thunkProcessFar@16        00438f70 f   ntcbk16.obj
 0001:00028cc0       _copyBits                  00439cc0 f   exBitBlt.obj
 0001:00029c80       _copyBitsFromtoat          0043ac80 f   exBitBlt.obj
 0001:0002aac0       _getModuleName             0043bac0 f   exBitBlt.obj
 0001:0002aad0       _initBitBltPrimitives      0043bad0 f   exBitBlt.obj
 0001:0002b5a0       _initialiseModule          0043c5a0 f   exBitBlt.obj
 0001:0002b5b0       _loadBitBltFrom            0043c5b0 f   exBitBlt.obj
 0001:0002c3e0       _moduleUnloaded            0043d3e0 f   exBitBlt.obj
 0001:0002c710       _primitiveCopyBits         0043d710 f   exBitBlt.obj
 0001:0002c780       _primitiveCopyBitstranslucency 0043d780 f   exBitBlt.obj
 0001:0002c810       _primitiveDisplayStringstringfromtomapxTablekern 0043d810 f   exBitBlt.obj
 0001:0002cd00       _primitiveDrawLoopXY       0043dd00 f   exBitBlt.obj
 0001:0002d310       _primitiveWarpBitssmoothing 0043e310 f   exBitBlt.obj
 0001:0002dd80       _sourceBLTstridedeststridedxdysxsywhruledoTile 0043ed80 f   exBitBlt.obj
 0001:0002f370       _countTableSlots           00440370 f   exCOM.obj
 0001:0002f420       _populateMethodTable       00440420 f   exCOM.obj
 0001:0002f630       _initCOMPrimitives         00440630 f   exCOM.obj
 0001:00031590       _maybeCallCFatalError      00442590 f   exCallC.obj
 0001:000315f0       _initCPrimitives           004425f0 f   exCallC.obj
 0001:00033ec0       _initCallbackPrimitives    00444ec0 f   exCallback.obj
 0001:00034180       _stOopToCValue             00445180 f   exCallSup.obj
 0001:000343b0       _cSignedToOop              004453b0 f   exCallSup.obj
 0001:00034550       _cUnsignedToOop            00445550 f   exCallSup.obj
 0001:000346a0       _coerceToCString           004456a0 f   exCallSup.obj
 0001:00034ae0       _initCSupportPrimitives    00445ae0 f   exCallSup.obj
 0001:000378f0       _initDisplayPrimitives     004488f0 f   exDisplay.obj
 0001:00037ac0       _objReverseFourQ8s         00448ac0 f   exEndian.obj
 0001:00037b50       _objReverseTwoQ8s          00448b50 f   exEndian.obj
 0001:00037bc0       _objReverseTwoQ16s         00448bc0 f   exEndian.obj
 0001:00037e20       _initEnvironmentPrimitives 00448e20 f   exEnviron.obj
 0001:000398e0       _initError                 0044a8e0 f   exError.obj
 0001:00039990       _doReportError             0044a990 f   exError.obj
 0001:00039c10       _exportTableAt             0044ac10 f   exExport.obj
 0001:00039cc0       _exportTableReleaseAt      0044acc0 f   exExport.obj
 0001:00039dc0       _initExportTablePrimitives 0044adc0 f   exExport.obj
 0001:00039e80       _initExternPrimitives      0044ae80 f   exInit.obj
 0001:00039ec0       _loadImageHeader           0044aec0 f   exInit.obj
 0001:0003a010       _startSupervisor           0044b010 f   exInit.obj
 0001:0003a1b0       _initSuper                 0044b1b0 f   exInit.obj
 0001:0003a380       _readImageFile             0044b380 f   exInit.obj
 0001:0003a5a0       _closeImageFile            0044b5a0 f   exInit.obj
 0001:0003a790       _wellFormedZone            0044b790 f   exInit.obj
 0001:0003acd0       _oeInitZlibLinkRegistry    0044bcd0 f   exInit.obj
 0001:0003af80       _extendedQueueNewAscii     0044bf80 f   exInQueue.obj
 0001:0003aff0       _extendedQueueTypedEvent   0044bff0 f   exInQueue.obj
 0001:0003b220       _queueTypedEvent           0044c220 f   exInQueue.obj
 0001:0003b260       _initInput                 0044c260 f   exInQueue.obj
 0001:0003b590       _initIOPrimitives          0044c590 f   exIO.obj
 0001:0003b850       _initGUIPrimitives         0044c850 f   exIO.obj
 0001:0003b860       _vmExit                    0044c860 f   exLeave.obj
 0001:0003b8b0       _initLeavePrimitives       0044c8b0 f   exLeave.obj
 0001:0003b9d0       _moreMemory                0044c9d0 f   exMemory.obj
 0001:0003ba80       _lessMemory                0044ca80 f   exMemory.obj
 0001:0003bad0       _memStrategy               0044cad0 f   exMemory.obj
 0001:0003baf0       _UPSendMessageMany         0044caf0 f   exMessage.obj
 0001:0003bb20       _oeSendMessageMany         0044cb20 f   exMessage.obj
 0001:0003df90       _UPSendMessage0            0044ef90 f   exMessage.obj
 0001:0003e2d0       _oeSendMessage0            0044f2d0 f   exMessage.obj
 0001:0003e300       _UPSendMessage1            0044f300 f   exMessage.obj
 0001:0003e330       _oeSendMessage1            0044f330 f   exMessage.obj
 0001:0003e360       _UPSendMessage2            0044f360 f   exMessage.obj
 0001:0003e3a0       _oeSendMessage2            0044f3a0 f   exMessage.obj
 0001:0003e3e0       _oeSendMessage3            0044f3e0 f   exMessage.obj
 0001:0003e420       _UPSendMessage3            0044f420 f   exMessage.obj
 0001:0003e460       _UPCSendMessageMany        0044f460 f   exMessage.obj
 0001:0003e490       _oeCSendMessageMany        0044f490 f   exMessage.obj
 0001:0003e7d0       _UPCSendMessage0           0044f7d0 f   exMessage.obj
 0001:0003e800       _oeCSendMessage0           0044f800 f   exMessage.obj
 0001:0003e830       _UPCSendMessage1           0044f830 f   exMessage.obj
 0001:0003e860       _oeCSendMessage1           0044f860 f   exMessage.obj
 0001:0003e890       _UPCSendMessage2           0044f890 f   exMessage.obj
 0001:0003e8d0       _oeCSendMessage2           0044f8d0 f   exMessage.obj
 0001:0003e910       _UPCSendMessage3           0044f910 f   exMessage.obj
 0001:0003e950       _oeCSendMessage3           0044f950 f   exMessage.obj
 0001:0003e990       _UPFailPrimitive           0044f990 f   exMessage.obj
 0001:0003e9c0       _UPFailPrimitiveAtLine     0044f9c0 f   exMessage.obj
 0001:0003ea10       _UPReturn                  0044fa10 f   exMessage.obj
 0001:0003eab0       _initMessagePrimitives     0044fab0 f   exMessage.obj
 0001:0003f1a0       _stringToInt               004501a0 f   exOption.obj
 0001:0003f300       _setOption                 00450300 f   exOption.obj
 0001:0003f800       _reportUsage               00450800 f   exOption.obj
 0001:0003f880       _copySubStringToC          00450880 f   exPrimUtil.obj
 0001:0003fa70       _isValidPlatformString     00450a70 f   exPrimUtil.obj
 0001:0003fc80       _promoteToFixedSpace       00450c80 f   exPrimUtil.obj
 0001:0003fd80       _copyToCString             00450d80 f   exPrimUtil.obj
 0001:0003fe00       _tempCString               00450e00 f   exPrimUtil.obj
 0001:0003fec0       _STStringWithSize          00450ec0 f   exPrimUtil.obj
 0001:0003ff10       _setStringEncoding         00450f10 f   exPrimUtil.obj
 0001:00040000       _isKindOf                  00451000 f   exPrimUtil.obj
 0001:00040040       _inheritsFrom1             00451040 f   exPrimUtil.obj
 0001:00040070       _inheritsFrom2             00451070 f   exPrimUtil.obj
 0001:000400b0       _inheritsFrom3             004510b0 f   exPrimUtil.obj
 0001:00040100       _inheritsFrom4             00451100 f   exPrimUtil.obj
 0001:00040150       _cloneErrorWith            00451150 f   exPrimUtil.obj
 0001:000403c0       _cloneCallCError           004513c0 f   exPrimUtil.obj
 0001:00040930       _initScanCharPrimitives    00451930 f   exScanCh.obj
 0001:00040f80       _signalChildStatusSemaphore 00451f80 f   exSignal.obj
 0001:00040fa0       _initSignalPrimitives      00451fa0 f   exSignal.obj
 0001:00041040       _initTime                  00452040 f   exTimer.obj
 0001:00041060       _timeExpired               00452060 f   exTimer.obj
 0001:00041250       _isTimerActive             00452250 f   exTimer.obj
 0001:00041280       _initTimePrimitives        00452280 f   exTimer.obj
 0001:000415e0       _InitializeNBAPI           004525e0 f   exThapi.obj
 0001:00041930       _NBAPISemaphoreForCurrentProcess 00452930 f   exThapi.obj
 0001:00041af0       _NBAPITInfoForThread       00452af0 f   exThapi.obj
 0001:00041c30       _NBAPISignalThreadForCallout 00452c30 f   exThapi.obj
 0001:00041d00       _NBAPIThreadForCall        00452d00 f   exThapi.obj
 0001:00042350       _NBAPIProcessHasAttachedThread 00453350 f   exThapi.obj
 0001:000424e0       _NBAPIAttachProcessToThread 004534e0 f   exThapi.obj
 0001:00042520       _NBAPIDetachProcessFromThread 00453520 f   exThapi.obj
 0001:000426b0       _NBAPIGetThreadLevels      004536b0 f   exThapi.obj
 0001:00042890       _NBAPISetThreadLevels      00453890 f   exThapi.obj
 0001:00042910       _NBAPIInvokeCallback       00453910 f   exThapi.obj
 0001:00042f30       _NBAPICallbackReturn       00453f30 f   exThapi.obj
 0001:000431c0       _NBAPIReleaseThreadIfUnwound 004541c0 f   exThapi.obj
 0001:00043440       _NBAPICheckProcessTermination 00454440 f   exThapi.obj
 0001:00043ab0       _NBAPIYield                00454ab0 f   exThapi.obj
 0001:000443c0       _NBAPIServiceThreads       004553c0 f   exThapi.obj
 0001:000453b0       _stateof                   004563b0 f   exThapi.obj
 0001:00045430       _allegianceName            00456430 f   exThapi.obj
 0001:00045460       _printTInfo                00456460 f   exThapi.obj
 0001:00045570       _printNBAPIList            00456570 f   exThapi.obj
 0001:00045600       _printNBAPI                00456600 f   exThapi.obj
 0001:00045670       _initPrimitives            00456670 f   pr.obj
 0001:00045690       _initArithmeticPrims       00456690 f   prArithmetic.obj
 0001:00046460       _oeGetErrorCode            00457460 f   prCtoST.obj
 0001:00046470       _oeStartLongComputation    00457470 f   prCtoST.obj
 0001:00046480       _oeFinishLongComputation   00457480 f   prCtoST.obj
 0001:00046490       _oeNil                     00457490 f   prCtoST.obj
 0001:000464a0       _oeTrue                    004574a0 f   prCtoST.obj
 0001:000464b0       _oeFalse                   004574b0 f   prCtoST.obj
 0001:000464c0       _oeSmallIntegerClass       004574c0 f   prCtoST.obj
 0001:000464d0       _oeCharacterClass          004574d0 f   prCtoST.obj
 0001:000464e0       _oeFloatClass              004574e0 f   prCtoST.obj
 0001:000464f0       _oePointClass              004574f0 f   prCtoST.obj
 0001:00046500       _oeArrayClass              00457500 f   prCtoST.obj
 0001:00046510       _oeSemaphoreClass          00457510 f   prCtoST.obj
 0001:00046520       _oeByteStringClass         00457520 f   prCtoST.obj
 0001:00046530       _oeLargePositiveIntegerClass 00457530 f   prCtoST.obj
 0001:00046540       _oeLargeNegativeIntegerClass 00457540 f   prCtoST.obj
 0001:00046550       _oeByteArrayClass          00457550 f   prCtoST.obj
 0001:00046560       _oeTwoByteStringClass      00457560 f   prCtoST.obj
 0001:00046570       _oeTwoByteSymbolClass      00457570 f   prCtoST.obj
 0001:00046580       _oeDoubleClass             00457580 f   prCtoST.obj
 0001:00046590       _oeOEToCbool               00457590 f   prCtoST.obj
 0001:00046600       _oeOEToCint                00457600 f   prCtoST.obj
 0001:00046660       _oeOEToCchar               00457660 f   prCtoST.obj
 0001:000466c0       _oeOEToCfloat              004576c0 f   prCtoST.obj
 0001:00046740       _oeCtoOEbool               00457740 f   prCtoST.obj
 0001:00046760       _oeCtoOEint                00457760 f   prCtoST.obj
 0001:000467b0       _oeCtoOEchar               004577b0 f   prCtoST.obj
 0001:000467c0       _oeCtoOEfloat              004577c0 f   prCtoST.obj
 0001:000468c0       _oeAllocString             004578c0 f   prCtoST.obj
 0001:00046a30       _oeAllocByteArray          00457a30 f   prCtoST.obj
 0001:00046ba0       _oeAllocArray              00457ba0 f   prCtoST.obj
 0001:00046eb0       _oeCopyOEtoCstring         00457eb0 f   prCtoST.obj
 0001:00046fd0       _oeCopyOEtoCbytes          00457fd0 f   prCtoST.obj
 0001:000470a0       _oeCopyOEtoCintArray       004580a0 f   prCtoST.obj
 0001:000471e0       _oeCopyOEtoCfloatArray     004581e0 f   prCtoST.obj
 0001:00047340       _oeCopyCtoOEstring         00458340 f   prCtoST.obj
 0001:00047460       _oeCopyCtoOEbytes          00458460 f   prCtoST.obj
 0001:00047530       _oeCopyCtoOEintArray       00458530 f   prCtoST.obj
 0001:00047670       _oeCopyCtoOEfloatArray     00458670 f   prCtoST.obj
 0001:00047970       _oeOopDataPtr              00458970 f   prCtoST.obj
 0001:000479a0       _oeInstVarSize             004589a0 f   prCtoST.obj
 0001:00047a00       _oeIndexVarSize            00458a00 f   prCtoST.obj
 0001:00047ac0       _oeBasicAt                 00458ac0 f   prCtoST.obj
 0001:00047b80       _oeInstVarAt               00458b80 f   prCtoST.obj
 0001:00047c20       _oeByteAt                  00458c20 f   prCtoST.obj
 0001:00047cd0       _oeIntegerAt               00458cd0 f   prCtoST.obj
 0001:00047dc0       _oeFloatAt                 00458dc0 f   prCtoST.obj
 0001:00047ee0       _oeDoubleAt                00458ee0 f   prCtoST.obj
 0001:00048000       _oeBasicAtPut              00459000 f   prCtoST.obj
 0001:000481a0       _oeInstVarAtPut            004591a0 f   prCtoST.obj
 0001:00048310       _oeByteAtPut               00459310 f   prCtoST.obj
 0001:000483c0       _oeIntegerAtPut            004593c0 f   prCtoST.obj
 0001:00048560       _oeFloatAtPut              00459560 f   prCtoST.obj
 0001:00048700       _oeIsCharacter             00459700 f   prCtoST.obj
 0001:00048720       _oeIsInteger               00459720 f   prCtoST.obj
 0001:00048740       _oeIsString                00459740 f   prCtoST.obj
 0001:000487a0       _oeIsByteArray             004597a0 f   prCtoST.obj
 0001:00048800       _oeIsArrayOfInteger        00459800 f   prCtoST.obj
 0001:000488d0       _oeIsArrayOfFloat          004598d0 f   prCtoST.obj
 0001:000489c0       _oeIsBoolean               004599c0 f   prCtoST.obj
 0001:00048a10       _oeIsFloat                 00459a10 f   prCtoST.obj
 0001:00048a70       _oeIsByteLike              00459a70 f   prCtoST.obj
 0001:00048ab0       _oeIsImmediate             00459ab0 f   prCtoST.obj
 0001:00048ac0       _oeCouldBeOop              00459ac0 f   prCtoST.obj
 0001:00048b00       _oeClass                   00459b00 f   prCtoST.obj
 0001:00048b50       _oeOEToCdouble             00459b50 f   prCtoST.obj
 0001:00048be0       _oeCtoOEdouble             00459be0 f   prCtoST.obj
 0001:00048d00       _oeIsDouble                00459d00 f   prCtoST.obj
 0001:00048d50       _oeIsKindOf                00459d50 f   prCtoST.obj
 0001:00048dd0       _oeInstallPollHandler      00459dd0 f   prCtoST.obj
 0001:00048df0       _oeSignalSemaphore         00459df0 f   prCtoST.obj
 0001:00048e60       _oePostInterrupt           00459e60 f   prCtoST.obj
 0001:00048e70       _oeRegisteredHandleAt      00459e70 f   prCtoST.obj
 0001:00048ea0       _oeRegisteredHandleAtPut   00459ea0 f   prCtoST.obj
 0001:00048f10       _oeAddPrimitive            00459f10 f   prCtoST.obj
 0001:00048f30       _oeAllocRegistrySlot       00459f30 f   prCtoST.obj
 0001:00048f50       _oeAllocFsObject           00459f50 f   prCtoST.obj
 0001:00048fc0       _oeAllocVsObject           00459fc0 f   prCtoST.obj
 0001:00049050       _oeClassType               0045a050 f   prCtoST.obj
 0001:00049090       _initOEprotocol            0045a090 f   prCtoST.obj
 0001:000490a0       _initDoublePrims           0045a0a0 f   prDouble.obj
 0001:0004b2e0       _initFloatPrims            0045c2e0 f   prFloat.obj
 0001:0004d0f0       _initLargeIntPrims         0045e0f0 f   prLarge.obj
 0001:00051e00       _UPRegisterSymbolAndHandle 00462e00 f   prLinkRegistry.obj
 0001:00051ed0       _UPHandleForSymbol         00462ed0 f   prLinkRegistry.obj
 0001:00051f40       _oeRegisterSymbolAndHandle 00462f40 f   prLinkRegistry.obj
 0001:00051f60       _initLinkRegistryPrimitives 00462f60 f   prLinkRegistry.obj
 0001:00052010       _recycleObj                00463010 f   mm.obj
 0001:00052410       _maximumIdentityHashValue  00463410 f   mm.obj
 0001:00052420       _getObjHash                00463420 f   mm.obj
 0001:00052470       _objDataOkShouldBeMarked   00463470 f   mm.obj
 0001:00052760       _objDataOk                 00463760 f   mm.obj
 0001:000527a0       _objIsAlive                004637a0 f   mm.obj
 0001:000529b0       _objOk                     004639b0 f   mm.obj
 0001:00052a20       _objectMemoryOk            00463a20 f   mm.obj
 0001:00052ab0       _initObjectPrims           00463ab0 f   mm.obj
 0001:00053790       _classCheckIfMetaclassHasSubclasses 00464790 f   mmAllocate.obj
 0001:000537d0       _classType                 004647d0 f   mmAllocate.obj
 0001:00053860       _allocFSObj                00464860 f   mmAllocate.obj
 0001:00053b60       _allocVSObj                00464b60 f   mmAllocate.obj
 0001:00053fe0       _createShallowCopyOf       00464fe0 f   mmAllocate.obj
 0001:00054480       _allocSmallObj             00465480 f   mmAllocate.obj
 0001:000544e0       _allocLargePointerObj      004654e0 f   mmAllocate.obj
 0001:00054520       _allocLargeByteObj         00465520 f   mmAllocate.obj
 0001:00054570       _shrinkOrCopyPtrObj        00465570 f   mmAllocate.obj
 0001:00054650       _initAllocationPrims       00465650 f   mmAllocate.obj
 0001:00055880       _tryBecome                 00466880 f   mmBecome.obj
 0001:00058a00       _initBecomePrims           00469a00 f   mmBecome.obj
 0001:00059830       _printCheckMapInfo         0046a830 f   mmCheckMap.obj
 0001:00059880       _printCheckMapAddress      0046a880 f   mmCheckMap.obj
 0001:000598c0       @setCheckMapBit@4          0046a8c0 f   mmCheckMap.obj
 0001:00059910       @clearCheckMapBit@4        0046a910 f   mmCheckMap.obj
 0001:00059950       @isCheckMapBitSet@4        0046a950 f   mmCheckMap.obj
 0001:00059990       @clearCheckMapFromUpto@8   0046a990 f   mmCheckMap.obj
 0001:00059b30       @setCheckMapFromUpto@8     0046ab30 f   mmCheckMap.obj
 0001:00059d10       @checkMapIsClearFromUpto@8 0046ad10 f   mmCheckMap.obj
 0001:00059e90       @checkMapIsSetFromUpto@8   0046ae90 f   mmCheckMap.obj
 0001:0005a110       _dbObjHeader               0046b110 f   mmDebug.obj
 0001:0005a3e0       _dbxHeader                 0046b3e0 f   mmDebug.obj
 0001:0005a400       _dbObjData                 0046b400 f   mmDebug.obj
 0001:0005a600       _dbxData                   0046b600 f   mmDebug.obj
 0001:0005a620       _dbObjDataField            0046b620 f   mmDebug.obj
 0001:0005a660       _dbSetObjDataField         0046b660 f   mmDebug.obj
 0001:0005a690       _dbObjDataPtr              0046b690 f   mmDebug.obj
 0001:0005a6d0       _dbObjClass                0046b6d0 f   mmDebug.obj
 0001:0005a6f0       _dbObjClassName            0046b6f0 f   mmDebug.obj
 0001:0005a720       _dbfObjClassName           0046b720 f   mmDebug.obj
 0001:0005ada0       _dbxClassName              0046bda0 f   mmDebug.obj
 0001:0005adc0       _dbClassNameIs             0046bdc0 f   mmDebug.obj
 0001:0005b070       _printIfClassNameIs        0046c070 f   mmDebug.obj
 0001:0005b0a0       _dbObjClassNameIs          0046c0a0 f   mmDebug.obj
 0001:0005b620       _printIfObjClassNameIs     0046c620 f   mmDebug.obj
 0001:0005b650       _dbObjMayBeClass           0046c650 f   mmDebug.obj
 0001:0005b7c0       _dbObjDataSize             0046c7c0 f   mmDebug.obj
 0001:0005b840       _dbObjHasPtrs              0046c840 f   mmDebug.obj
 0001:0005b870       _dbObjInOldRt              0046c870 f   mmDebug.obj
 0001:0005b8a0       _dbObjIsMarked             0046c8a0 f   mmDebug.obj
 0001:0005b8d0       _dbObjIsForwarded          0046c8d0 f   mmDebug.obj
 0001:0005b900       _dbObjInRt                 0046c900 f   mmDebug.obj
 0001:0005b930       _dbObjHash                 0046c930 f   mmDebug.obj
 0001:0005b960       _dbSelectorName            0046c960 f   mmDebug.obj
 0001:0005ba40       _dbxSelectorName           0046ca40 f   mmDebug.obj
 0001:0005ba60       _dbResidence               0046ca60 f   mmDebug.obj
 0001:0005be60       _dbxResidence              0046ce60 f   mmDebug.obj
 0001:0005be80       _dbObjOwners               0046ce80 f   mmDebug.obj
 0001:0005c090       _dbxOwners                 0046d090 f   mmDebug.obj
 0001:0005c0b0       _dbPrintIndicesOfIn        0046d0b0 f   mmDebug.obj
 0001:0005c140       _initDebugPrims            0046d140 f   mmDebug.obj
 0001:0005c280       _oopInObj                  0046d280 f   mmEnumerate.obj
 0001:0005c3a0       _initEnumerationPrims      0046d3a0 f   mmEnumerate.obj
 0001:0005d120       _signalFinalizationSemaphoreIfRequired 0046e120 f   mmFinal.obj
 0001:0005d190       _reserveOnEphemeronQueue   0046e190 f   mmFinal.obj
 0001:0005d1e0       _addToEphemeronQueue       0046e1e0 f   mmFinal.obj
 0001:0005d270       _addToFinalQueue           0046e270 f   mmFinal.obj
 0001:0005d4d0       _shrinkFinalQueue          0046e4d0 f   mmFinal.obj
 0001:0005d590       _shiftFinalQueueEntries    0046e590 f   mmFinal.obj
 0001:0005d700       _initFinalQueue            0046e700 f   mmFinal.obj
 0001:0005d810       _updateFinalQueuePtrs      0046e810 f   mmFinal.obj
 0001:0005d8e0       _objReallyInFinalQueue     0046e8e0 f   mmFinal.obj
 0001:0005d910       _objHasValidWeaknessProperties 0046e910 f   mmFinal.obj
 0001:0005da10       _finalSemaphore            0046ea10 f   mmFinal.obj
 0001:0005da30       _initFinalizationPrims     0046ea30 f   mmFinal.obj
 0001:0005de70       _addToMarkListFunc         0046ee70 f   mmGarbage.obj
 0001:0005def0       _compact                   0046eef0 f   mmGarbage.obj
 0001:0005df80       _initGarbagePrims          0046ef80 f   mmGarbage.obj
 0001:0005fc80       _addToCheckMarkListFunc    00470c80 f   mmIncGC.obj
 0001:0005fd30       _addToIncWeakListFunc      00470d30 f   mmIncGC.obj
 0001:0005fe40       _blowAwayIncGC             00470e40 f   mmIncGC.obj
 0001:00060220       _incMarkObj                00471220 f   mmIncGC.obj
 0001:00060420       _incMarkPermObjRefs        00471420 f   mmIncGC.obj
 0001:00060720       _chStOldObjInNonNew        00471720 f   mmIncGC.obj
 0001:00062120       _validateOldObj            00473120 f   mmIncGC.obj
 0001:00062260       _oopOnIncMarkStack         00473260 f   mmIncGC.obj
 0001:00062290       _oopOnIncEphemeronStack    00473290 f   mmIncGC.obj
 0001:000622c0       _initIncGCPrims            004732c0 f   mmIncGC.obj
 0001:00062420       _getImageFileFormat        00473420 f   mmInit.obj
 0001:00062450       _getImageType              00473450 f   mmInit.obj
 0001:00062480       _getImageSubType           00473480 f   mmInit.obj
 0001:000624b0       _setImageSubType           004734b0 f   mmInit.obj
 0001:000624c0       _startKernel               004734c0 f   mmInit.obj
 0001:00062be0       _readImageHeader           00473be0 f   mmInit.obj
 0001:00063820       _getDecompressionWorkspaces 00474820 f   mmInit.obj
 0001:00063c70       _realSlotsInStackSpace     00474c70 f   mmInit.obj
 0001:00064950       _updateOopFunc             00475950 f   mmInit.obj
 0001:00064aa0       _updatePermDataPtrFunc     00475aa0 f   mmInit.obj
 0001:00066660       _sweepLt                   00477660 f   mmLargeSpace.obj
 0001:00066700       _sweepAndCompactLargeSpace 00477700 f   mmLargeSpace.obj
 0001:00066900       _findFreeLsBlock           00477900 f   mmLargeSpace.obj
 0001:00066930       _compactLargeSpace         00477930 f   mmLargeSpace.obj
 0001:00066d00       _resetLargeSpaceAfterScavenge 00477d00 f   mmLargeSpace.obj
 0001:00066e20       _compactLargeSpaceResponse 00477e20 f   mmLargeSpace.obj
 0001:000671a0       _reRegisterLargeObj        004781a0 f   mmLargeSpace.obj
 0001:00067270       _largeSlotsToTenure        00478270 f   mmLargeSpace.obj
 0001:00067290       _numLargeSpaceObjects      00478290 f   mmLargeSpace.obj
 0001:000672b0       _occupiedLsDataSlots       004782b0 f   mmLargeSpace.obj
 0001:000672d0       _writeLargeSpace           004782d0 f   mmLargeSpace.obj
 0001:00067370       _allocInLargeSpace         00478370 f   mmLargeSpace.obj
 0001:000676e0       _lsDataSlotsFunc           004786e0 f   mmLargeSpace.obj
 0001:00067700       _lsBlockForObj             00478700 f   mmLargeSpace.obj
 0001:00067720       _lsBlockOk                 00478720 f   mmLargeSpace.obj
 0001:00067800       _largeSpaceOk              00478800 f   mmLargeSpace.obj
 0001:00067b30       _initializeEmptyFixedSpaceSegment 00478b30 f   mmFixedSpace.obj
 0001:00067bb0       _sweepFt                   00478bb0 f   mmFixedSpace.obj
 0001:00067d20       _sweepAndCompactFixedSpace 00478d20 f   mmFixedSpace.obj
 0001:00067e40       _compactFixedSpace         00478e40 f   mmFixedSpace.obj
 0001:00067f90       _resetFixedSpaceAfterScavenge 00478f90 f   mmFixedSpace.obj
 0001:000680f0       _existsFixedSpaceSegmentFor 004790f0 f   mmFixedSpace.obj
 0001:000681a0       _reRegisterFixedObj        004791a0 f   mmFixedSpace.obj
 0001:00068240       _occupiedFsDataSlotsIn     00479240 f   mmFixedSpace.obj
 0001:00068280       _occupiedFsDataSlots       00479280 f   mmFixedSpace.obj
 0001:000682c0       _occupiedFtSlots           004792c0 f   mmFixedSpace.obj
 0001:00068310       _writeFixedSpace           00479310 f   mmFixedSpace.obj
 0001:00068470       _allocInFixedSpace         00479470 f   mmFixedSpace.obj
 0001:00068880       _growFixedSpace            00479880 f   mmFixedSpace.obj
 0001:00068ad0       _discardFixedSpaceSegment  00479ad0 f   mmFixedSpace.obj
 0001:00068af0       _numFixedSpaceSegs         00479af0 f   mmFixedSpace.obj
 0001:00068b10       _fsBlockOk                 00479b10 f   mmFixedSpace.obj
 0001:00068c50       _objInFt                   00479c50 f   mmFixedSpace.obj
 0001:00068cb0       _objDataPtrInFt            00479cb0 f   mmFixedSpace.obj
 0001:00068d10       _fixedSpaceOk              00479d10 f   mmFixedSpace.obj
 0001:000690c0       _sweepNewSpace             0047a0c0 f   mmNewSpace.obj
 0001:00069320       _getNextNewSpaceObj        0047a320 f   mmNewSpace.obj
 0001:00069450       _searchNewSpace            0047a450 f   mmNewSpace.obj
 0001:000694b0       _recycleNewObj             0047a4b0 f   mmNewSpace.obj
 0001:00069590       _recycleNewOtEntry         0047a590 f   mmNewSpace.obj
 0001:00069640       _allocInNewSpace           0047a640 f   mmNewSpace.obj
 0001:00069780       _allocInPastSpace          0047a780 f   mmNewSpace.obj
 0001:00069890       _shrinkOrCopyNewObj        0047a890 f   mmNewSpace.obj
 0001:00069b60       _newSpaceOk                0047ab60 f   mmNewSpace.obj
 0001:00069db0       _newSpaceObjOk             0047adb0 f   mmNewSpace.obj
 0001:0006a0f0       _newSpaceOkScavenge        0047b0f0 f   mmNewSpace.obj
 0001:0006a190       _newSpaceObjOkScavenge     0047b190 f   mmNewSpace.obj
 0001:0006a3c0       _printSomeNewSpace         0047b3c0 f   mmNewSpace.obj
 0001:0006a460       _printNewSpace             0047b460 f   mmNewSpace.obj
 0001:0006a520       _registerInOldRt           0047b520 f   mmOldRt.obj
 0001:0006a620       _initOldRt                 0047b620 f   mmOldRt.obj
 0001:0006a670       _initPermObjIfNotSystemObj 0047b670 f   mmOldRt.obj
 0001:0006a6c0       _initPermObj               0047b6c0 f   mmOldRt.obj
 0001:0006a760       _createOldRt               0047b760 f   mmOldRt.obj
 0001:0006a830       _scanOldRtCreatingBackPtrs 0047b830 f   mmOldRt.obj
 0001:0006a8a0       _updateOldRtPtrs           0047b8a0 f   mmOldRt.obj
 0001:0006a900       _cacheOldRtOop             0047b900 f   mmOldRt.obj
 0001:0006a920       _compactOldRt              0047b920 f   mmOldRt.obj
 0001:0006a9b0       _sweepOldRt                0047b9b0 f   mmOldRt.obj
 0001:0006ab10       _shrinkOldRt               0047bb10 f   mmOldRt.obj
 0001:0006ab70       _emptyOldRt                0047bb70 f   mmOldRt.obj
 0001:0006abb0       _prepareOldRtForIncMark    0047bbb0 f   mmOldRt.obj
 0001:0006ac00       _incMarkOldRtEntries       0047bc00 f   mmOldRt.obj
 0001:0006aca0       _incMarkOldRtEntriesNBL    0047bca0 f   mmOldRt.obj
 0001:0006ad60       _objReallyInOldRt          0047bd60 f   mmOldRt.obj
 0001:0006ade0       _oldRtOk                   0047bde0 f   mmOldRt.obj
 0001:0006aeb0       _addPermOldRtEntriesToCheckMarkList 0047beb0 f   mmOldRt.obj
 0001:0006af10       _oldDataWithPermOtEntries  0047bf10 f   mmOldRt.obj
 0001:0006afb0       _createOopStack            0047bfb0 f   mmOopStack.obj
 0001:0006b000       _releaseOopStack           0047c000 f   mmOopStack.obj
 0001:0006b040       _shrinkOopStack            0047c040 f   mmOopStack.obj
 0001:0006b080       _emptyOopStack             0047c080 f   mmOopStack.obj
 0001:0006b180       _recycleOopStack           0047c180 f   mmOopStack.obj
 0001:0006b1c0       _pushOopStackCallout       0047c1c0 f   mmOopStack.obj
 0001:0006b2a0       _popOopStackCallout        0047c2a0 f   mmOopStack.obj
 0001:0006b2e0       _enumOopStack              0047c2e0 f   mmOopStack.obj
 0001:0006b310       _incEnumOopStack           0047c310 f   mmOopStack.obj
 0001:0006b5c0       _incEnumOopStackNBL        0047c5c0 f   mmOopStack.obj
 0001:0006b830       _neverCalled               0047c830 f   mmOopStack.obj
 0001:0006b850       _initOopStack              0047c850 f   mmOopStack.obj
 0001:0006b970       _sweepOopStack             0047c970 f   mmOopStack.obj
 0001:0006b9b0       _markOopStack              0047c9b0 f   mmOopStack.obj
 0001:0006ba10       _objIsOopStackSeg          0047ca10 f   mmOopStack.obj
 0001:0006ba50       _totalEntriesInOopStack    0047ca50 f   mmOopStack.obj
 0001:0006ba80       _liveEntriesInOopStack     0047ca80 f   mmOopStack.obj
 0001:0006bab0       _checkMarkOopStack         0047cab0 f   mmOopStack.obj
 0001:0006bad0       _oopOnOopStack             0047cad0 f   mmOopStack.obj
 0001:0006bb20       _recommendedOsReserveSlots 0047cb20 f   mmOldSpace.obj
 0001:0006bb50       _objPointsToOldSpace       0047cb50 f   mmOldSpace.obj
 0001:0006bbd0       _growOldObject             0047cbd0 f   mmOldSpace.obj
 0001:0006c0e0       _shrinkOldObject           0047d0e0 f   mmOldSpace.obj
 0001:0006c360       _resetIncUnmarkCounts      0047d360 f   mmOldSpace.obj
 0001:0006c370       _resetIncSweepCounts       0047d370 f   mmOldSpace.obj
 0001:0006c390       _resetFragmentationCounts  0047d390 f   mmOldSpace.obj
 0001:0006c3b0       _initOldSpaceBounds        0047d3b0 f   mmOldSpace.obj
 0001:0006c4d0       _freeLargeOldDataNoOop     0047d4d0 f   mmOldSpace.obj
 0001:0006c5f0       _allocOldData              0047d5f0 f   mmOldSpace.obj
 0001:0006cc30       _prepareThreadedFreeListForSnapshot 0047dc30 f   mmOldSpace.obj
 0001:0006cda0       _updateThreadedDataPointers 0047dda0 f   mmOldSpace.obj
 0001:0006cf10       _assimilateOldFreeList     0047df10 f   mmOldSpace.obj
 0001:0006d020       _flattenThreadedDataForPermLoad 0047e020 f   mmOldSpace.obj
 0001:0006d110       _addressInOldSegment       0047e110 f   mmOldSpace.obj
 0001:0006d150       _addressInOldSegmentData   0047e150 f   mmOldSpace.obj
 0001:0006d190       _addressInAnySegment       0047e190 f   mmOldSpace.obj
 0001:0006d1c0       _addressInAnySegmentData   0047e1c0 f   mmOldSpace.obj
 0001:0006d1f0       _addressInOldOt            0047e1f0 f   mmOldSpace.obj
 0001:0006d230       _addressInAnyOt            0047e230 f   mmOldSpace.obj
 0001:0006d260       _addressInOldNewOt         0047e260 f   mmOldSpace.obj
 0001:0006d2a0       _addressInAnyNewOt         0047e2a0 f   mmOldSpace.obj
 0001:0006d2d0       _addressInPermSegment      0047e2d0 f   mmOldSpace.obj
 0001:0006d300       _addressInPermOt           0047e300 f   mmOldSpace.obj
 0001:0006d330       _absorbPermFreeList        0047e330 f   mmOldSpace.obj
 0001:0006d4b0       _absorbPermSpace           0047e4b0 f   mmOldSpace.obj
 0001:0006d600       _restorePermSpace          0047e600 f   mmOldSpace.obj
 0001:0006d710       _growOldSpace              0047e710 f   mmOldSpace.obj
 0001:0006da20       _findContiguousSlotsInOldSpaceSlowly 0047ea20 f   mmOldSpace.obj
 0001:0006db50       _resetThreadedData         0047eb50 f   mmOldSpace.obj
 0001:0006db70       _sweepAndCompactOldSpace   0047eb70 f   mmOldSpace.obj
 0001:0006f5f0       _updateOopAfterOtCompFunc  004805f0 f   mmOldSpace.obj
 0001:0006f620       _saveOtBaseAfterIncMark    00480620 f   mmOldSpace.obj
 0001:0006f680       _resetAfterIncSweepOfOldSpace 00480680 f   mmOldSpace.obj
 0001:0006f6b0       _incSweepOldSpace          004806b0 f   mmOldSpace.obj
 0001:0006fc50       _slotsLeftInOldSpace       00480c50 f   mmOldSpace.obj
 0001:0006fcb0       _slotsUsedInOldSpace       00480cb0 f   mmOldSpace.obj
 0001:0006fd10       _sufficientFreeContiguousSpace 00480d10 f   mmOldSpace.obj
 0001:0006fd80       _searchObjectMemory        00480d80 f   mmOldSpace.obj
 0001:0006ff10       _collectAllSpecifiedObjects 00480f10 f   mmOldSpace.obj
 0001:000703c0       _scanObjectMemory          004813c0 f   mmOldSpace.obj
 0001:00070590       _scanReferentsOf           00481590 f   mmOldSpace.obj
 0001:00070850       _writeOldSpace             00481850 f   mmOldSpace.obj
 0001:00070a00       _otEntriesUsedInOldSpace   00481a00 f   mmOldSpace.obj
 0001:00070a50       _numOldSpaceSegs           00481a50 f   mmOldSpace.obj
 0001:00070a70       _prepareToUnmarkOldSpace   00481a70 f   mmOldSpace.obj
 0001:00070ab0       _incUnmarkOldSpace         00481ab0 f   mmOldSpace.obj
 0001:00070ed0       _allocInOldSpace           00481ed0 f   mmOldSpace.obj
 0001:000716c0       _reversePointersInOldSpace 004826c0 f   mmOldSpace.obj
 0001:00071740       _prepareThreadedDataForCompaction 00482740 f   mmOldSpace.obj
 0001:000717d0       _compactOldSpace           004827d0 f   mmOldSpace.obj
 0001:00071a70       _oldSpaceOk                00482a70 f   mmOldSpace.obj
 0001:00071d90       _oldSpaceObjOk             00482d90 f   mmOldSpace.obj
 0001:000720c0       _otEntryOnThreadedFreeList 004830c0 f   mmOldSpace.obj
 0001:000720f0       _threadedDataOk            004830f0 f   mmOldSpace.obj
 0001:000724e0       _threadedOtEntriesOk       004834e0 f   mmOldSpace.obj
 0001:000728d0       _checkMarksInOt            004838d0 f   mmOldSpace.obj
 0001:00072980       _applyToThreadedData       00483980 f   mmOldSpace.obj
 0001:00072af0       _oldSpaceHasNoLeaks        00483af0 f   mmOldSpace.obj
 0001:00072b00       _permSpaceHasNoLeaks       00483b00 f   mmOldSpace.obj
 0001:00072fd0       _printOldSpaceSegs         00483fd0 f   mmOldSpace.obj
 0001:00073060       _initOldSpacePrims         00484060 f   mmOldSpace.obj
 0001:00074870       _rebootSystem              00485870 f   mmProcess.obj
 0001:00074d60       _asynchSignal              00485d60 f   mmProcess.obj
 0001:00075540       _processSwitch             00486540 f   mmProcess.obj
 0001:000765c0       _couldBeCodeAllowedAsNPC   004875c0 f   mmProcess.obj
 0001:00076f60       _highestProcessPriority    00487f60 f   mmProcess.obj
 0001:00076fb0       _requestActiveProcessPriority 00487fb0 f   mmProcess.obj
 0001:00076fe0       _removeHighestPriorityProcess 00487fe0 f   mmProcess.obj
 0001:00077d00       _waitOnCalloutSemaphore    00488d00 f   mmProcess.obj
 0001:00078420       _initProcessPrims          00489420 f   mmProcess.obj
 0001:0007ad80       _processIsRunnable         0048bd80 f   mmProcess.obj
 0001:0007afd0       _objOnList                 0048bfd0 f   mmProcess.obj
 0001:0007b000       _recyclePermOtEntry        0048c000 f   mmPermSpace.obj
 0001:0007b170       _recyclePermData           0048c170 f   mmPermSpace.obj
 0001:0007b210       _recyclePermObj            0048c210 f   mmPermSpace.obj
 0001:0007b3f0       _recycleNonNewData         0048c3f0 f   mmPermSpace.obj
 0001:0007b590       _markPermSpace             0048c590 f   mmPermSpace.obj
 0001:0007b5d0       _writePermSpace            0048c5d0 f   mmPermSpace.obj
 0001:0007b680       _nilPermSpacePtrs          0048c680 f   mmPermSpace.obj
 0001:0007b6a0       _permCtxAtStartupOk        0048c6a0 f   mmPermSpace.obj
 0001:0007b760       _objBelongsInOldRt         0048c760 f   mmPermSpace.obj
 0001:0007b7f0       _permSpaceObjOk            0048c7f0 f   mmPermSpace.obj
 0001:0007bb40       _permSpaceOk               0048cb40 f   mmPermSpace.obj
 0001:0007bd30       _slotsFreeInOldSpaceMinusReserve 0048cd30 f   mmResources.obj
 0001:0007bd60       _lowSpaceResponse          0048cd60 f   mmResources.obj
 0001:0007bdc0       _initResourcePrims         0048cdc0 f   mmResources.obj
 0001:0007d390       _registerInRt              0048e390 f   mmRt.obj
 0001:0007d5b0       _canonicalizeRt            0048e5b0 f   mmRt.obj
 0001:0007d630       _compactRt                 0048e630 f   mmRt.obj
 0001:0007d730       _shrinkRt                  0048e730 f   mmRt.obj
 0001:0007d830       _updateRtPtrs              0048e830 f   mmRt.obj
 0001:0007d8f0       _sweepRt                   0048e8f0 f   mmRt.obj
 0001:0007d950       _initRt                    0048e950 f   mmRt.obj
 0001:0007db50       _objReallyInRt             0048eb50 f   mmRt.obj
 0001:0007db90       _addPermRtEntriesToCheckMarkList 0048eb90 f   mmRt.obj
 0001:0007dbd0       _rtOk                      0048ebd0 f   mmRt.obj
 0001:0007dda0       _rtLooksOk                 0048eda0 f   mmRt.obj
 0001:0007e420       _getTenureThreshold        0048f420 f   mmScavenge.obj
 0001:0007e430       _initScavenger             0048f430 f   mmScavenge.obj
 0001:0007e470       _flushEden                 0048f470 f   mmScavenge.obj
 0001:0007e490       _flushNewSpace             0048f490 f   mmScavenge.obj
 0001:0007e4d0       _scavengeNewSpace          0048f4d0 f   mmScavenge.obj
 0001:0007e500       _scavengeTenuringEveryone  0048f500 f   mmScavenge.obj
 0001:0007e530       _scavengeTenuringInstancesOf 0048f530 f   mmScavenge.obj
 0001:0007e550       _scavengeTenuringOwnersOf  0048f550 f   mmScavenge.obj
 0001:0007e570       _scavengeTenuringTheseObjs 0048f570 f   mmScavenge.obj
 0001:000817b0       _copyAndForward            004927b0 f   mmScavenge.obj
 0001:000826c0       _updateNewObjRef           004936c0 f   mmScavenge.obj
 0001:00082d80       _initScavengePrims         00493d80 f   mmScavenge.obj
 0001:00083d30       _mapAllNPCs                00494d30 f   mmSnapshot.obj
 0001:00084000       _initSnapshotPrims         00495000 f   mmSnapshot.obj
 0001:000850a0       _initSubscriptPrims        004960a0 f   mmSubscript.obj
 0001:00089980       _registerSysOop            0049a980 f   mmSysOop.obj
 0001:00089b50       _registerNewSysOop         0049ab50 f   mmSysOop.obj
 0001:00089d00       _allocSysOopSlot           0049ad00 f   mmSysOop.obj
 0001:00089d60       _freeSysOopSlot            0049ad60 f   mmSysOop.obj
 0001:00089f40       _initSysOopRegistry        0049af40 f   mmSysOop.obj
 0001:0008a1b0       _shrinkSysOopRegistry      0049b1b0 f   mmSysOop.obj
 0001:0008a210       _updateSysOopRegistryPtrs  0049b210 f   mmSysOop.obj
 0001:0008a290       _maxValidSysOopX           0049b290 f   mmSysOop.obj
 0001:0008a2a0       _assertFail                0049b2a0 f   assertFail.obj
 0001:0008a3f0       _doAssert                  0049b3f0 f   assertFail.obj
 0001:0008a410       _assertReport              0049b410 f   assertFail.obj
 0001:0008a480       _reportAllocFailure        0049b480 f   checks.obj
 0001:0008a510       _doPanic                   0049b510 f   checks.obj
 0001:0008a550       _isAllocatedStack          0049b550 f   checks.obj
 0001:0008a580       _inStack                   0049b580 f   checks.obj
 0001:0008a5b0       _couldBeSP                 0049b5b0 f   checks.obj
 0001:0008a5f0       _interruptIsWithinHeadroom 0049b5f0 f   checks.obj
 0001:0008a680       _stackPCsOK                0049b680 f   checks.obj
 0001:0008a8d0       _allPCsOK                  0049b8d0 f   checks.obj
 0001:0008a920       _stackBlocksOK             0049b920 f   checks.obj
 0001:0008aac0       _allBlockActivationsOK     0049bac0 f   checks.obj
 0001:0008ab00       _stackHybridsOK            0049bb00 f   checks.obj
 0001:0008ae20       _allHybridsOK              0049be20 f   checks.obj
 0001:0008ae60       _stacksOK                  0049be60 f   checks.obj
 0001:0008af10       _frameIsConsistent         0049bf10 f   checks.obj
 0001:0008af50       _looksLikeHybrid           0049bf50 f   checks.obj
 0001:0008af90       _isFreeStack               0049bf90 f   checks.obj
 0001:0008b000       _numFreeStacks             0049c000 f   checks.obj
 0001:0008b020       _numAllocStacks            0049c020 f   checks.obj
 0001:0008b040       _stackObjsOK               0049c040 f   checks.obj
 0001:0008b280       _isFP                      0049c280 f   checks.obj
 0001:0008b2f0       _isStack                   0049c2f0 f   checks.obj
 0001:0008b330       _stackOfFrameFunc          0049c330 f   checks.obj
 0001:0008b350       _printStackHeader          0049c350 f   checks.obj
 0001:0008b4a0       _printSelector             0049c4a0 f   checks.obj
 0001:0008b680       _printNameOfClass          0049c680 f   checks.obj
 0001:0008b7e0       _printClassName            0049c7e0 f   checks.obj
 0001:0008bbd0       _printFrame                0049cbd0 f   checks.obj
 0001:0008bff0       _frameAbove                0049cff0 f   checks.obj
 0001:0008c040       _rawPrintFrame             0049d040 f   checks.obj
 0001:0008c320       _rawPrintThisFrame         0049d320 f   checks.obj
 0001:0008c3a0       _printContext              0049d3a0 f   checks.obj
 0001:0008c430       _printThisFrame            0049d430 f   checks.obj
 0001:0008c4b0       _briefPrintFrame           0049d4b0 f   checks.obj
 0001:0008c5b0       _printAllFrames            0049d5b0 f   checks.obj
 0001:0008c640       _printNFrames              0049d640 f   checks.obj
 0001:0008c6e0       _briefPrintAllFrames       0049d6e0 f   checks.obj
 0001:0008c770       _briefPrintFrames          0049d770 f   checks.obj
 0001:0008c7f0       _checkGetSender            0049d7f0 f   checks.obj
 0001:0008ca10       _printNFramesAndContextsFrom 0049da10 f   checks.obj
 0001:0008cb10       _printNFramesAndContexts   0049db10 f   checks.obj
 0001:0008cb30       _printAllFramesAndContextsFrom 0049db30 f   checks.obj
 0001:0008cb50       _dPrintNFramesAndContextsFrom 0049db50 f   checks.obj
 0001:0008cb70       _dPrintAllFramesAndContextsFrom 0049db70 f   checks.obj
 0001:0008cb90       _printAllFramesAndContextsFromContext 0049db90 f   checks.obj
 0001:0008ccc0       _printAllFramesAndContexts 0049dcc0 f   checks.obj
 0001:0008cd30       _dumpAll                   0049dd30 f   checks.obj
 0001:0008d010       _dumpAllProcesses          0049e010 f   checks.obj
 0001:0008d2f0       _dumpAllProcessesToFile    0049e2f0 f   checks.obj
 0001:0008d340       _dumpAllToFileCalling      0049e340 f   checks.obj
 0001:0008d3c0       _dumpAllToFileWithString   0049e3c0 f   checks.obj
 0001:0008d450       _dumpAllToFileWithChars    0049e450 f   checks.obj
 0001:0008d470       _dumpAllToFile             0049e470 f   checks.obj
 0001:0008d490       _printStack                0049e490 f   checks.obj
 0001:0008d4b0       _printTopFrame             0049e4b0 f   checks.obj
 0001:0008d4d0       _printCurrent              0049e4d0 f   checks.obj
 0001:0008d530       _printChain                0049e530 f   checks.obj
 0001:0008d630       _logSend                   0049e630 f   checks.obj
 0001:0008d690       _className                 0049e690 f   checks.obj
 0001:0008d820       _printSendLogFor           0049e820 f   checks.obj
 0001:0008d930       _printSendLog              0049e930 f   checks.obj
 0001:0008d940       _aha                       0049e940 f   checks.obj
 0001:0008da50       _initCSels                 0049ea50 f   checks.obj
 0001:0008db10       _initCClss                 0049eb10 f   checks.obj
 0001:0008dbd0       _makeCSel                  0049ebd0 f   checks.obj
 0001:0008dca0       _makeCCls                  0049eca0 f   checks.obj
 0001:0008dd90       _matchCSel                 0049ed90 f   checks.obj
 0001:0008de60       _matchCCls                 0049ee60 f   checks.obj
 0001:0008deb0       _isLiveHybrid              0049eeb0 f   contexts.obj
 0001:0008e020       _shouldBeLiveHybrid        0049f020 f   contexts.obj
 0001:0008e210       _CLoadContextInstVar       0049f210 f   contexts.obj
 0001:0008e600       _contextInstVarNoReify     0049f600 f   contexts.obj
 0001:0008e940       _CrtStoreContextInstVar    0049f940 f   contexts.obj
 0001:0008e970       _storeContextInstVar       0049f970 f   contexts.obj
 0001:0008f220       _replaceReferencesInHybridFrames 004a0220 f   contexts.obj
 0001:0008f310       _initContextPrimitives     004a0310 f   contexts.obj
 0001:000910c0       _doesNotUnderstandWA       004a20c0 f   dnu.obj
 0001:00091ae0       _CrtMNUFromPIC             004a2ae0 f   dnu.obj
 0001:00092b00       _Cdnu0                     004a3b00 f   dnu.obj
 0001:00092b30       _Cdnu1                     004a3b30 f   dnu.obj
 0001:00092b60       _Cdnu2                     004a3b60 f   dnu.obj
 0001:00092ba0       _Cdnu3                     004a3ba0 f   dnu.obj
 0001:00092c70       _CdnuMany                  004a3c70 f   dnu.obj
 0001:00092dc0       _doesNotUnderstand         004a3dc0 f   dnu.obj
 0001:00092e10       _CcantReturn               004a3e10 f   dnu.obj
 0001:00092fc0       _CrtCannotResume           004a3fc0 f   dnu.obj
 0001:00093130       _histSendTrace             004a4130 f   hist.obj
 0001:000932c0       _CrtTraceLinkedSend        004a42c0 f   hist.obj
 0001:000932e0       _CrtTraceOpenPIC           004a42e0 f   hist.obj
 0001:00093300       _nilContexts               004a4300 f   nlreturn.obj
 0001:00093710       _CrtMethodReturn           004a4710 f   nlreturn.obj
 0001:000943c0       _handleStackOverflow       004a53c0 f   nsupport.obj
 0001:00094440       _CrtAbortPrimFail          004a5440 f   nsupport.obj
 0001:00094610       _CrtAbortSend              004a5610 f   nsupport.obj
 0001:00094800       _CrtEndLoop                004a5800 f   nsupport.obj
 0001:000948e0       _CrtCarefulCallPrim        004a58e0 f   nsupport.obj
 0001:00095060       _CLoadThisContext          004a6060 f   nsupport.obj
 0001:00095200       _CrtCheckStore             004a6200 f   nsupport.obj
 0001:00095490       _CrtCheckStoreFrameless    004a6490 f   nsupport.obj
 0001:000956a0       _CrtMakeCopyingBlock       004a66a0 f   nsupport.obj
 0001:00095f20       _CrtMakeCopyingBlock1      004a6f20 f   nsupport.obj
 0001:00096300       _CrtMakeFullBlock          004a7300 f   nsupport.obj
 0001:000967e0       _CrtMakeFullCopyingBlock   004a77e0 f   nsupport.obj
 0001:00097250       _CrtConsArray              004a8250 f   nsupport.obj
 0001:00097660       _CrtCreateArray            004a8660 f   nsupport.obj
 0001:00097910       _CrtNotBoolean             004a8910 f   nsupport.obj
 0001:00097c00       _CrtNotBooleanTrue         004a8c00 f   nsupport.obj
 0001:00097c20       _CrtNotBooleanFalse        004a8c20 f   nsupport.obj
 0001:00097c40       _CrtAttemptToAssign        004a8c40 f   nsupport.obj
 0001:00097fe0       _CrtBadBytecode            004a8fe0 f   nsupport.obj
 0001:00098220       _buildSendWithArgs         004a9220 f   primSends.obj
 0001:00098470       _buildActivationOfSendWithArgs 004a9470 f   primSends.obj
 0001:00098790       _initEvaluationPrimitives  004a9790 f   primSends.obj
 0001:0009a010       _CunlinkedSend             004ab010 f   send.obj
 0001:0009a260       _CunlinkedSendNonImmediate 004ab260 f   send.obj
 0001:0009a470       _CunlinkedSendNoCheck      004ab470 f   send.obj
 0001:0009a6c0       _CunlinkedSendSuper        004ab6c0 f   send.obj
 0001:0009a8e0       _handleTranFailure         004ab8e0 f   send.obj
 0001:0009ab70       _outputMeasurements        004abb70 f   send.obj
 0001:0009ab80       _relinkSend                004abb80 f   send.obj
 0001:0009ae60       _CrtAbortSendMiss          004abe60 f   send.obj
 0001:0009aed0       _anyAsyncRequests          004abed0 f   services.obj
 0001:0009af10       _isRequested               004abf10 f   services.obj
 0001:0009af50       _clearRequest              004abf50 f   services.obj
 0001:0009af90       _setRequest                004abf90 f   services.obj
 0001:0009b000       _handleAsyncRequests       004ac000 f   services.obj
 0001:0009b120       _handleRequests            004ac120 f   services.obj
 0001:0009b1d0       _asyncSetRequest           004ac1d0 f   services.obj
 0001:0009b1f0       _frameMakeHybrid           004ac1f0 f   stackframe.obj
 0001:0009b7c0       _stackReify                004ac7c0 f   stackframe.obj
 0001:0009b8f0       _stackStabilize            004ac8f0 f   stackframe.obj
 0001:0009bc80       _relocateDownTo            004acc80 f   stackframe.obj
 0001:0009c210       _checkStacks               004ad210 f   stackframe.obj
 0001:0009c260       _frameEnsureStack          004ad260 f   stackframe.obj
 0001:0009d020       _stabilizeThisContext      004ae020 f   stackframe.obj
 0001:0009d720       _stabilizeContextsWithMethod 004ae720 f   stackframe.obj
 0001:0009d880       _mustAddNMethod            004ae880 f   stackframe.obj
 0001:0009d8d0       _mustMapVToNPC             004ae8d0 f   stackframe.obj
 0001:0009da00       _stableToHybrid            004aea00 f   stackframe.obj
 0001:0009e1c0       _CrootReturn               004af1c0 f   stackframe.obj
 0001:0009e3b0       _resumeContext             004af3b0 f   stackframe.obj
 0001:0009e650       _suspendTopContext         004af650 f   stackframe.obj
 0001:0009e6c0       _initStacks                004af6c0 f   stackzone.obj
 0001:0009e870       _stackAlloc                004af870 f   stackzone.obj
 0001:0009e9c0       _stabilizeAllStacks        004af9c0 f   stackzone.obj
 0001:0009ea30       _stabilizeMostStacks       004afa30 f   stackzone.obj
 0001:0009eaa0       _reifyAllStacks            004afaa0 f   stackzone.obj
 0001:0009ec20       _stackAtHead               004afc20 f   stackzone.obj
 0001:0009ed00       _promoteStack              004afd00 f   stackzone.obj
 0001:0009ed90       _stackDeAlloc              004afd90 f   stackzone.obj
 0001:0009ee50       _scavengeStacks            004afe50 f   vmsupport.obj
 0001:0009f250       _stackEnumerateOopsForGC   004b0250 f   vmsupport.obj
 0001:0009f3a0       _stackEnumerateRefsForGC   004b03a0 f   vmsupport.obj
 0001:0009f4e0       _enumerateFramesAndReturns 004b04e0 f   vmsupport.obj
 0001:0009f630       _commitPrimitive           004b0630 f   vmsupport.obj
 0001:0009fa00       _commitPrimitiveAndHandleRequests 004b0a00 f   vmsupport.obj
 0001:0009fa30       _commitPrimitiveWithRestart 004b0a30 f   vmsupport.obj
 0001:0009fb00       _convertRestartToReturn    004b0b00 f   vmsupport.obj
 0001:0009fc30       _asynchReCommitOrFailPrimitive 004b0c30 f   vmsupport.obj
 0001:000a0180       _topOfStack                004b1180 f   vmsupport.obj
 0001:000a0630       _failPrimitive             004b1630 f   vmsupport.obj
 0001:000a0ad0       _reInitNMethods            004b1ad0 f   nmalloc.obj
 0001:000a0b20       _initNMethodAlloc          004b1b20 f   nmalloc.obj
 0001:000a0c30       _scratchNmzBounds          004b1c30 f   nmalloc.obj
 0001:000a0c90       _nMethodPermAlloc          004b1c90 f   nmalloc.obj
 0001:000a0d50       _nMethodAlloc              004b1d50 f   nmalloc.obj
 0001:000a0fb0       _nMethodDealloc            004b1fb0 f   nmalloc.obj
 0001:000a1010       _nMethodShorten            004b2010 f   nmalloc.obj
 0001:000a10d0       _nMethodAllocScratch       004b20d0 f   nmalloc.obj
 0001:000a1110       _nMethodAddToList          004b2110 f   nmalloc.obj
 0001:000a1190       _nMethodSelectFromList     004b2190 f   nmalloc.obj
 0001:000a11f0       _nMethodListOK             004b21f0 f   nmalloc.obj
 0001:000a1240       _aoBoundariesOk            004b2240 f   nmalloc.obj
 0001:000a1250       _allNMethodsOK             004b2250 f   nmalloc.obj
 0001:000a1270       _compactNMethods           004b2270 f   nmalloc.obj
 0001:000a1290       _compactAllNMethods        004b2290 f   nmalloc.obj
 0001:000a1330       _printNMZone               004b2330 f   nmalloc.obj
 0001:000a1420       _printNMethodsForVMethod   004b2420 f   nmalloc.obj
 0001:000a14b0       _isNMethod                 004b24b0 f   nmalloc.obj
 0001:000a1580       _nMethodForPC              004b2580 f   nmalloc.obj
 0001:000a1630       _nMethodForPCVal           004b2630 f   nmalloc.obj
 0001:000a1650       _dbPrintNMethod            004b2650 f   nmalloc.obj
 0001:000a1670       _printNMethod              004b2670 f   nmalloc.obj
 0001:000a1aa0       _printNM                   004b2aa0 f   nmalloc.obj
 0001:000a1ac0       _printNMAtPC               004b2ac0 f   nmalloc.obj
 0001:000a1af0       _printUnlinkedNMethods     004b2af0 f   nmalloc.obj
 0001:000a1bc0       _nmUpdateNewRefs           004b2bc0 f   nmcompact.obj
 0001:000a1bf0       _invalidateNMethods        004b2bf0 f   nmcompact.obj
 0001:000a1ca0       _invalidatePostFreeNMethods 004b2ca0 f   nmcompact.obj
 0001:000a1db0       _nMethodOnNewList          004b2db0 f   nmcompact.obj
 0001:000a1de0       _nMethodsOK                004b2de0 f   nmcompact.obj
 0001:000a1f50       _nmCompact                 004b2f50 f   nmcompact.obj
 0001:000a2170       _markNMethodsWithMarkedObjs 004b3170 f   nmcompact.obj
 0001:000a2230       _markNMethodsAsNotReferringTo 004b3230 f   nmcompact.obj
 0001:000a2320       _unlinkAndFreeUnmarkedNMethods 004b3320 f   nmcompact.obj
 0001:000a2460       _listNMethod               004b3460 f   nmcompact.obj
 0001:000a2a30       _clearNTable               004b3a30 f   nmlookup.obj
 0001:000a2a60       _vToNMethod                004b3a60 f   nmlookup.obj
 0001:000a2c60       _nMethodIsInTables         004b3c60 f   nmlookup.obj
 0001:000a2de0       _blockVToNMethod           004b3de0 f   nmlookup.obj
 0001:000a2e10       _addNMethod                004b3e10 f   nmlookup.obj
 0001:000a2ea0       _findNMethodLinkBefore     004b3ea0 f   nmlookup.obj
 0001:000a2ee0       _findMethod                004b3ee0 f   nmlookup.obj
 0001:000a3320       _findMethodForOpenPIC      004b4320 f   nmlookup.obj
 0001:000a38a0       _initMCache                004b48a0 f   nmlookup.obj
 0001:000a38e0       _clearMCache               004b48e0 f   nmlookup.obj
 0001:000a3950       _mCacheOK                  004b4950 f   nmlookup.obj
 0001:000a3990       _nmFlushLookupCache        004b4990 f   nmlookup.obj
 0001:000a39c0       _nmFlushLookupEntriesForSelector 004b49c0 f   nmlookup.obj
 0001:000a3ab0       _nmFlushCachedCodeForMethod 004b4ab0 f   nmlookup.obj
 0001:000a3be0       _basicAccessClass          004b4be0 f   nmlookup.obj
 0001:000a3f00       _getPrimitiveNumber        004b4f00 f   nmlookup.obj
 0001:000a3fb0       _nmUpdateNewRefsFromMCache 004b4fb0 f   nmlookup.obj
 0001:000a4060       _printMethodName           004b5060 f   nmlookup.obj
 0001:000a4390       _printMethod               004b5390 f   nmlookup.obj
 0001:000a43b0       _actionInit                004b53b0 f   taction.obj
 0001:000a4430       _actionReset               004b5430 f   taction.obj
 0001:000a4460       _addAction                 004b5460 f   taction.obj
 0001:000a4710       _loopBegin                 004b5710 f   taction.obj
 0001:000a4780       _loopEnd                   004b5780 f   taction.obj
 0001:000a47d0       _optReFix                  004b57d0 f   taction.obj
 0001:000a4880       _initFirstTime             004b5880 f   taux.obj
 0001:000a4950       _initTemps                 004b5950 f   taux.obj
 0001:000a4d30       _tPushArgs                 004b5d30 f   taux.obj
 0001:000a4d60       _tFinishMethod             004b5d60 f   taux.obj
 0001:000a54d0       _saveSelectorInNMethod     004b64d0 f   taux.obj
 0001:000a5610       _restoreSelectorFromNMethod 004b6610 f   taux.obj
 0001:000a5b00       _cgenPutB                  004b6b00 f   tcgencode.obj
 0001:000a5b10       _cgenPutW                  004b6b10 f   tcgencode.obj
 0001:000a5b30       _cgenPutL                  004b6b30 f   tcgencode.obj
 0001:000a5b40       _cNopGenTo                 004b6b40 f   tcgencode.obj
 0001:000a5bf0       _cgenDiv                   004b6bf0 f   tcgencode.obj
 0001:000a5d00       _cgenByteRN                004b6d00 f   tcgencode.obj
 0001:000a5e00       _cgenByteRXn               004b6e00 f   tcgencode.obj
 0001:000a5ed0       _is686OrHigher             004b6ed0 f   tcgencode.obj
 0001:000a5f10       _tcInlineIFlush            004b6f10 f   tcgencode.obj
 0001:000a5f50       _initClearICache           004b6f50 f   tcgencode.obj
 0001:000a5fe0       _alignForCall              004b6fe0 f   tcgencode.obj
 0001:000a6030       _tFJumpCond                004b7030 f   tcgencode.obj
 0001:000a60a0       _initBxpNotBoolean         004b70a0 f   tcodes.obj
 0001:000a6180       _isCalleeNotBooleanRt      004b7180 f   tcodes.obj
 0001:000a61b0       _tDup                      004b71b0 f   tcodes.obj
 0001:000a6250       _tJmp                      004b7250 f   tcodes.obj
 0001:000a63d0       _tLoopHead                 004b73d0 f   tcodes.obj
 0001:000a6420       _tJmpBack                  004b7420 f   tcodes.obj
 0001:000a6710       _tBxp                      004b7710 f   tcodes.obj
 0001:000a69a0       _tCopyingBlock             004b79a0 f   tcodes.obj
 0001:000a6a50       _tFullBlock                004b7a50 f   tcodes.obj
 0001:000a6ac0       _tFullCopyingBlock         004b7ac0 f   tcodes.obj
 0001:000a6b50       _tConsArray                004b7b50 f   tcodes.obj
 0001:000a6be0       _tCreateArray              004b7be0 f   tcodes.obj
 0001:000a6c80       _tCopyValues               004b7c80 f   tcodes.obj
 0001:000a6d30       _initNMethods              004b7d30 f   tinit.obj
 0001:000a6de0       _initTranAfter             004b7de0 f   tinit.obj
 0001:000a6e10       _initSendTypeTable         004b7e10 f   tinit.obj
 0001:000a6e50       _tMainLoop                 004b7e50 f   tloop.obj
 0001:000a84f0       _initStoreInst             004b94f0 f   tloadstore.obj
 0001:000a8720       _tLoadInst                 004b9720 f   tloadstore.obj
 0001:000a8860       _tStoreInst                004b9860 f   tloadstore.obj
 0001:000a8ca0       _tLoadLocalIndirect        004b9ca0 f   tloadstore.obj
 0001:000a8dd0       _tStoreLocalIndirect       004b9dd0 f   tloadstore.obj
 0001:000a8e00       _tStoreCheck               004b9e00 f   tloadstore.obj
 0001:000a92b0       _nmTranslate               004ba2b0 f   tmain.obj
 0001:000a97d0       _tGenerate                 004ba7d0 f   tmain.obj
 0001:000a9ae0       _tGenerate1                004baae0 f   tmain.obj
 0001:000a9b50       _unpackVMethod             004bab50 f   tmain.obj
 0001:000a9e00       _mapNToVPC                 004bae00 f   tmain.obj
 0001:000a9f60       _mapVToNPC                 004baf60 f   tmain.obj
 0001:000a9fe0       _TAbortFunc                004bafe0 f   tmain.obj
 0001:000aa070       _vMethodMaxInstVar         004bb070 f   tmain.obj
 0001:000aa3d0       _printEntireNMethod        004bb3d0 f   tmain.obj
 0001:000aa5a0       _fprintNCode               004bb5a0 f   tmain.obj
 0001:000aaa70       _regProc                   004bba70 f   tmain.obj
 0001:000aab50       _nmGetXNumArgs             004bbb50 f   tmaprt.obj
 0001:000aab80       _nmGetXNumTemps            004bbb80 f   tmaprt.obj
 0001:000aabb0       _nmGetXFrameSize           004bbbb0 f   tmaprt.obj
 0001:000aabe0       _nMethodUnlink             004bbbe0 f   tmaprt.obj
 0001:000aad40       _CrtAbortRelinkSendToUnlinked 004bbd40 f   tmaprt.obj
 0001:000ab0b0       _mapDataForNpc             004bc0b0 f   tmaprt.obj
 0001:000ab240       _nmInvalidateLinks         004bc240 f   tmaprt.obj
 0001:000ab380       _nmInvalidateLinksTo       004bc380 f   tmaprt.obj
 0001:000ab4c0       _nmInvalidateLinksToFree   004bc4c0 f   tmaprt.obj
 0001:000ab610       _nmInvalidateLinksToUnmarked 004bc610 f   tmaprt.obj
 0001:000ab7b0       _nMethodRelocateLinks      004bc7b0 f   tmaprt.obj
 0001:000ab960       _smashInlineCache          004bc960 f   tmaprt.obj
 0001:000ab9c0       _smashInlineCall           004bc9c0 f   tmaprt.obj
 0001:000aba10       _updateInlineCache         004bca10 f   tmaprt.obj
 0001:000aba40       _updateInlineCacheToPIC    004bca40 f   tmaprt.obj
 0001:000abab0       _nmUpdateNewLiterals       004bcab0 f   tmaprt.obj
 0001:000abcf0       _nMethodRefersTo           004bccf0 f   tmaprt.obj
 0001:000abe60       _nMethodRefersToMustScanNMethod 004bce60 f   tmaprt.obj
 0001:000abec0       _lastValidNPCOf            004bcec0 f   tmaprt.obj
 0001:000abf90       _fetchLiteralOperandFunc   004bcf90 f   tmaprt.obj
 0001:000abfa0       _canDecodeSend             004bcfa0 f   tmaprt.obj
 0001:000abff0       _canDecodeCall             004bcff0 f   tmaprt.obj
 0001:000ac030       _nMethodOK                 004bd030 f   tmaprt.obj
 0001:000ac3e0       _printBadNM                004bd3e0 f   tmaprt.obj
 0001:000ac4a0       _npcInNMethodMap           004bd4a0 f   tmaprt.obj
 0001:000ac5a0       _mapPrimitiveRestart       004bd5a0 f   tmaprt.obj
 0001:000ac690       _mapPrimitiveReturn        004bd690 f   tmaprt.obj
 0001:000ac710       _nmethFromPrimReturn       004bd710 f   tmaprt.obj
 0001:000ac7d0       _nPCofFirstNonPrimitiveVPC 004bd7d0 f   tmaprt.obj
 0001:000ac850       _findPCMapStart            004bd850 f   tmaprt.obj
 0001:000ac870       _fprintPCMap               004bd870 f   tmaprt.obj
 0001:000ac8c0       _fprintPCMapByte           004bd8c0 f   tmaprt.obj
 0001:000acab0       _printSelectorIfExists     004bdab0 f   tmaprt.obj
 0001:000acc40       _genMapAlloc               004bdc40 f   tmaptran.obj
 0001:000acc70       _genMapInit                004bdc70 f   tmaptran.obj
 0001:000acca0       _genMapMark                004bdca0 f   tmaptran.obj
 0001:000accc0       _genMapBackToMark          004bdcc0 f   tmaptran.obj
 0001:000acce0       _genMapSend                004bdce0 f   tmaptran.obj
 0001:000acfd0       _genMapRelCall             004bdfd0 f   tmaptran.obj
 0001:000ad110       _genMapLocProg             004be110 f   tmaptran.obj
 0001:000ad220       _genMapLit                 004be220 f   tmaptran.obj
 0001:000ad380       _genMapOnly                004be380 f   tmaptran.obj
 0001:000ad3c0       _genMapTest                004be3c0 f   tmaptran.obj
 0001:000ad410       _genMapClose               004be410 f   tmaptran.obj
 0001:000ad480       _genMapCopy                004be480 f   tmaptran.obj
 0001:000ad4d0       _incrementProfile          004be4d0 f   tnmprim.obj
 0001:000ad590       _recordCompacted           004be590 f   tnmprim.obj
 0001:000ad610       _initNMethodPrims          004be610 f   tnmprim.obj
 0001:000af140       _initPrimitiveTable        004c0140 f   tprim.obj
 0001:000af170       _addPrimitiveWithParams    004c0170 f   tprim.obj
 0001:000af280       _addAsmPrimitive           004c0280 f   tprim.obj
 0001:000af2a0       _addCPrimitive             004c02a0 f   tprim.obj
 0001:000af2c0       _addVarArgCPrimitive       004c02c0 f   tprim.obj
 0001:000af2e0       _addVarArgCPrimitiveForRange 004c02e0 f   tprim.obj
 0001:000af310       _addFastCPrimitive         004c0310 f   tprim.obj
 0001:000af330       _addUPrimitive             004c0330 f   tprim.obj
 0001:000af350       _addVarArgUPrimitive       004c0350 f   tprim.obj
 0001:000af370       _getPrimEntry              004c0370 f   tprim.obj
 0001:000af3b0       _tInitRegs                 004c03b0 f   tregs.obj
 0001:000af3d0       _regLoad                   004c03d0 f   tregs.obj
 0001:000af4a0       _regLoadBase               004c04a0 f   tregs.obj
 0001:000af580       _regNoteStore              004c0580 f   tregs.obj
 0001:000af5e0       _regFlush                  004c05e0 f   tregs.obj
 0001:000af600       _regLoadup                 004c0600 f   tregs.obj
 0001:000af6d0       _regReconcile              004c06d0 f   tregs.obj
 0001:000af8a0       _regCleanup                004c08a0 f   tregs.obj
 0001:000af9a0       _tAddSub                   004c09a0 f   tspecial.obj
 0001:000afe80       _tReln                     004c0e80 f   tspecial.obj
 0001:000b0630       _tEqNeq                    004c1630 f   tspecial.obj
 0001:000b07e0       _tNone                     004c17e0 f   tspecial.obj
 0001:000b07f0       _tStackInit                004c17f0 f   tstack.obj
 0001:000b0960       _localFrameOffset          004c1960 f   tstack.obj
 0001:000b0990       _tStackClear               004c1990 f   tstack.obj
 0001:000b09d0       _tStackFlush               004c19d0 f   tstack.obj
 0001:000b0b30       _tStackPush                004c1b30 f   tstack.obj
 0001:000b0d70       _tStackLoad                004c1d70 f   tstack.obj
 0001:000b0fd0       _tStackLoadValue           004c1fd0 f   tstack.obj
 0001:000b1140       _tStackLoadBase            004c2140 f   tstack.obj
 0001:000b12b0       _tStackLoadDataPtr         004c22b0 f   tstack.obj
 0001:000b1380       _tStackStore               004c2380 f   tstack.obj
 0001:000b1650       _tStackCompare             004c2650 f   tstack.obj
 0001:000b1830       _tStackCompareBase         004c2830 f   tstack.obj
 0001:000b18e0       _emitArgs                  004c28e0 f   tstack.obj
 0001:000b1cd0       _lookBranch                004c2cd0 f   tsubr.obj
 0001:000b1d60       _tReturn                   004c2d60 f   tsubr.obj
 0001:000b1dd0       _initTxArithPrims          004c2dd0 f   txarith.obj
 0001:000b36f0       _initTxAborts              004c46f0 f   txcontrol.obj
 0001:000b3750       _initTxControlPrims        004c4750 f   txcontrol.obj
 0001:000b3b70       _tCallMethodForKnownSelector 004c4b70 f   txcontrol.obj
 0001:000b4220       _initTxMemPrims            004c5220 f   txmem.obj
 0001:000b4c90       _tAllocFloat               004c5c90 f   txmem.obj
 0001:000b5180       _tranNoteEdenWarningThresholdChanged 004c6180 f   txmem.obj
 0001:000b51c0       _tcCmpEdenWarningThresholdB 004c61c0 f   txmem.obj
 0001:000b53a0       _makeTranslatedPrimitives  004c63a0 f   txprim.obj
 0001:000b54d0       _txFixShortList            004c64d0 f   txprim.obj
 0001:000b5530       _txMakeBoolean             004c6530 f   txprim.obj
 0001:000b55e0       _txGetClassTag             004c65e0 f   txprim.obj
 0001:000b5920       _txUseCPrim                004c6920 f   txprim.obj
 0001:000b5a00       _initTxSubscriptPrims      004c6a00 f   txsubscript.obj
 0001:000b7270       _tMoveSizeR                004c8270 f   txsubscript.obj
 0001:000b7d20       _initPICs                  004c8d20 f   tpic.obj
 0001:000b81f0       _CrtOpenPICSendMiss        004c91f0 f   tpic.obj
 0001:000b83f0       _CrtExtendClosedPIC        004c93f0 f   tpic.obj
 0001:000b8940       _nPICMNUNMethod            004c9940 f   tpic.obj
 0001:000b89a0       _bindToMNUPIC              004c99a0 f   tpic.obj
 0001:000b9480       _CrtPICAbortSendMiss       004ca480 f   tpic.obj
 0001:000b9e10       _shouldFreePIC             004cae10 f   tpic.obj
 0001:000ba070       _nPICRelocateLinks         004cb070 f   tpic.obj
 0001:000ba3a0       _nPICHasLinksToUnmarked    004cb3a0 f   tpic.obj
 0001:000ba5d0       _saveSelectorInNPIC        004cb5d0 f   tpic.obj
 0001:000ba5e0       _restoreSelectorFromNPIC   004cb5e0 f   tpic.obj
 0001:000ba680       _nPICUpdateNewLits         004cb680 f   tpic.obj
 0001:000ba710       _flushCachedMNUMethodEntriesFor 004cb710 f   tpic.obj
 0001:000ba8e0       _picOK                     004cb8e0 f   tpic.obj
 0001:000baca0       _firstBadPIC               004cbca0 f   tpic.obj
 0001:000bace0       _allPICTargetsValid        004cbce0 f   tpic.obj
 0001:000badf0       _printPICSelectors         004cbdf0 f   tpic.obj
 0001:000baea0       _printNPIC                 004cbea0 f   tpic.obj
 0001:000bb170       _printEntireNPIC           004cc170 f   tpic.obj
 0001:000bb2b0       _findNPICEnd               004cc2b0 f   tpic.obj
 0001:000bb350       _dis80286                  004cc350 f   procPentiumdis.obj
 0001:000bb370       _dis80386                  004cc370 f   procPentiumdis.obj
 0001:000bb390       _dis80x86                  004cc390 f   procPentiumdis.obj
 0001:000bbf80       _oprintf                   004ccf80 f   procPentiumdis.obj
 0001:000bc2c0       _modrm                     004cd2c0 f   procPentiumdis.obj
 0001:000bc420       _memop                     004cd420 f   procPentiumdis.obj
 0001:000bc550       _printReg                  004cd550 f   procPentiumdis.obj
 0001:000bc590       __beginthreadex            004cd590 f   msvcrt:MSVCRT.dll
 0001:000bc5a0       __aulldiv                  004cd5a0 f   msvcrt:ulldiv.obj
 0001:000bc608       __ftol                     004cd608 f   msvcrt:MSVCRT.dll
 0001:000bc60e       _free                      004cd60e f   msvcrt:MSVCRT.dll
 0001:000bc614       _malloc                    004cd614 f   msvcrt:MSVCRT.dll
 0001:000bc620       __chkstk                   004cd620 f   msvcrt:chkstk.obj
 0001:000bc620       __alloca_probe             004cd620 f   msvcrt:chkstk.obj
 0001:000bc650       _bsearch                   004cd650 f   msvcrt:MSVCRT.dll
 0001:000bc656       _strerror                  004cd656 f   msvcrt:MSVCRT.dll
 0001:000bc65c       _fflush                    004cd65c f   msvcrt:MSVCRT.dll
 0001:000bc662       _printf                    004cd662 f   msvcrt:MSVCRT.dll
 0001:000bc668       _sprintf                   004cd668 f   msvcrt:MSVCRT.dll
 0001:000bc66e       _putchar                   004cd66e f   msvcrt:MSVCRT.dll
 0001:000bc674       _setvbuf                   004cd674 f   msvcrt:MSVCRT.dll
 0001:000bc67a       _freopen                   004cd67a f   msvcrt:MSVCRT.dll
 0001:000bc680       _fopen                     004cd680 f   msvcrt:MSVCRT.dll
 0001:000bc686       _fclose                    004cd686 f   msvcrt:MSVCRT.dll
 0001:000bc68c       _sscanf                    004cd68c f   msvcrt:MSVCRT.dll
 0001:000bc692       _realloc                   004cd692 f   msvcrt:MSVCRT.dll
 0001:000bc698       _sin                       004cd698 f   msvcrt:MSVCRT.dll
 0001:000bc69e       _cos                       004cd69e f   msvcrt:MSVCRT.dll
 0001:000bc6a4       _memmove                   004cd6a4 f   msvcrt:MSVCRT.dll
 0001:000bc6aa       __except_handler3          004cd6aa f   msvcrt:MSVCRT.dll
 0001:000bc6b0       _exit                      004cd6b0 f   msvcrt:MSVCRT.dll
 0001:000bc6b6       __splitpath                004cd6b6 f   msvcrt:MSVCRT.dll
 0001:000bc6bc       __controlfp                004cd6bc f   msvcrt:MSVCRT.dll
 0001:000bc6c2       _strrchr                   004cd6c2 f   msvcrt:MSVCRT.dll
 0001:000bc6c8       __fullpath                 004cd6c8 f   msvcrt:MSVCRT.dll
 0001:000bc6d0       __allmul                   004cd6d0 f   msvcrt:llmul.obj
 0001:000bc704       _toupper                   004cd704 f   msvcrt:MSVCRT.dll
 0001:000bc70a       _strchr                    004cd70a f   msvcrt:MSVCRT.dll
 0001:000bc710       ___p__environ              004cd710 f   msvcrt:MSVCRT.dll
 0001:000bc716       _fprintf                   004cd716 f   msvcrt:MSVCRT.dll
 0001:000bc71c       _fgets                     004cd71c f   msvcrt:MSVCRT.dll
 0001:000bc730       __aullrem                  004cd730 f   msvcrt:ullrem.obj
 0001:000bc7b0       __alldiv                   004cd7b0 f   msvcrt:lldiv.obj
 0001:000bc85a       __errno                    004cd85a f   msvcrt:MSVCRT.dll
 0001:000bc860       _strncpy                   004cd860 f   msvcrt:MSVCRT.dll
 0001:000bc866       _strncmp                   004cd866 f   msvcrt:MSVCRT.dll
 0001:000bc86c       __stricmp                  004cd86c f   msvcrt:MSVCRT.dll
 0001:000bc872       _tan                       004cd872 f   msvcrt:MSVCRT.dll
 0001:000bc878       _asin                      004cd878 f   msvcrt:MSVCRT.dll
 0001:000bc87e       _acos                      004cd87e f   msvcrt:MSVCRT.dll
 0001:000bc884       _atan                      004cd884 f   msvcrt:MSVCRT.dll
 0001:000bc88a       _sqrt                      004cd88a f   msvcrt:MSVCRT.dll
 0001:000bc890       _log                       004cd890 f   msvcrt:MSVCRT.dll
 0001:000bc896       _exp                       004cd896 f   msvcrt:MSVCRT.dll
 0001:000bc89c       _pow                       004cd89c f   msvcrt:MSVCRT.dll
 0001:000bc8a2       _floor                     004cd8a2 f   msvcrt:MSVCRT.dll
 0001:000bc8a8       _log10                     004cd8a8 f   msvcrt:MSVCRT.dll
 0001:000bc8b0       __allshl                   004cd8b0 f   msvcrt:llshl.obj
 0001:000bc8d0       _vfprintf                  004cd8d0 f   msvcrt:MSVCRT.dll
 0001:000bc8d6       _putc                      004cd8d6 f   msvcrt:MSVCRT.dll
 0001:000bc8dc       _fwrite                    004cd8dc f   msvcrt:MSVCRT.dll
 0001:000bc8e2       _fread                     004cd8e2 f   msvcrt:MSVCRT.dll
 0001:000bc8e8       _rewind                    004cd8e8 f   msvcrt:MSVCRT.dll
 0001:000bc8ee       _ftell                     004cd8ee f   msvcrt:MSVCRT.dll
 0001:000bc8f4       _fseek                     004cd8f4 f   msvcrt:MSVCRT.dll
 0001:000bc8fa       _tmpfile                   004cd8fa f   msvcrt:MSVCRT.dll
 0001:000bc900       _fputs                     004cd900 f   msvcrt:MSVCRT.dll
 0001:000bc906       __CRT_INIT@12              004cd906 f   msvcrt:crtdll.obj
 0001:000bc9b1       __DllMainCRTStartup@12     004cd9b1 f   msvcrt:crtdll.obj
 0001:000bca4e       __initterm                 004cda4e f   msvcrt:MSVCRT.dll
 0001:000bca54       __onexit                   004cda54 f   msvcrt:atonexit.obj
 0001:000bca80       _atexit                    004cda80 f   msvcrt:atonexit.obj
 0001:000bca92       _DllMain@12                004cda92 f   msvcrt:dllmain.obj
 0001:000bcab2       ___dllonexit               004cdab2 f   msvcrt:MSVCRT.dll
 0001:000bcac0       _Sleep@4                   004cdac0 f   kernel32:KERNEL32.dll
 0001:000bcac6       _ReleaseSemaphore@12       004cdac6 f   kernel32:KERNEL32.dll
 0001:000bcacc       _SetThreadPriority@8       004cdacc f   kernel32:KERNEL32.dll
 0001:000bcad2       _CreateSemaphoreA@16       004cdad2 f   kernel32:KERNEL32.dll
 0001:000bcad8       _GetLastError@0            004cdad8 f   kernel32:KERNEL32.dll
 0001:000bcade       _SetPriorityClass@8        004cdade f   kernel32:KERNEL32.dll
 0001:000bcae4       _WaitForSingleObject@8     004cdae4 f   kernel32:KERNEL32.dll
 0001:000bcaea       _GetThreadContext@8        004cdaea f   kernel32:KERNEL32.dll
 0001:000bcaf0       _DuplicateHandle@28        004cdaf0 f   kernel32:KERNEL32.dll
 0001:000bcaf6       _GetCurrentThread@0        004cdaf6 f   kernel32:KERNEL32.dll
 0001:000bcafc       _GetCurrentProcessId@0     004cdafc f   kernel32:KERNEL32.dll
 0001:000bcb02       _LoadLibraryA@4            004cdb02 f   kernel32:KERNEL32.dll
 0001:000bcb08       _GetProcAddress@8          004cdb08 f   kernel32:KERNEL32.dll
 0001:000bcb0e       _FreeLibrary@4             004cdb0e f   kernel32:KERNEL32.dll
 0001:000bcb14       _DebugBreak@0              004cdb14 f   kernel32:KERNEL32.dll
 0001:000bcb1a       _SetConsoleTextAttribute@8 004cdb1a f   kernel32:KERNEL32.dll
 0001:000bcb20       _SetConsoleScreenBufferSize@8 004cdb20 f   kernel32:KERNEL32.dll
 0001:000bcb26       _GetStdHandle@4            004cdb26 f   kernel32:KERNEL32.dll
 0001:000bcb2c       _AllocConsole@0            004cdb2c f   kernel32:KERNEL32.dll
 0001:000bcb32       _GlobalAlloc@8             004cdb32 f   kernel32:KERNEL32.dll
 0001:000bcb38       _GlobalFree@4              004cdb38 f   kernel32:KERNEL32.dll
 0001:000bcb3e       _GetModuleHandleA@4        004cdb3e f   kernel32:KERNEL32.dll
 0001:000bcb44       _GlobalUnlock@4            004cdb44 f   kernel32:KERNEL32.dll
 0001:000bcb4a       _GlobalLock@4              004cdb4a f   kernel32:KERNEL32.dll
 0001:000bcb50       _LockResource@4            004cdb50 f   kernel32:KERNEL32.dll
 0001:000bcb56       _LoadResource@8            004cdb56 f   kernel32:KERNEL32.dll
 0001:000bcb5c       _FindResourceA@12          004cdb5c f   kernel32:KERNEL32.dll
 0001:000bcb62       _SizeofResource@8          004cdb62 f   kernel32:KERNEL32.dll
 0001:000bcb68       _CloseHandle@4             004cdb68 f   kernel32:KERNEL32.dll
 0001:000bcb6e       _ReadFile@20               004cdb6e f   kernel32:KERNEL32.dll
 0001:000bcb74       _GetFileSize@8             004cdb74 f   kernel32:KERNEL32.dll
 0001:000bcb7a       _CreateFileA@28            004cdb7a f   kernel32:KERNEL32.dll
 0001:000bcb80       _GetCurrentThreadId@0      004cdb80 f   kernel32:KERNEL32.dll
 0001:000bcb86       _lstrcpyA@8                004cdb86 f   kernel32:KERNEL32.dll
 0001:000bcb8c       _SetErrorMode@4            004cdb8c f   kernel32:KERNEL32.dll
 0001:000bcb92       _GetVersionExA@4           004cdb92 f   kernel32:KERNEL32.dll
 0001:000bcb98       _GetCurrentProcess@0       004cdb98 f   kernel32:KERNEL32.dll
 0001:000bcb9e       _GetModuleFileNameA@12     004cdb9e f   kernel32:KERNEL32.dll
 0001:000bcba4       _SetCurrentDirectoryA@4    004cdba4 f   kernel32:KERNEL32.dll
 0001:000bcbaa       _lstrcmpiA@8               004cdbaa f   kernel32:KERNEL32.dll
 0001:000bcbb0       _lstrlenA@4                004cdbb0 f   kernel32:KERNEL32.dll
 0001:000bcbb6       _GetCurrentDirectoryA@8    004cdbb6 f   kernel32:KERNEL32.dll
 0001:000bcbbc       _GetCommandLineA@0         004cdbbc f   kernel32:KERNEL32.dll
 0001:000bcbc2       _GetProfileIntA@12         004cdbc2 f   kernel32:KERNEL32.dll
 0001:000bcbc8       _GetProfileStringA@20      004cdbc8 f   kernel32:KERNEL32.dll
 0001:000bcbce       _VirtualAlloc@16           004cdbce f   kernel32:KERNEL32.dll
 0001:000bcbd4       _VirtualQuery@12           004cdbd4 f   kernel32:KERNEL32.dll
 0001:000bcbda       _VirtualFree@12            004cdbda f   kernel32:KERNEL32.dll
 0001:000bcbe0       _GetSystemInfo@4           004cdbe0 f   kernel32:KERNEL32.dll
 0001:000bcbe6       _FlushFileBuffers@4        004cdbe6 f   kernel32:KERNEL32.dll
 0001:000bcbec       _WriteFile@20              004cdbec f   kernel32:KERNEL32.dll
 0001:000bcbf2       _SetFilePointer@16         004cdbf2 f   kernel32:KERNEL32.dll
 0001:000bcbf8       _FindClose@4               004cdbf8 f   kernel32:KERNEL32.dll
 0001:000bcbfe       _GetFileAttributesA@4      004cdbfe f   kernel32:KERNEL32.dll
 0001:000bcc04       _FindFirstFileA@8          004cdc04 f   kernel32:KERNEL32.dll
 0001:000bcc0a       _FindNextFileA@8           004cdc0a f   kernel32:KERNEL32.dll
 0001:000bcc10       _GetLogicalDrives@0        004cdc10 f   kernel32:KERNEL32.dll
 0001:000bcc16       _DeleteFileA@4             004cdc16 f   kernel32:KERNEL32.dll
 0001:000bcc1c       _RemoveDirectoryA@4        004cdc1c f   kernel32:KERNEL32.dll
 0001:000bcc22       _MoveFileA@8               004cdc22 f   kernel32:KERNEL32.dll
 0001:000bcc28       _CreateDirectoryA@8        004cdc28 f   kernel32:KERNEL32.dll
 0001:000bcc2e       _GetDriveTypeA@4           004cdc2e f   kernel32:KERNEL32.dll
 0001:000bcc34       _SetFileAttributesA@8      004cdc34 f   kernel32:KERNEL32.dll
 0001:000bcc3a       _GetVolumeInformationA@32  004cdc3a f   kernel32:KERNEL32.dll
 0001:000bcc40       _GetFullPathNameA@16       004cdc40 f   kernel32:KERNEL32.dll
 0001:000bcc46       _GetLocaleInfoA@16         004cdc46 f   kernel32:KERNEL32.dll
 0001:000bcc4c       _GetFileType@4             004cdc4c f   kernel32:KERNEL32.dll
 0001:000bcc52       _SetEndOfFile@4            004cdc52 f   kernel32:KERNEL32.dll
 0001:000bcc58       _UnlockFile@20             004cdc58 f   kernel32:KERNEL32.dll
 0001:000bcc5e       _LockFile@20               004cdc5e f   kernel32:KERNEL32.dll
 0001:000bcc64       _QueryPerformanceFrequency@4 004cdc64 f   kernel32:KERNEL32.dll
 0001:000bcc6a       _SystemTimeToFileTime@8    004cdc6a f   kernel32:KERNEL32.dll
 0001:000bcc70       _GetSystemTimeAsFileTime@4 004cdc70 f   kernel32:KERNEL32.dll
 0001:000bcc76       _QueryPerformanceCounter@4 004cdc76 f   kernel32:KERNEL32.dll
 0001:000bcc7c       _InitializeCriticalSection@4 004cdc7c f   kernel32:KERNEL32.dll
 0001:000bcc82       _LeaveCriticalSection@4    004cdc82 f   kernel32:KERNEL32.dll
 0001:000bcc88       _EnterCriticalSection@4    004cdc88 f   kernel32:KERNEL32.dll
 0001:000bcc8e       _TerminateThread@8         004cdc8e f   kernel32:KERNEL32.dll
 0001:000bcc94       _GetThreadPriority@4       004cdc94 f   kernel32:KERNEL32.dll
 0001:000bcc9a       _DisableThreadLibraryCalls@4 004cdc9a f   kernel32:KERNEL32.dll
 0001:000bcca0       _closesocket@4             004cdca0 f   wsock32:WSOCK32.dll
 0001:000bcca6       _WSAGetLastError@0         004cdca6 f   wsock32:WSOCK32.dll
 0001:000bccac       _WSAAsyncSelect@16         004cdcac f   wsock32:WSOCK32.dll
 0001:000bccb2       _shutdown@8                004cdcb2 f   wsock32:WSOCK32.dll
 0001:000bccb8       _recv@16                   004cdcb8 f   wsock32:WSOCK32.dll
 0001:000bccbe       _send@16                   004cdcbe f   wsock32:WSOCK32.dll
 0001:000bccc4       _ioctlsocket@12            004cdcc4 f   wsock32:WSOCK32.dll
 0001:000bccca       _WSACleanup@0              004cdcca f   wsock32:WSOCK32.dll
 0001:000bccd0       _WSAStartup@8              004cdcd0 f   wsock32:WSOCK32.dll
 0001:000bccd6       _socket@12                 004cdcd6 f   wsock32:WSOCK32.dll
 0001:000bccdc       _accept@12                 004cdcdc f   wsock32:WSOCK32.dll
 0001:000bcce2       _bind@12                   004cdce2 f   wsock32:WSOCK32.dll
 0001:000bcce8       _listen@8                  004cdce8 f   wsock32:WSOCK32.dll
 0001:000bccee       _connect@12                004cdcee f   wsock32:WSOCK32.dll
 0001:000bccf4       _recvfrom@24               004cdcf4 f   wsock32:WSOCK32.dll
 0001:000bccfa       _sendto@24                 004cdcfa f   wsock32:WSOCK32.dll
 0001:000bcd00       _setsockopt@20             004cdd00 f   wsock32:WSOCK32.dll
 0001:000bcd06       _getsockopt@20             004cdd06 f   wsock32:WSOCK32.dll
 0001:000bcd0c       _getsockname@12            004cdd0c f   wsock32:WSOCK32.dll
 0001:000bcd12       _getpeername@12            004cdd12 f   wsock32:WSOCK32.dll
 0001:000bcd18       _gethostbyname@4           004cdd18 f   wsock32:WSOCK32.dll
 0001:000bcd1e       _getprotobyname@4          004cdd1e f   wsock32:WSOCK32.dll
 0001:000bcd24       _getservbyname@8           004cdd24 f   wsock32:WSOCK32.dll
 0001:000bcd2a       _gethostbyaddr@12          004cdd2a f   wsock32:WSOCK32.dll
 0001:000bcd30       _getprotobynumber@4        004cdd30 f   wsock32:WSOCK32.dll
 0001:000bcd36       _getservbyport@8           004cdd36 f   wsock32:WSOCK32.dll
 0001:000bcd3c       _gethostname@8             004cdd3c f   wsock32:WSOCK32.dll
 0001:000bcd42       _DeregisterEventSource@4   004cdd42 f   advapi32:ADVAPI32.dll
 0001:000bcd48       _ReportEventA@36           004cdd48 f   advapi32:ADVAPI32.dll
 0001:000bcd4e       _RegisterEventSourceA@8    004cdd4e f   advapi32:ADVAPI32.dll
 0001:000bcd54       _MsgWaitForMultipleObjects@20 004cdd54 f   user32:USER32.dll
 0001:000bcd5a       _PeekMessageA@20           004cdd5a f   user32:USER32.dll
 0001:000bcd60       _ReleaseCapture@0          004cdd60 f   user32:USER32.dll
 0001:000bcd66       _ReleaseDC@8               004cdd66 f   user32:USER32.dll
 0001:000bcd6c       _GetDC@4                   004cdd6c f   user32:USER32.dll
 0001:000bcd72       _SetCapture@4              004cdd72 f   user32:USER32.dll
 0001:000bcd78       _GetCursorPos@4            004cdd78 f   user32:USER32.dll
 0001:000bcd7e       _GetAsyncKeyState@4        004cdd7e f   user32:USER32.dll
 0001:000bcd84       _SetCursorPos@8            004cdd84 f   user32:USER32.dll
 0001:000bcd8a       _CreateWindowExA@48        004cdd8a f   user32:USER32.dll
 0001:000bcd90       _DestroyWindow@4           004cdd90 f   user32:USER32.dll
 0001:000bcd96       _TranslateMessage@4        004cdd96 f   user32:USER32.dll
 0001:000bcd9c       _DispatchMessageA@4        004cdd9c f   user32:USER32.dll
 0001:000bcda2       _DestroyIcon@4             004cdda2 f   user32:USER32.dll
 0001:000bcda8       _SetWindowLongA@12         004cdda8 f   user32:USER32.dll
 0001:000bcdae       _GetWindowLongA@8          004cddae f   user32:USER32.dll
 0001:000bcdb4       _EnableWindow@8            004cddb4 f   user32:USER32.dll
 0001:000bcdba       _GetWindow@8               004cddba f   user32:USER32.dll
 0001:000bcdc0       _GetWindowThreadProcessId@8 004cddc0 f   user32:USER32.dll
 0001:000bcdc6       _SetActiveWindow@4         004cddc6 f   user32:USER32.dll
 0001:000bcdcc       _IsWindowVisible@4         004cddcc f   user32:USER32.dll
 0001:000bcdd2       _GetActiveWindow@0         004cddd2 f   user32:USER32.dll
 0001:000bcdd8       _SendMessageA@16           004cddd8 f   user32:USER32.dll
 0001:000bcdde       _ClientToScreen@8          004cddde f   user32:USER32.dll
 0001:000bcde4       _GetClientRect@8           004cdde4 f   user32:USER32.dll
 0001:000bcdea       _IsIconic@4                004cddea f   user32:USER32.dll
 0001:000bcdf0       _SetWindowPos@28           004cddf0 f   user32:USER32.dll
 0001:000bcdf6       _AdjustWindowRectEx@16     004cddf6 f   user32:USER32.dll
 0001:000bcdfc       _GetParent@4               004cddfc f   user32:USER32.dll
 0001:000bce02       _SetFocus@4                004cde02 f   user32:USER32.dll
 0001:000bce08       _ShowWindow@8              004cde08 f   user32:USER32.dll
 0001:000bce0e       _UpdateWindow@4            004cde0e f   user32:USER32.dll
 0001:000bce14       _InvalidateRect@12         004cde14 f   user32:USER32.dll
 0001:000bce1a       _RemoveMenu@12             004cde1a f   user32:USER32.dll
 0001:000bce20       _GetSystemMenu@8           004cde20 f   user32:USER32.dll
 0001:000bce26       _UnregisterClassA@8        004cde26 f   user32:USER32.dll
 0001:000bce2c       _CreateIcon@28             004cde2c f   user32:USER32.dll
 0001:000bce32       _CloseClipboard@0          004cde32 f   user32:USER32.dll
 0001:000bce38       _GetClipboardData@4        004cde38 f   user32:USER32.dll
 0001:000bce3e       _OpenClipboard@4           004cde3e f   user32:USER32.dll
 0001:000bce44       _IsClipboardFormatAvailable@4 004cde44 f   user32:USER32.dll
 0001:000bce4a       _SetClipboardData@8        004cde4a f   user32:USER32.dll
 0001:000bce50       _EmptyClipboard@0          004cde50 f   user32:USER32.dll
 0001:000bce56       _RedrawWindow@16           004cde56 f   user32:USER32.dll
 0001:000bce5c       _WindowFromPoint@8         004cde5c f   user32:USER32.dll
 0001:000bce62       _GetSysColor@4             004cde62 f   user32:USER32.dll
 0001:000bce68       _GetSystemMetrics@4        004cde68 f   user32:USER32.dll
 0001:000bce6e       _DestroyCursor@4           004cde6e f   user32:USER32.dll
 0001:000bce74       _CreateCursor@28           004cde74 f   user32:USER32.dll
 0001:000bce7a       _SetCursor@4               004cde7a f   user32:USER32.dll
 0001:000bce80       _LoadCursorA@8             004cde80 f   user32:USER32.dll
 0001:000bce86       _MessageBoxA@16            004cde86 f   user32:USER32.dll
 0001:000bce8c       _PostMessageA@16           004cde8c f   user32:USER32.dll
 0001:000bce92       _DefWindowProcA@16         004cde92 f   user32:USER32.dll
 0001:000bce98       _EndPaint@8                004cde98 f   user32:USER32.dll
 0001:000bce9e       _GetWindowDC@4             004cde9e f   user32:USER32.dll
 0001:000bcea4       _DrawIcon@16               004cdea4 f   user32:USER32.dll
 0001:000bceaa       _BeginPaint@8              004cdeaa f   user32:USER32.dll
 0001:000bceb0       _FillRect@12               004cdeb0 f   user32:USER32.dll
 0001:000bceb6       _IsWindow@4                004cdeb6 f   user32:USER32.dll
 0001:000bcebc       _EnumWindows@8             004cdebc f   user32:USER32.dll
 0001:000bcec2       _GetClassNameA@12          004cdec2 f   user32:USER32.dll
 0001:000bcec8       _ValidateRect@8            004cdec8 f   user32:USER32.dll
 0001:000bcece       _GetUpdateRect@12          004cdece f   user32:USER32.dll
 0001:000bced4       _GetMessageTime@0          004cded4 f   user32:USER32.dll
 0001:000bceda       _ScreenToClient@8          004cdeda f   user32:USER32.dll
 0001:000bcee0       _GetMessagePos@0           004cdee0 f   user32:USER32.dll
 0001:000bcee6       _GetWindowRect@8           004cdee6 f   user32:USER32.dll
 0001:000bceec       _RegisterClassA@4          004cdeec f   user32:USER32.dll
 0001:000bcef2       _DrawTextA@20              004cdef2 f   user32:USER32.dll
 0001:000bcef8       _GetWindowPlacement@8      004cdef8 f   user32:USER32.dll
 0001:000bcefe       _SystemParametersInfoA@16  004cdefe f   user32:USER32.dll
 0001:000bcf04       _IntersectRect@12          004cdf04 f   user32:USER32.dll
 0001:000bcf0a       _OffsetRect@12             004cdf0a f   user32:USER32.dll
 0001:000bcf10       _SetMessageQueue@4         004cdf10 f   user32:USER32.dll
 0001:000bcf16       _LoadStringA@16            004cdf16 f   user32:USER32.dll
 0001:000bcf1c       _TabbedTextOutA@32         004cdf1c f   user32:USER32.dll
 0001:000bcf22       _MessageBeep@4             004cdf22 f   user32:USER32.dll
 0001:000bcf28       _DeleteObject@4            004cdf28 f   gdi32:GDI32.dll
 0001:000bcf2e       _SelectObject@8            004cdf2e f   gdi32:GDI32.dll
 0001:000bcf34       _CreatePen@12              004cdf34 f   gdi32:GDI32.dll
 0001:000bcf3a       _SetROP2@8                 004cdf3a f   gdi32:GDI32.dll
 0001:000bcf40       _Polyline@12               004cdf40 f   gdi32:GDI32.dll
 0001:000bcf46       _SetViewportOrgEx@16       004cdf46 f   gdi32:GDI32.dll
 0001:000bcf4c       _BitBlt@36                 004cdf4c f   gdi32:GDI32.dll
 0001:000bcf52       _GetBitmapBits@12          004cdf52 f   gdi32:GDI32.dll
 0001:000bcf58       _GetObjectA@12             004cdf58 f   gdi32:GDI32.dll
 0001:000bcf5e       _GdiFlush@0                004cdf5e f   gdi32:GDI32.dll
 0001:000bcf64       _CreateCompatibleBitmap@12 004cdf64 f   gdi32:GDI32.dll
 0001:000bcf6a       _PatBlt@24                 004cdf6a f   gdi32:GDI32.dll
 0001:000bcf70       _CreateBitmapIndirect@4    004cdf70 f   gdi32:GDI32.dll
 0001:000bcf76       _DeleteDC@4                004cdf76 f   gdi32:GDI32.dll
 0001:000bcf7c       _CreateCompatibleDC@4      004cdf7c f   gdi32:GDI32.dll
 0001:000bcf82       _CreatePalette@4           004cdf82 f   gdi32:GDI32.dll
 0001:000bcf88       _CreateSolidBrush@4        004cdf88 f   gdi32:GDI32.dll
 0001:000bcf8e       _RealizePalette@4          004cdf8e f   gdi32:GDI32.dll
 0001:000bcf94       _SelectPalette@12          004cdf94 f   gdi32:GDI32.dll
 0001:000bcf9a       _GetDIBits@28              004cdf9a f   gdi32:GDI32.dll
 0001:000bcfa0       _GetRgnBox@8               004cdfa0 f   gdi32:GDI32.dll
 0001:000bcfa6       _CombineRgn@16             004cdfa6 f   gdi32:GDI32.dll
 0001:000bcfac       _CreateRectRgn@16          004cdfac f   gdi32:GDI32.dll
 0001:000bcfb2       _UpdateColors@4            004cdfb2 f   gdi32:GDI32.dll
 0001:000bcfb8       _SetBrushOrgEx@16          004cdfb8 f   gdi32:GDI32.dll
 0001:000bcfbe       _GetStockObject@4          004cdfbe f   gdi32:GDI32.dll
 0001:000bcfc4       _GetTextMetricsA@8         004cdfc4 f   gdi32:GDI32.dll
 0001:000bcfca       _CreateFontIndirectA@4     004cdfca f   gdi32:GDI32.dll
 0001:000bcfd0       _SetTextAlign@8            004cdfd0 f   gdi32:GDI32.dll
 0001:000bcfd6       _GetTextFaceA@12           004cdfd6 f   gdi32:GDI32.dll
 0001:000bcfdc       _EnumFontFamiliesA@16      004cdfdc f   gdi32:GDI32.dll
 0001:000bcfe2       _GetTextExtentPoint32A@16  004cdfe2 f   gdi32:GDI32.dll
 0001:000bcfe8       _TextOutA@20               004cdfe8 f   gdi32:GDI32.dll
 0001:000bcfee       _SetBkColor@8              004cdfee f   gdi32:GDI32.dll
 0001:000bcff4       _SetTextColor@8            004cdff4 f   gdi32:GDI32.dll
 0001:000bcffa       _GetClipBox@8              004cdffa f   gdi32:GDI32.dll
 0001:000bd000       _IntersectClipRect@20      004ce000 f   gdi32:GDI32.dll
 0001:000bd006       _SelectClipRgn@8           004ce006 f   gdi32:GDI32.dll
 0001:000bd00c       _SetWindowExtEx@16         004ce00c f   gdi32:GDI32.dll
 0001:000bd012       _GetDeviceCaps@8           004ce012 f   gdi32:GDI32.dll
 0001:000bd018       _SetBkMode@8               004ce018 f   gdi32:GDI32.dll
 0001:000bd01e       _OffsetRgn@12              004ce01e f   gdi32:GDI32.dll
 0001:000bd024       _SetRectRgn@20             004ce024 f   gdi32:GDI32.dll
 0001:000bd02a       _Polygon@12                004ce02a f   gdi32:GDI32.dll
 0001:000bd030       _Ellipse@20                004ce030 f   gdi32:GDI32.dll
 0001:000bd036       _Arc@36                    004ce036 f   gdi32:GDI32.dll
 0001:000bd03c       _Pie@36                    004ce03c f   gdi32:GDI32.dll
 0001:000bd042       _ExcludeClipRect@20        004ce042 f   gdi32:GDI32.dll
 0001:000bd048       _GetNearestColor@8         004ce048 f   gdi32:GDI32.dll
 0001:000bd04e       _SetDIBits@28              004ce04e f   gdi32:GDI32.dll
 0001:000bd054       _GetDCOrgEx@8              004ce054 f   gdi32:GDI32.dll
 0001:000bd05a       _EndDoc@4                  004ce05a f   gdi32:GDI32.dll
 0001:000bd060       _EndPage@4                 004ce060 f   gdi32:GDI32.dll
 0001:000bd066       _Escape@20                 004ce066 f   gdi32:GDI32.dll
 0001:000bd06c       _StartPage@4               004ce06c f   gdi32:GDI32.dll
 0001:000bd072       _StartDocA@8               004ce072 f   gdi32:GDI32.dll
 0001:000bd078       _SetAbortProc@8            004ce078 f   gdi32:GDI32.dll
 0001:000bd07e       _SetMapMode@8              004ce07e f   gdi32:GDI32.dll
 0001:000bd084       _SetViewportExtEx@16       004ce084 f   gdi32:GDI32.dll
 0001:000bd08a       _StretchDIBits@52          004ce08a f   gdi32:GDI32.dll
 0001:000bd090       _ResetDCA@8                004ce090 f   gdi32:GDI32.dll
 0001:000bd096       _PrintDlgA@4               004ce096 f   comdlg32:comdlg32.dll
 0001:000bd09c       _timeGetDevCaps@8          004ce09c f   winmm:WINMM.dll
 0001:000bd0a2       _PlaySoundA@12             004ce0a2 f   winmm:WINMM.dll
 0001:000bd0a8       _WNetGetConnectionA@12     004ce0a8 f   mpr:MPR.dll
 0001:000bd0ae       _SHGetPathFromIDListA@8    004ce0ae f   shell32:SHELL32.dll
 0001:000bd0b4       _SHGetSpecialFolderLocation@12 004ce0b4 f   shell32:SHELL32.dll
 0001:000bd0c0       _inflateReset              004ce0c0 f   zlib:inflate.obj
 0001:000bd110       _inflateEnd                004ce110 f   zlib:inflate.obj
 0001:000bd160       _inflateInit2_             004ce160 f   zlib:inflate.obj
 0001:000bd270       _inflateInit_              004ce270 f   zlib:inflate.obj
 0001:000bd290       _inflate                   004ce290 f   zlib:inflate.obj
 0001:000bd660       _inflateSetDictionary      004ce660 f   zlib:inflate.obj
 0001:000bd6f0       _inflateSync               004ce6f0 f   zlib:inflate.obj
 0001:000bd7c0       _inflateSyncPoint          004ce7c0 f   zlib:inflate.obj
 0001:000bd7f0       _zlibVersion               004ce7f0 f   zlib:zutil.obj
 0001:000bd800       _zError                    004ce800 f   zlib:zutil.obj
 0001:000bd820       _zcalloc                   004ce820 f   zlib:zutil.obj
 0001:000bd840       _zcfree                    004ce840 f   zlib:zutil.obj
 0001:000bd860       _gzopen                    004ce860 f   zlib:gzio.obj
 0001:000bdad0       _gzdopen                   004cead0 f   zlib:gzio.obj
 0001:000bdb10       _gzsetparams               004ceb10 f   zlib:gzio.obj
 0001:000bde10       _gzread                    004cee10 f   zlib:gzio.obj
 0001:000be050       _gzgetc                    004cf050 f   zlib:gzio.obj
 0001:000be080       _gzgets                    004cf080 f   zlib:gzio.obj
 0001:000be0e0       _gzwrite                   004cf0e0 f   zlib:gzio.obj
 0001:000be190       _gzprintf                  004cf190 f   zlib:gzio.obj
 0001:000be1f0       _gzputc                    004cf1f0 f   zlib:gzio.obj
 0001:000be220       _gzputs                    004cf220 f   zlib:gzio.obj
 0001:000be250       _gzflush                   004cf250 f   zlib:gzio.obj
 0001:000be350       _gzseek                    004cf350 f   zlib:gzio.obj
 0001:000be4b0       _gzrewind                  004cf4b0 f   zlib:gzio.obj
 0001:000be530       _gztell                    004cf530 f   zlib:gzio.obj
 0001:000be550       _gzeof                     004cf550 f   zlib:gzio.obj
 0001:000be5c0       _gzclose                   004cf5c0 f   zlib:gzio.obj
 0001:000be660       _gzerror                   004cf660 f   zlib:gzio.obj
 0001:000be780       _deflateInit_              004cf780 f   zlib:deflate.obj
 0001:000be7b0       _deflateInit2_             004cf7b0 f   zlib:deflate.obj
 0001:000be9c0       _deflateSetDictionary      004cf9c0 f   zlib:deflate.obj
 0001:000beac0       _deflateReset              004cfac0 f   zlib:deflate.obj
 0001:000beb40       _deflateParams             004cfb40 f   zlib:deflate.obj
 0001:000bec30       _deflate                   004cfc30 f   zlib:deflate.obj
 0001:000bef90       _deflateEnd                004cff90 f   zlib:deflate.obj
 0001:000bf040       _deflateCopy               004d0040 f   zlib:deflate.obj
 0001:000bfe90       _get_crc_table             004d0e90 f   zlib:crc32.obj
 0001:000bfea0       _crc32                     004d0ea0 f   zlib:crc32.obj
 0001:000bffe0       _adler32                   004d0fe0 f   zlib:adler32.obj
 0001:000c0120       _inflate_blocks_reset      004d1120 f   zlib:infblock.obj
 0001:000c01a0       _inflate_blocks_new        004d11a0 f   zlib:infblock.obj
 0001:000c0250       _inflate_blocks            004d1250 f   zlib:infblock.obj
 0001:000c0ec0       _inflate_blocks_free       004d1ec0 f   zlib:infblock.obj
 0001:000c0f00       _inflate_set_dictionary    004d1f00 f   zlib:infblock.obj
 0001:000c0f40       _inflate_blocks_sync_point 004d1f40 f   zlib:infblock.obj
 0001:000c0f50       __tr_init                  004d1f50 f   zlib:trees.obj
 0001:000c1050       __tr_stored_block          004d2050 f   zlib:trees.obj
 0001:000c10f0       __tr_align                 004d20f0 f   zlib:trees.obj
 0001:000c1320       __tr_flush_block           004d2320 f   zlib:trees.obj
 0001:000c23b0       __tr_tally                 004d33b0 f   zlib:trees.obj
 0001:000c2ac0       _inflate_codes_new         004d3ac0 f   zlib:infcodes.obj
 0001:000c2b00       _inflate_codes             004d3b00 f   zlib:infcodes.obj
 0001:000c3230       _inflate_codes_free        004d4230 f   zlib:infcodes.obj
 0001:000c3250       _inflate_trees_bits        004d4250 f   zlib:inftrees.obj
 0001:000c3710       _inflate_trees_dynamic     004d4710 f   zlib:inftrees.obj
 0001:000c38a0       _inflate_trees_fixed       004d48a0 f   zlib:inftrees.obj
 0001:000c38d0       _inflate_flush             004d48d0 f   zlib:infutil.obj
 0001:000c3a10       _inflate_fast              004d4a10 f   zlib:inffast.obj
 0001:000c3dd0       __swab                     004d4dd0 f   msvcrt:MSVCRT.dll
 0001:000c3dd6       __strdup                   004d4dd6 f   msvcrt:MSVCRT.dll
 0001:000c3ddc       _calloc                    004d4ddc f   msvcrt:MSVCRT.dll
 0001:000c3de2       __fdopen                   004d4de2 f   msvcrt:MSVCRT.dll
 0001:000c3de8       _vsprintf                  004d4de8 f   msvcrt:MSVCRT.dll
 0001:000c3dee       _fputc                     004d4dee f   msvcrt:MSVCRT.dll
 0002:00000000       _minGlueInstr              004d5000     glueNT86.obj
 0002:00000004       _rootReturn                004d5004     glueNT86.obj
 0002:00000028       _rtBadBytecode             004d5028     glueNT86.obj
 0002:0000004c       _unlinkedSendSuper0        004d504c     glueNT86.obj
 0002:0000007c       _unlinkedSendSuper1        004d507c     glueNT86.obj
 0002:000000ac       _unlinkedSendSuper2        004d50ac     glueNT86.obj
 0002:000000dc       _unlinkedSendSuper3        004d50dc     glueNT86.obj
 0002:0000010c       _unlinkedSendSuperMany     004d510c     glueNT86.obj
 0002:00000138       _unlinkedSendNonImmediate0 004d5138     glueNT86.obj
 0002:00000164       _unlinkedSendNonImmediate1 004d5164     glueNT86.obj
 0002:00000190       _unlinkedSendNonImmediate2 004d5190     glueNT86.obj
 0002:000001bc       _unlinkedSendNonImmediate3 004d51bc     glueNT86.obj
 0002:000001e8       _unlinkedSendNonImmediateMany 004d51e8     glueNT86.obj
 0002:00000210       _unlinkedSendNoCheck0      004d5210     glueNT86.obj
 0002:0000023c       _unlinkedSendNoCheck1      004d523c     glueNT86.obj
 0002:00000268       _unlinkedSendNoCheck2      004d5268     glueNT86.obj
 0002:00000294       _unlinkedSendNoCheck3      004d5294     glueNT86.obj
 0002:000002c0       _unlinkedSendNoCheckMany   004d52c0     glueNT86.obj
 0002:000002e8       _rtExtendClosedPIC         004d52e8     glueNT86.obj
 0002:0000030c       _rtOpenPICSendMiss         004d530c     glueNT86.obj
 0002:00000330       _rtMNUFromPIC              004d5330     glueNT86.obj
 0002:00000358       _cantReturn                004d5358     glueNT86.obj
 0002:0000037c       _dnu0                      004d537c     glueNT86.obj
 0002:000003a0       _dnu1                      004d53a0     glueNT86.obj
 0002:000003c4       _dnu2                      004d53c4     glueNT86.obj
 0002:000003ec       _dnu3                      004d53ec     glueNT86.obj
 0002:00000414       _dnuMany                   004d5414     glueNT86.obj
 0002:0000043c       _rtPrimGlueVarArgMany      004d543c     glueNT86.obj
 0002:000004a8       _rtPrimGlueMany            004d54a8     glueNT86.obj
 0002:00000524       _primFailGlue              004d5524     glueNT86.obj
 0002:0000053c       _primFailShort             004d553c     glueNT86.obj
 0002:0000054c       _rtAbortRelinkSendToUnlinked 004d554c     glueNT86.obj
 0002:00000570       _rtPICAbortSendMiss        004d5570     glueNT86.obj
 0002:0000059c       _rtUPrimGlue0              004d559c     glueNT86.obj
 0002:000005ec       _rtUPrimGlue1              004d55ec     glueNT86.obj
 0002:00000640       _rtUPrimGlue2              004d5640     glueNT86.obj
 0002:00000698       _rtUPrimGlue3              004d5698     glueNT86.obj
 0002:000006f0       _rtUPrimGlueMany           004d56f0     glueNT86.obj
 0002:00000748       _rtPrimGlue3               004d5748     glueNT86.obj
 0002:00000754       _rtPrimGlue2               004d5754     glueNT86.obj
 0002:000007a0       _rtPrimGlue1               004d57a0     glueNT86.obj
 0002:000007e8       _rtPrimGlue0               004d57e8     glueNT86.obj
 0002:0000082c       _rtCarefulCallPrim         004d582c     glueNT86.obj
 0002:00000854       _rtLoadThisContext         004d5854     glueNT86.obj
 0002:00000864       _LoadThisContext           004d5864     glueNT86.obj
 0002:00000888       _rtAbortSend               004d5888     glueNT86.obj
 0002:000008ac       _rtAbortPrimFail           004d58ac     glueNT86.obj
 0002:000008d0       _rtEndLoop                 004d58d0     glueNT86.obj
 0002:000008f4       _rtNotBoolean              004d58f4     glueNT86.obj
 0002:00000918       _rtNotBooleanTrue          004d5918     glueNT86.obj
 0002:0000093c       _rtNotBooleanFalse         004d593c     glueNT86.obj
 0002:00000960       _rtMakeFullBlock           004d5960     glueNT86.obj
 0002:00000988       _rtMakeFullCopyingBlock    004d5988     glueNT86.obj
 0002:000009b0       _rtConsArray               004d59b0     glueNT86.obj
 0002:000009d8       _rtCreateArray             004d59d8     glueNT86.obj
 0002:00000a00       _rtMakeCopyingBlock        004d5a00     glueNT86.obj
 0002:00000a28       _rtMakeCopyingBlock1       004d5a28     glueNT86.obj
 0002:00000a50       _rtMethodReturn            004d5a50     glueNT86.obj
 0002:00000a78       _rtTraceLinkedSend         004d5a78     glueNT86.obj
 0002:00000a9c       _rtTraceOpenPIC            004d5a9c     glueNT86.obj
 0002:00000ac0       _rtLoadContextInstVar      004d5ac0     glueNT86.obj
 0002:00000ad4       _LoadContextInstVar        004d5ad4     glueNT86.obj
 0002:00000afc       _rtStoreContextInstVar     004d5afc     glueNT86.obj
 0002:00000b24       _rtCheckStore              004d5b24     glueNT86.obj
 0002:00000b48       _rtAttemptToAssign         004d5b48     glueNT86.obj
 0002:00000b70       _rtCannotResume            004d5b70     glueNT86.obj
 0002:00000b94       _unlinkedSend0             004d5b94     glueNT86.obj
 0002:00000bc0       _unlinkedSend1             004d5bc0     glueNT86.obj
 0002:00000bec       _unlinkedSend2             004d5bec     glueNT86.obj
 0002:00000c18       _unlinkedSend3             004d5c18     glueNT86.obj
 0002:00000c44       _unlinkedSendMany          004d5c44     glueNT86.obj
 0002:00000c6c       _backToNcode               004d5c6c     glueNT86.obj
 0002:00000c7c       _inToNcode                 004d5c7c     glueNT86.obj
 0002:00000c8c       _inToNcodePopResult        004d5c8c     glueNT86.obj
 0002:00000c9c       _backToNcodePopping        004d5c9c     glueNT86.obj
 0002:00000cac       _backToNcodePop2           004d5cac     glueNT86.obj
 0002:00000cbc       _backToNcodePop1           004d5cbc     glueNT86.obj
 0002:00000ccc       _backToNcodePop0           004d5ccc     glueNT86.obj
 0002:00000cdc       _backToNcodePopResult      004d5cdc     glueNT86.obj
 0002:00000cec       _maxGlueInstr              004d5cec     glueNT86.obj
 0002:00000cf0       _markStack                 004d5cf0     glueNT86.obj
 0002:00000d0c       _unMarkStack               004d5d0c     glueNT86.obj
 0002:00000d24       __etext                    004d5d24     glueNT86.obj
 0003:00000000       __imp__DeregisterEventSource@4 004d6000     advapi32:ADVAPI32.dll
 0003:00000004       __imp__RegisterEventSourceA@8 004d6004     advapi32:ADVAPI32.dll
 0003:00000008       __imp__ReportEventA@36     004d6008     advapi32:ADVAPI32.dll
 0003:0000000c       \177ADVAPI32_NULL_THUNK_DATA 004d600c     advapi32:ADVAPI32.dll
 0003:00000010       __imp__Polyline@12         004d6010     gdi32:GDI32.dll
 0003:00000014       __imp__SetViewportOrgEx@16 004d6014     gdi32:GDI32.dll
 0003:00000018       __imp__BitBlt@36           004d6018     gdi32:GDI32.dll
 0003:0000001c       __imp__GetBitmapBits@12    004d601c     gdi32:GDI32.dll
 0003:00000020       __imp__GetObjectA@12       004d6020     gdi32:GDI32.dll
 0003:00000024       __imp__GdiFlush@0          004d6024     gdi32:GDI32.dll
 0003:00000028       __imp__CreateCompatibleBitmap@12 004d6028     gdi32:GDI32.dll
 0003:0000002c       __imp__PatBlt@24           004d602c     gdi32:GDI32.dll
 0003:00000030       __imp__CreateBitmapIndirect@4 004d6030     gdi32:GDI32.dll
 0003:00000034       __imp__DeleteDC@4          004d6034     gdi32:GDI32.dll
 0003:00000038       __imp__CreateCompatibleDC@4 004d6038     gdi32:GDI32.dll
 0003:0000003c       __imp__CreatePalette@4     004d603c     gdi32:GDI32.dll
 0003:00000040       __imp__CreateSolidBrush@4  004d6040     gdi32:GDI32.dll
 0003:00000044       __imp__RealizePalette@4    004d6044     gdi32:GDI32.dll
 0003:00000048       __imp__SelectPalette@12    004d6048     gdi32:GDI32.dll
 0003:0000004c       __imp__GetDIBits@28        004d604c     gdi32:GDI32.dll
 0003:00000050       __imp__GetRgnBox@8         004d6050     gdi32:GDI32.dll
 0003:00000054       __imp__CombineRgn@16       004d6054     gdi32:GDI32.dll
 0003:00000058       __imp__SetROP2@8           004d6058     gdi32:GDI32.dll
 0003:0000005c       __imp__UpdateColors@4      004d605c     gdi32:GDI32.dll
 0003:00000060       __imp__SetBrushOrgEx@16    004d6060     gdi32:GDI32.dll
 0003:00000064       __imp__GetStockObject@4    004d6064     gdi32:GDI32.dll
 0003:00000068       __imp__GetTextMetricsA@8   004d6068     gdi32:GDI32.dll
 0003:0000006c       __imp__CreateFontIndirectA@4 004d606c     gdi32:GDI32.dll
 0003:00000070       __imp__SetTextAlign@8      004d6070     gdi32:GDI32.dll
 0003:00000074       __imp__GetTextFaceA@12     004d6074     gdi32:GDI32.dll
 0003:00000078       __imp__EnumFontFamiliesA@16 004d6078     gdi32:GDI32.dll
 0003:0000007c       __imp__GetTextExtentPoint32A@16 004d607c     gdi32:GDI32.dll
 0003:00000080       __imp__TextOutA@20         004d6080     gdi32:GDI32.dll
 0003:00000084       __imp__SetBkColor@8        004d6084     gdi32:GDI32.dll
 0003:00000088       __imp__SetTextColor@8      004d6088     gdi32:GDI32.dll
 0003:0000008c       __imp__GetClipBox@8        004d608c     gdi32:GDI32.dll
 0003:00000090       __imp__IntersectClipRect@20 004d6090     gdi32:GDI32.dll
 0003:00000094       __imp__SelectClipRgn@8     004d6094     gdi32:GDI32.dll
 0003:00000098       __imp__SetWindowExtEx@16   004d6098     gdi32:GDI32.dll
 0003:0000009c       __imp__GetDeviceCaps@8     004d609c     gdi32:GDI32.dll
 0003:000000a0       __imp__SetBkMode@8         004d60a0     gdi32:GDI32.dll
 0003:000000a4       __imp__OffsetRgn@12        004d60a4     gdi32:GDI32.dll
 0003:000000a8       __imp__CreatePen@12        004d60a8     gdi32:GDI32.dll
 0003:000000ac       __imp__SelectObject@8      004d60ac     gdi32:GDI32.dll
 0003:000000b0       __imp__CreateRectRgn@16    004d60b0     gdi32:GDI32.dll
 0003:000000b4       __imp__DeleteObject@4      004d60b4     gdi32:GDI32.dll
 0003:000000b8       __imp__SetRectRgn@20       004d60b8     gdi32:GDI32.dll
 0003:000000bc       __imp__Polygon@12          004d60bc     gdi32:GDI32.dll
 0003:000000c0       __imp__Ellipse@20          004d60c0     gdi32:GDI32.dll
 0003:000000c4       __imp__Arc@36              004d60c4     gdi32:GDI32.dll
 0003:000000c8       __imp__Pie@36              004d60c8     gdi32:GDI32.dll
 0003:000000cc       __imp__ExcludeClipRect@20  004d60cc     gdi32:GDI32.dll
 0003:000000d0       __imp__GetNearestColor@8   004d60d0     gdi32:GDI32.dll
 0003:000000d4       __imp__SetDIBits@28        004d60d4     gdi32:GDI32.dll
 0003:000000d8       __imp__GetDCOrgEx@8        004d60d8     gdi32:GDI32.dll
 0003:000000dc       __imp__EndDoc@4            004d60dc     gdi32:GDI32.dll
 0003:000000e0       __imp__EndPage@4           004d60e0     gdi32:GDI32.dll
 0003:000000e4       __imp__Escape@20           004d60e4     gdi32:GDI32.dll
 0003:000000e8       __imp__StartPage@4         004d60e8     gdi32:GDI32.dll
 0003:000000ec       __imp__ResetDCA@8          004d60ec     gdi32:GDI32.dll
 0003:000000f0       __imp__StretchDIBits@52    004d60f0     gdi32:GDI32.dll
 0003:000000f4       __imp__SetViewportExtEx@16 004d60f4     gdi32:GDI32.dll
 0003:000000f8       __imp__SetMapMode@8        004d60f8     gdi32:GDI32.dll
 0003:000000fc       __imp__SetAbortProc@8      004d60fc     gdi32:GDI32.dll
 0003:00000100       __imp__StartDocA@8         004d6100     gdi32:GDI32.dll
 0003:00000104       \177GDI32_NULL_THUNK_DATA  004d6104     gdi32:GDI32.dll
 0003:00000108       __imp__GetThreadContext@8  004d6108     kernel32:KERNEL32.dll
 0003:0000010c       __imp__DuplicateHandle@28  004d610c     kernel32:KERNEL32.dll
 0003:00000110       __imp__GetCurrentThread@0  004d6110     kernel32:KERNEL32.dll
 0003:00000114       __imp__GetCurrentProcessId@0 004d6114     kernel32:KERNEL32.dll
 0003:00000118       __imp__LoadLibraryA@4      004d6118     kernel32:KERNEL32.dll
 0003:0000011c       __imp__GetProcAddress@8    004d611c     kernel32:KERNEL32.dll
 0003:00000120       __imp__FreeLibrary@4       004d6120     kernel32:KERNEL32.dll
 0003:00000124       __imp__WaitForSingleObject@8 004d6124     kernel32:KERNEL32.dll
 0003:00000128       __imp__SetConsoleTextAttribute@8 004d6128     kernel32:KERNEL32.dll
 0003:0000012c       __imp__SetConsoleScreenBufferSize@8 004d612c     kernel32:KERNEL32.dll
 0003:00000130       __imp__GetStdHandle@4      004d6130     kernel32:KERNEL32.dll
 0003:00000134       __imp__AllocConsole@0      004d6134     kernel32:KERNEL32.dll
 0003:00000138       __imp__GlobalAlloc@8       004d6138     kernel32:KERNEL32.dll
 0003:0000013c       __imp__GlobalFree@4        004d613c     kernel32:KERNEL32.dll
 0003:00000140       __imp__GetModuleHandleA@4  004d6140     kernel32:KERNEL32.dll
 0003:00000144       __imp__GlobalUnlock@4      004d6144     kernel32:KERNEL32.dll
 0003:00000148       __imp__GlobalLock@4        004d6148     kernel32:KERNEL32.dll
 0003:0000014c       __imp__LockResource@4      004d614c     kernel32:KERNEL32.dll
 0003:00000150       __imp__LoadResource@8      004d6150     kernel32:KERNEL32.dll
 0003:00000154       __imp__FindResourceA@12    004d6154     kernel32:KERNEL32.dll
 0003:00000158       __imp__SizeofResource@8    004d6158     kernel32:KERNEL32.dll
 0003:0000015c       __imp__CloseHandle@4       004d615c     kernel32:KERNEL32.dll
 0003:00000160       __imp__ReadFile@20         004d6160     kernel32:KERNEL32.dll
 0003:00000164       __imp__GetFileSize@8       004d6164     kernel32:KERNEL32.dll
 0003:00000168       __imp__CreateFileA@28      004d6168     kernel32:KERNEL32.dll
 0003:0000016c       __imp__GetCurrentThreadId@0 004d616c     kernel32:KERNEL32.dll
 0003:00000170       __imp__lstrcpyA@8          004d6170     kernel32:KERNEL32.dll
 0003:00000174       __imp__SetErrorMode@4      004d6174     kernel32:KERNEL32.dll
 0003:00000178       __imp__GetVersionExA@4     004d6178     kernel32:KERNEL32.dll
 0003:0000017c       __imp__GetCurrentProcess@0 004d617c     kernel32:KERNEL32.dll
 0003:00000180       __imp__GetModuleFileNameA@12 004d6180     kernel32:KERNEL32.dll
 0003:00000184       __imp__SetCurrentDirectoryA@4 004d6184     kernel32:KERNEL32.dll
 0003:00000188       __imp__lstrcmpiA@8         004d6188     kernel32:KERNEL32.dll
 0003:0000018c       __imp__lstrlenA@4          004d618c     kernel32:KERNEL32.dll
 0003:00000190       __imp__GetCurrentDirectoryA@8 004d6190     kernel32:KERNEL32.dll
 0003:00000194       __imp__GetCommandLineA@0   004d6194     kernel32:KERNEL32.dll
 0003:00000198       __imp__GetProfileIntA@12   004d6198     kernel32:KERNEL32.dll
 0003:0000019c       __imp__GetProfileStringA@20 004d619c     kernel32:KERNEL32.dll
 0003:000001a0       __imp__VirtualAlloc@16     004d61a0     kernel32:KERNEL32.dll
 0003:000001a4       __imp__VirtualQuery@12     004d61a4     kernel32:KERNEL32.dll
 0003:000001a8       __imp__VirtualFree@12      004d61a8     kernel32:KERNEL32.dll
 0003:000001ac       __imp__GetSystemInfo@4     004d61ac     kernel32:KERNEL32.dll
 0003:000001b0       __imp__FlushFileBuffers@4  004d61b0     kernel32:KERNEL32.dll
 0003:000001b4       __imp__WriteFile@20        004d61b4     kernel32:KERNEL32.dll
 0003:000001b8       __imp__SetFilePointer@16   004d61b8     kernel32:KERNEL32.dll
 0003:000001bc       __imp__FindClose@4         004d61bc     kernel32:KERNEL32.dll
 0003:000001c0       __imp__GetFileAttributesA@4 004d61c0     kernel32:KERNEL32.dll
 0003:000001c4       __imp__FindFirstFileA@8    004d61c4     kernel32:KERNEL32.dll
 0003:000001c8       __imp__FindNextFileA@8     004d61c8     kernel32:KERNEL32.dll
 0003:000001cc       __imp__GetLogicalDrives@0  004d61cc     kernel32:KERNEL32.dll
 0003:000001d0       __imp__DeleteFileA@4       004d61d0     kernel32:KERNEL32.dll
 0003:000001d4       __imp__RemoveDirectoryA@4  004d61d4     kernel32:KERNEL32.dll
 0003:000001d8       __imp__MoveFileA@8         004d61d8     kernel32:KERNEL32.dll
 0003:000001dc       __imp__CreateDirectoryA@8  004d61dc     kernel32:KERNEL32.dll
 0003:000001e0       __imp__GetDriveTypeA@4     004d61e0     kernel32:KERNEL32.dll
 0003:000001e4       __imp__SetFileAttributesA@8 004d61e4     kernel32:KERNEL32.dll
 0003:000001e8       __imp__GetVolumeInformationA@32 004d61e8     kernel32:KERNEL32.dll
 0003:000001ec       __imp__GetFullPathNameA@16 004d61ec     kernel32:KERNEL32.dll
 0003:000001f0       __imp__GetLocaleInfoA@16   004d61f0     kernel32:KERNEL32.dll
 0003:000001f4       __imp__GetFileType@4       004d61f4     kernel32:KERNEL32.dll
 0003:000001f8       __imp__SetEndOfFile@4      004d61f8     kernel32:KERNEL32.dll
 0003:000001fc       __imp__UnlockFile@20       004d61fc     kernel32:KERNEL32.dll
 0003:00000200       __imp__LockFile@20         004d6200     kernel32:KERNEL32.dll
 0003:00000204       __imp__QueryPerformanceFrequency@4 004d6204     kernel32:KERNEL32.dll
 0003:00000208       __imp__SystemTimeToFileTime@8 004d6208     kernel32:KERNEL32.dll
 0003:0000020c       __imp__GetSystemTimeAsFileTime@4 004d620c     kernel32:KERNEL32.dll
 0003:00000210       __imp__QueryPerformanceCounter@4 004d6210     kernel32:KERNEL32.dll
 0003:00000214       __imp__InitializeCriticalSection@4 004d6214     kernel32:KERNEL32.dll
 0003:00000218       __imp__LeaveCriticalSection@4 004d6218     kernel32:KERNEL32.dll
 0003:0000021c       __imp__EnterCriticalSection@4 004d621c     kernel32:KERNEL32.dll
 0003:00000220       __imp__TerminateThread@8   004d6220     kernel32:KERNEL32.dll
 0003:00000224       __imp__GetThreadPriority@4 004d6224     kernel32:KERNEL32.dll
 0003:00000228       __imp__DisableThreadLibraryCalls@4 004d6228     kernel32:KERNEL32.dll
 0003:0000022c       __imp__SetPriorityClass@8  004d622c     kernel32:KERNEL32.dll
 0003:00000230       __imp__GetLastError@0      004d6230     kernel32:KERNEL32.dll
 0003:00000234       __imp__CreateSemaphoreA@16 004d6234     kernel32:KERNEL32.dll
 0003:00000238       __imp__SetThreadPriority@8 004d6238     kernel32:KERNEL32.dll
 0003:0000023c       __imp__ReleaseSemaphore@12 004d623c     kernel32:KERNEL32.dll
 0003:00000240       __imp__Sleep@4             004d6240     kernel32:KERNEL32.dll
 0003:00000244       __imp__DebugBreak@0        004d6244     kernel32:KERNEL32.dll
 0003:00000248       \177KERNEL32_NULL_THUNK_DATA 004d6248     kernel32:KERNEL32.dll
 0003:0000024c       __imp__WNetGetConnectionA@12 004d624c     mpr:MPR.dll
 0003:00000250       \177MPR_NULL_THUNK_DATA    004d6250     mpr:MPR.dll
 0003:00000254       __imp__swab                004d6254     msvcrt:MSVCRT.dll
 0003:00000254       __imp___swab               004d6254     msvcrt:MSVCRT.dll
 0003:00000258       __imp___strdup             004d6258     msvcrt:MSVCRT.dll
 0003:00000258       __imp__strdup              004d6258     msvcrt:MSVCRT.dll
 0003:0000025c       __imp__calloc              004d625c     msvcrt:MSVCRT.dll
 0003:00000260       __imp___fdopen             004d6260     msvcrt:MSVCRT.dll
 0003:00000264       __imp__vsprintf            004d6264     msvcrt:MSVCRT.dll
 0003:00000268       __imp___onexit             004d6268     msvcrt:MSVCRT.dll
 0003:0000026c       __imp____dllonexit         004d626c     msvcrt:MSVCRT.dll
 0003:00000270       __imp___adjust_fdiv        004d6270     msvcrt:MSVCRT.dll
 0003:00000274       __imp___initterm           004d6274     msvcrt:MSVCRT.dll
 0003:00000278       __imp__fputs               004d6278     msvcrt:MSVCRT.dll
 0003:0000027c       __imp__tmpfile             004d627c     msvcrt:MSVCRT.dll
 0003:00000280       __imp__fseek               004d6280     msvcrt:MSVCRT.dll
 0003:00000284       __imp__ftell               004d6284     msvcrt:MSVCRT.dll
 0003:00000288       __imp__rewind              004d6288     msvcrt:MSVCRT.dll
 0003:0000028c       __imp__fputc               004d628c     msvcrt:MSVCRT.dll
 0003:00000290       __imp__fread               004d6290     msvcrt:MSVCRT.dll
 0003:00000294       __imp__fwrite              004d6294     msvcrt:MSVCRT.dll
 0003:00000298       __imp__putc                004d6298     msvcrt:MSVCRT.dll
 0003:0000029c       __imp__vfprintf            004d629c     msvcrt:MSVCRT.dll
 0003:000002a0       __imp__log10               004d62a0     msvcrt:MSVCRT.dll
 0003:000002a4       __imp__floor               004d62a4     msvcrt:MSVCRT.dll
 0003:000002a8       __imp__pow                 004d62a8     msvcrt:MSVCRT.dll
 0003:000002ac       __imp__exp                 004d62ac     msvcrt:MSVCRT.dll
 0003:000002b0       __imp__log                 004d62b0     msvcrt:MSVCRT.dll
 0003:000002b4       __imp__sqrt                004d62b4     msvcrt:MSVCRT.dll
 0003:000002b8       __imp__atan                004d62b8     msvcrt:MSVCRT.dll
 0003:000002bc       __imp__acos                004d62bc     msvcrt:MSVCRT.dll
 0003:000002c0       __imp__asin                004d62c0     msvcrt:MSVCRT.dll
 0003:000002c4       __imp__tan                 004d62c4     msvcrt:MSVCRT.dll
 0003:000002c8       __imp___stricmp            004d62c8     msvcrt:MSVCRT.dll
 0003:000002c8       __imp__stricmp             004d62c8     msvcrt:MSVCRT.dll
 0003:000002cc       __imp__strncmp             004d62cc     msvcrt:MSVCRT.dll
 0003:000002d0       __imp__strncpy             004d62d0     msvcrt:MSVCRT.dll
 0003:000002d4       __imp___errno              004d62d4     msvcrt:MSVCRT.dll
 0003:000002d8       __imp__fgets               004d62d8     msvcrt:MSVCRT.dll
 0003:000002dc       __imp__fprintf             004d62dc     msvcrt:MSVCRT.dll
 0003:000002e0       __imp____p__environ        004d62e0     msvcrt:MSVCRT.dll
 0003:000002e4       __imp__strchr              004d62e4     msvcrt:MSVCRT.dll
 0003:000002e8       __imp__toupper             004d62e8     msvcrt:MSVCRT.dll
 0003:000002ec       __imp___fullpath           004d62ec     msvcrt:MSVCRT.dll
 0003:000002f0       __imp__strrchr             004d62f0     msvcrt:MSVCRT.dll
 0003:000002f4       __imp___controlfp          004d62f4     msvcrt:MSVCRT.dll
 0003:000002f8       __imp___splitpath          004d62f8     msvcrt:MSVCRT.dll
 0003:000002fc       __imp__exit                004d62fc     msvcrt:MSVCRT.dll
 0003:00000300       __imp___except_handler3    004d6300     msvcrt:MSVCRT.dll
 0003:00000304       __imp__memmove             004d6304     msvcrt:MSVCRT.dll
 0003:00000308       __imp__cos                 004d6308     msvcrt:MSVCRT.dll
 0003:0000030c       __imp__sin                 004d630c     msvcrt:MSVCRT.dll
 0003:00000310       __imp__realloc             004d6310     msvcrt:MSVCRT.dll
 0003:00000314       __imp__sscanf              004d6314     msvcrt:MSVCRT.dll
 0003:00000318       __imp__fclose              004d6318     msvcrt:MSVCRT.dll
 0003:0000031c       __imp__fopen               004d631c     msvcrt:MSVCRT.dll
 0003:00000320       __imp__freopen             004d6320     msvcrt:MSVCRT.dll
 0003:00000324       __imp__setvbuf             004d6324     msvcrt:MSVCRT.dll
 0003:00000328       __imp__putchar             004d6328     msvcrt:MSVCRT.dll
 0003:0000032c       __imp__sprintf             004d632c     msvcrt:MSVCRT.dll
 0003:00000330       __imp__printf              004d6330     msvcrt:MSVCRT.dll
 0003:00000334       __imp___iob                004d6334     msvcrt:MSVCRT.dll
 0003:00000338       __imp__fflush              004d6338     msvcrt:MSVCRT.dll
 0003:0000033c       __imp__strerror            004d633c     msvcrt:MSVCRT.dll
 0003:00000340       __imp__bsearch             004d6340     msvcrt:MSVCRT.dll
 0003:00000344       __imp__malloc              004d6344     msvcrt:MSVCRT.dll
 0003:00000348       __imp__free                004d6348     msvcrt:MSVCRT.dll
 0003:0000034c       __imp___ftol               004d634c     msvcrt:MSVCRT.dll
 0003:00000350       __imp___beginthreadex      004d6350     msvcrt:MSVCRT.dll
 0003:00000354       \177MSVCRT_NULL_THUNK_DATA 004d6354     msvcrt:MSVCRT.dll
 0003:00000358       __imp__SHGetPathFromIDListA@8 004d6358     shell32:SHELL32.dll
 0003:0000035c       __imp__SHGetSpecialFolderLocation@12 004d635c     shell32:SHELL32.dll
 0003:00000360       \177SHELL32_NULL_THUNK_DATA 004d6360     shell32:SHELL32.dll
 0003:00000364       __imp__GetSysColor@4       004d6364     user32:USER32.dll
 0003:00000368       __imp__GetSystemMetrics@4  004d6368     user32:USER32.dll
 0003:0000036c       __imp__DestroyCursor@4     004d636c     user32:USER32.dll
 0003:00000370       __imp__CreateCursor@28     004d6370     user32:USER32.dll
 0003:00000374       __imp__SetCursor@4         004d6374     user32:USER32.dll
 0003:00000378       __imp__LoadCursorA@8       004d6378     user32:USER32.dll
 0003:0000037c       __imp__MessageBoxA@16      004d637c     user32:USER32.dll
 0003:00000380       __imp__PostMessageA@16     004d6380     user32:USER32.dll
 0003:00000384       __imp__DefWindowProcA@16   004d6384     user32:USER32.dll
 0003:00000388       __imp__EndPaint@8          004d6388     user32:USER32.dll
 0003:0000038c       __imp__GetWindowDC@4       004d638c     user32:USER32.dll
 0003:00000390       __imp__DrawIcon@16         004d6390     user32:USER32.dll
 0003:00000394       __imp__BeginPaint@8        004d6394     user32:USER32.dll
 0003:00000398       __imp__FillRect@12         004d6398     user32:USER32.dll
 0003:0000039c       __imp__IsWindow@4          004d639c     user32:USER32.dll
 0003:000003a0       __imp__EnumWindows@8       004d63a0     user32:USER32.dll
 0003:000003a4       __imp__GetClassNameA@12    004d63a4     user32:USER32.dll
 0003:000003a8       __imp__ValidateRect@8      004d63a8     user32:USER32.dll
 0003:000003ac       __imp__GetUpdateRect@12    004d63ac     user32:USER32.dll
 0003:000003b0       __imp__GetMessageTime@0    004d63b0     user32:USER32.dll
 0003:000003b4       __imp__ScreenToClient@8    004d63b4     user32:USER32.dll
 0003:000003b8       __imp__GetMessagePos@0     004d63b8     user32:USER32.dll
 0003:000003bc       __imp__GetWindowRect@8     004d63bc     user32:USER32.dll
 0003:000003c0       __imp__RegisterClassA@4    004d63c0     user32:USER32.dll
 0003:000003c4       __imp__DrawTextA@20        004d63c4     user32:USER32.dll
 0003:000003c8       __imp__GetWindowPlacement@8 004d63c8     user32:USER32.dll
 0003:000003cc       __imp__SystemParametersInfoA@16 004d63cc     user32:USER32.dll
 0003:000003d0       __imp__IntersectRect@12    004d63d0     user32:USER32.dll
 0003:000003d4       __imp__OffsetRect@12       004d63d4     user32:USER32.dll
 0003:000003d8       __imp__SetMessageQueue@4   004d63d8     user32:USER32.dll
 0003:000003dc       __imp__LoadStringA@16      004d63dc     user32:USER32.dll
 0003:000003e0       __imp__TabbedTextOutA@32   004d63e0     user32:USER32.dll
 0003:000003e4       __imp__MessageBeep@4       004d63e4     user32:USER32.dll
 0003:000003e8       __imp__SetClipboardData@8  004d63e8     user32:USER32.dll
 0003:000003ec       __imp__IsClipboardFormatAvailable@4 004d63ec     user32:USER32.dll
 0003:000003f0       __imp__OpenClipboard@4     004d63f0     user32:USER32.dll
 0003:000003f4       __imp__WindowFromPoint@8   004d63f4     user32:USER32.dll
 0003:000003f8       __imp__CloseClipboard@0    004d63f8     user32:USER32.dll
 0003:000003fc       __imp__CreateIcon@28       004d63fc     user32:USER32.dll
 0003:00000400       __imp__UnregisterClassA@8  004d6400     user32:USER32.dll
 0003:00000404       __imp__GetSystemMenu@8     004d6404     user32:USER32.dll
 0003:00000408       __imp__RemoveMenu@12       004d6408     user32:USER32.dll
 0003:0000040c       __imp__InvalidateRect@12   004d640c     user32:USER32.dll
 0003:00000410       __imp__UpdateWindow@4      004d6410     user32:USER32.dll
 0003:00000414       __imp__ShowWindow@8        004d6414     user32:USER32.dll
 0003:00000418       __imp__SetFocus@4          004d6418     user32:USER32.dll
 0003:0000041c       __imp__GetParent@4         004d641c     user32:USER32.dll
 0003:00000420       __imp__AdjustWindowRectEx@16 004d6420     user32:USER32.dll
 0003:00000424       __imp__SetWindowPos@28     004d6424     user32:USER32.dll
 0003:00000428       __imp__IsIconic@4          004d6428     user32:USER32.dll
 0003:0000042c       __imp__GetClientRect@8     004d642c     user32:USER32.dll
 0003:00000430       __imp__ClientToScreen@8    004d6430     user32:USER32.dll
 0003:00000434       __imp__SendMessageA@16     004d6434     user32:USER32.dll
 0003:00000438       __imp__GetActiveWindow@0   004d6438     user32:USER32.dll
 0003:0000043c       __imp__IsWindowVisible@4   004d643c     user32:USER32.dll
 0003:00000440       __imp__SetActiveWindow@4   004d6440     user32:USER32.dll
 0003:00000444       __imp__GetWindowThreadProcessId@8 004d6444     user32:USER32.dll
 0003:00000448       __imp__GetWindow@8         004d6448     user32:USER32.dll
 0003:0000044c       __imp__EnableWindow@8      004d644c     user32:USER32.dll
 0003:00000450       __imp__GetWindowLongA@8    004d6450     user32:USER32.dll
 0003:00000454       __imp__SetWindowLongA@12   004d6454     user32:USER32.dll
 0003:00000458       __imp__DestroyIcon@4       004d6458     user32:USER32.dll
 0003:0000045c       __imp__DispatchMessageA@4  004d645c     user32:USER32.dll
 0003:00000460       __imp__TranslateMessage@4  004d6460     user32:USER32.dll
 0003:00000464       __imp__DestroyWindow@4     004d6464     user32:USER32.dll
 0003:00000468       __imp__CreateWindowExA@48  004d6468     user32:USER32.dll
 0003:0000046c       __imp__SetCursorPos@8      004d646c     user32:USER32.dll
 0003:00000470       __imp__GetAsyncKeyState@4  004d6470     user32:USER32.dll
 0003:00000474       __imp__GetCursorPos@4      004d6474     user32:USER32.dll
 0003:00000478       __imp__SetCapture@4        004d6478     user32:USER32.dll
 0003:0000047c       __imp__GetDC@4             004d647c     user32:USER32.dll
 0003:00000480       __imp__ReleaseDC@8         004d6480     user32:USER32.dll
 0003:00000484       __imp__ReleaseCapture@0    004d6484     user32:USER32.dll
 0003:00000488       __imp__PeekMessageA@20     004d6488     user32:USER32.dll
 0003:0000048c       __imp__MsgWaitForMultipleObjects@20 004d648c     user32:USER32.dll
 0003:00000490       __imp__RedrawWindow@16     004d6490     user32:USER32.dll
 0003:00000494       __imp__GetClipboardData@4  004d6494     user32:USER32.dll
 0003:00000498       __imp__EmptyClipboard@0    004d6498     user32:USER32.dll
 0003:0000049c       \177USER32_NULL_THUNK_DATA 004d649c     user32:USER32.dll
 0003:000004a0       __imp__timeGetDevCaps@8    004d64a0     winmm:WINMM.dll
 0003:000004a4       __imp__PlaySoundA@12       004d64a4     winmm:WINMM.dll
 0003:000004a8       \177WINMM_NULL_THUNK_DATA  004d64a8     winmm:WINMM.dll
 0003:000004ac       __imp__gethostbyname@4     004d64ac     wsock32:WSOCK32.dll
 0003:000004b0       __imp__getpeername@12      004d64b0     wsock32:WSOCK32.dll
 0003:000004b4       __imp__getsockname@12      004d64b4     wsock32:WSOCK32.dll
 0003:000004b8       __imp__getsockopt@20       004d64b8     wsock32:WSOCK32.dll
 0003:000004bc       __imp__setsockopt@20       004d64bc     wsock32:WSOCK32.dll
 0003:000004c0       __imp__sendto@24           004d64c0     wsock32:WSOCK32.dll
 0003:000004c4       __imp__recvfrom@24         004d64c4     wsock32:WSOCK32.dll
 0003:000004c8       __imp__getprotobyname@4    004d64c8     wsock32:WSOCK32.dll
 0003:000004cc       __imp__listen@8            004d64cc     wsock32:WSOCK32.dll
 0003:000004d0       __imp__bind@12             004d64d0     wsock32:WSOCK32.dll
 0003:000004d4       __imp__accept@12           004d64d4     wsock32:WSOCK32.dll
 0003:000004d8       __imp__socket@12           004d64d8     wsock32:WSOCK32.dll
 0003:000004dc       __imp__WSAStartup@8        004d64dc     wsock32:WSOCK32.dll
 0003:000004e0       __imp__WSACleanup@0        004d64e0     wsock32:WSOCK32.dll
 0003:000004e4       __imp__closesocket@4       004d64e4     wsock32:WSOCK32.dll
 0003:000004e8       __imp__WSAGetLastError@0   004d64e8     wsock32:WSOCK32.dll
 0003:000004ec       __imp__getservbyname@8     004d64ec     wsock32:WSOCK32.dll
 0003:000004f0       __imp__connect@12          004d64f0     wsock32:WSOCK32.dll
 0003:000004f4       __imp__gethostbyaddr@12    004d64f4     wsock32:WSOCK32.dll
 0003:000004f8       __imp__ioctlsocket@12      004d64f8     wsock32:WSOCK32.dll
 0003:000004fc       __imp__send@16             004d64fc     wsock32:WSOCK32.dll
 0003:00000500       __imp__getservbyport@8     004d6500     wsock32:WSOCK32.dll
 0003:00000504       __imp__gethostname@8       004d6504     wsock32:WSOCK32.dll
 0003:00000508       __imp__recv@16             004d6508     wsock32:WSOCK32.dll
 0003:0000050c       __imp__shutdown@8          004d650c     wsock32:WSOCK32.dll
 0003:00000510       __imp__WSAAsyncSelect@16   004d6510     wsock32:WSOCK32.dll
 0003:00000514       __imp__getprotobynumber@4  004d6514     wsock32:WSOCK32.dll
 0003:00000518       \177WSOCK32_NULL_THUNK_DATA 004d6518     wsock32:WSOCK32.dll
 0003:0000051c       __imp__PrintDlgA@4         004d651c     comdlg32:comdlg32.dll
 0003:00000520       \177comdlg32_NULL_THUNK_DATA 004d6520     comdlg32:comdlg32.dll
 0003:000005a0       ??_C@_0EN@JMPE@VisualWorks?$CIR?$CJ?57?43a?5Apr?5?57?52005?6@ 004d65a0     prUdummy.obj
 0003:000005f0       ??_C@_0DH@EOE@?$CIaFloatOop?$CJ?5?$DN?$DN?5nonOop?5?$HM?$HM?5objData@ 004d65f0     prUdummy.obj
 0003:00000628       ??_C@_0BE@CHMD@?$CBscavengeInProgress?$AA@ 004d6628     prUdummy.obj
 0003:0000063c       ??_C@_0CB@EHJG@?4?4?2?4?4?2?4?4?2src?2prim?2prUsrSupport?4c@ 004d663c     prUdummy.obj
 0003:00000660       ??_C@_0DN@PCFC@?$CIaString?$CJ?5?$DN?$DN?5nonOop?5?$HM?$HM?5objDataSi@ 004d6660     prUdummy.obj
 0003:000006a0       ??_C@_0P@HFNO@objOk?$CI_newOop?$CJ?$AA@ 004d66a0     prUdummy.obj
 0003:000006b0       ??_C@_0ED@LCEB@?$CIaByteArray?$CJ?5?$DN?$DN?5nonOop?5?$HM?$HM?5objDat@ 004d66b0     prUdummy.obj
 0003:000006f4       ??_C@_0CL@NEPN@?$CBoopIsImm?$CIanOop?$CJ?5?$CG?$CG?5?$CBobjIsNewAss@ 004d66f4     prUdummy.obj
 0003:00000720       ??_C@_0DF@LGEH@?$CBoopIsImm?$CIanOopArray?$CJ?5?$CG?$CG?5?$CBobjIsN@ 004d6720     prUdummy.obj
 0003:00000758       ??_C@_0DE@LIPL@?$CBoopIsImm?$CIanOopArray?$CJ?5?$CG?$CG?5objIsNe@ 004d6758     prUdummy.obj
 0003:0000078c       ??_C@_0BG@HLGN@?$CBoopIsImm?$CIanOopArray?$CJ?$AA@ 004d678c     prUdummy.obj
 0003:000007a4       ??_C@_0FF@PKAH@?$CIanOopArray?$CJ?5?$DN?$DN?5nonOop?5?$HM?$HM?5objDat@ 004d67a4     prUdummy.obj
 0003:000007fc       ??_C@_0BD@KLMM@?$CBobjHasPtrs?$CIanOop?$CJ?$AA@ 004d67fc     prUdummy.obj
 0003:00000810       ??_C@_0DB@KJEN@?$CBoopIsImm?$CInewFloat?$CJ?5?$CG?$CG?5?$CBobjIsNew@ 004d6810     prUdummy.obj
 0003:00000844       ??_C@_0CK@PDNA@?$CBoopIsImm?$CIanOop?$CJ?5?$CG?$CG?5objIsNewAsse@ 004d6844     prUdummy.obj
 0003:00000870       ??_C@_0BB@GOBM@?$CBoopIsImm?$CIanOop?$CJ?$AA@ 004d6870     prUdummy.obj
 0003:00000884       ??_C@_0DB@JEEG@?$CBoopIsImm?$CIotherOop?$CJ?5?$CG?$CG?5?$CBobjIsNew@ 004d6884     prUdummy.obj
 0003:000008b8       ??_C@_0CN@ILLF@?$CBoopIsImm?$CInewOop?$CJ?5?$CG?$CG?5?$CBobjIsNewAs@ 004d68b8     prUdummy.obj
 0003:000008e8       ??_C@_0DJ@PFNH@?$CIaDoubleOop?$CJ?5?$DN?$DN?5nonOop?5?$HM?$HM?5objDat@ 004d68e8     prUdummy.obj
 0003:00000924       ??_C@_0CA@FJIM@couldn?8t?5signal?5delay?5semaphore?$AA@ 004d6924     ntalarm.obj
 0003:00000944       ??_C@_0BO@OOBO@?4?4?2?4?4?2?4?4?2src?2platpc?2ntalarm?4c?$AA@ 004d6944     ntalarm.obj
 0003:00000964       ??_C@_0BH@ELOH@nextDelayState?5?$CB?$DN?5fire?$AA@ 004d6964     ntalarm.obj
 0003:0000097c       ??_C@_0BP@GCOE@couldn?8t?5signal?5poll?5semaphore?$AA@ 004d697c     ntalarm.obj
 0003:0000099c       ??_C@_0CP@CKPE@couldn?8t?5set?5alarm?5subsystem?5thr@ 004d699c     ntalarm.obj
 0003:000009cc       ??_C@_0CI@PMBM@couldn?8t?5create?5alarm?5subsystem?5@ 004d69cc     ntalarm.obj
 0003:000009f4       ??_C@_0CL@HLNF@couldn?8t?5create?5alarm?5subsystem?5@ 004d69f4     ntalarm.obj
 0003:00000a20       ??_C@_0BI@BOKK@SetPriorityClass?5failed?$AA@ 004d6a20     ntalarm.obj
 0003:00000a38       ??_C@_0O@EOBO@PriorityClass?$AA@ 004d6a38     ntalarm.obj
 0003:00000a48       ??_C@_0DC@GBHM@status?5?$DN?$DN?5WAIT_TIMEOUT?5?$HM?$HM?5status@ 004d6a48     ntalarm.obj
 0003:00000a7c       ??_C@_0CL@CCHK@delay?5semaphore?5WaitForSingleObj@ 004d6a7c     ntalarm.obj
 0003:00000aa8       ??_C@_0BD@DBEB@delayms?5?$DM?5INFINITE?$AA@ 004d6aa8     ntalarm.obj
 0003:00000abc       ??_C@_0CF@FAIK@couldn?8t?5set?5profile?5thread?5prio@ 004d6abc     ntalarm.obj
 0003:00000ae4       ??_C@_0BP@BCLI@couldn?8t?5create?5profile?5thread?$AA@ 004d6ae4     ntalarm.obj
 0003:00000b04       ??_C@_0CC@KMCM@couldn?8t?5create?5profile?5semaphor@ 004d6b04     ntalarm.obj
 0003:00000b28       ??_C@_0CD@BFDN@couldn?8t?5get?5timer?5resolution?5in@ 004d6b28     ntalarm.obj
 0003:00000b4c       ??_C@_08ODLM@OEThread?$AA@ 004d6b4c     ntalarm.obj
 0003:00000b58       ??_C@_0CC@DOKK@couldn?8t?5signal?5profile?5semaphor@ 004d6b58     ntalarm.obj
 0003:00000b8c       ??_C@_0CF@KICC@?$CBoopIsImm?$CIpt?$CJ?5?$CG?$CG?5?$CBobjIsNewAssert@ 004d6b8c     ntanim.obj
 0003:00000bb4       ??_C@_0O@OAMO@?$CBoopIsImm?$CIpt?$CJ?$AA@ 004d6bb4     ntanim.obj
 0003:00000bc4       ??_C@_0CN@NOOK@?$CBoopIsImm?$CIresult?$CJ?5?$CG?$CG?5?$CBobjIsNewAs@ 004d6bc4     ntanim.obj
 0003:00000bf4       ??_C@_0DN@OLPM@?$CBoopIsImm?$CIresult?$CJ?5?$CG?$CG?5objIsNewAss@ 004d6bf4     ntanim.obj
 0003:00000c34       ??_C@_0BC@LCM@?$CBoopIsImm?$CIresult?$CJ?$AA@ 004d6c34     ntanim.obj
 0003:00000c48       ??_C@_0BN@ICCO@?4?4?2?4?4?2?4?4?2src?2platpc?2ntanim?4c?$AA@ 004d6c48     ntanim.obj
 0003:00000c68       __real@8@3ffe8000000000000000 004d6c68     ntanim.obj
 0003:00000c70       ??_C@_05KAP@OWST4?$AA@     004d6c70     ntanim.obj
 0003:00000c78       ??_C@_0ED@BFLA@?$CBoopIsImm?$CIsysOopRegistry?$FL1?$FN?$CJ?5?$CG?$CG?5@ 004d6c78     ntcanvas.obj
 0003:00000cbc       ??_C@_0BN@BGCI@?$CBoopIsImm?$CIsysOopRegistry?$FL1?$FN?$CJ?$AA@ 004d6cbc     ntcanvas.obj
 0003:00000cdc       ??_C@_0EM@IALF@?$CBoopIsImm?$CIretval?$CJ?5?$CG?$CG?5objIsNewAss@ 004d6cdc     ntcanvas.obj
 0003:00000d28       ??_C@_0ED@PMBJ@?$CBoopIsImm?$CIsysOopRegistry?$FL2?$FN?$CJ?5?$CG?$CG?5@ 004d6d28     ntcanvas.obj
 0003:00000d6c       ??_C@_0BN@OABD@?$CBoopIsImm?$CIsysOopRegistry?$FL2?$FN?$CJ?$AA@ 004d6d6c     ntcanvas.obj
 0003:00000d8c       ??_C@_0CN@EACJ@?$CBoopIsImm?$CIretval?$CJ?5?$CG?$CG?5?$CBobjIsNewAs@ 004d6d8c     ntcanvas.obj
 0003:00000dbc       ??_C@_0EM@HGIO@?$CBoopIsImm?$CIretval?$CJ?5?$CG?$CG?5objIsNewAss@ 004d6dbc     ntcanvas.obj
 0003:00000e08       ??_C@_0BC@FBCE@?$CBoopIsImm?$CIretval?$CJ?$AA@ 004d6e08     ntcanvas.obj
 0003:00000e1c       ??_C@_0BP@NBKA@?4?4?2?4?4?2?4?4?2src?2platpc?2ntcanvas?4c?$AA@ 004d6e1c     ntcanvas.obj
 0003:00000e3c       ??_C@_0DM@LDHO@lpWinExtra?5?$DN?5?$CILPWINEXTRA?$CJ?5GetWin@ 004d6e3c     ntcanvas.obj
 0003:00000e78       ??_C@_0EB@IHBH@?$CIarray?$CJ?5?$DN?$DN?5nonOop?5?$HM?$HM?5objDataSize@ 004d6e78     ntcanvas.obj
 0003:00000ebc       ??_C@_05FPOK@OWST3?$AA@    004d6ebc     ntcanvas.obj
 0003:00000ec4       ??_C@_05KKLL@OWSTH?$AA@    004d6ec4     ntcanvas.obj
 0003:00000ecc       ??_C@_05PFHN@OWST2?$AA@    004d6ecc     ntcanvas.obj
 0003:00000ed4       ??_C@_0BD@IMDJ@winPlatformId?5?$DO?$DN?50?$AA@ 004d6ed4     ntcanvas.obj
 0003:00000ee8       ??_C@_0EL@EDAD@?$CIarray?$CJ?5?$DN?$DN?5nonOop?5?$HM?$HM?5objDataSize@ 004d6ee8     ntcanvas.obj
 0003:00000f34       ??_C@_0CJ@KEAI@?$CBoopIsImm?$CIrect?$CJ?5?$CG?$CG?5?$CBobjIsNewAsse@ 004d6f34     ntcanvas.obj
 0003:00000f60       ??_C@_0BA@PIML@?$CBoopIsImm?$CIrect?$CJ?$AA@ 004d6f60     ntcanvas.obj
 0003:00000f70       ??_C@_0DF@LJLD@?$CBoopIsImm?$CI?$CIoop?$CJarray?$CJ?5?$CG?$CG?5?$CBobjIsN@ 004d6f70     ntcanvas.obj
 0003:00000fa8       ??_C@_0EH@OJKC@?$CBoopIsImm?$CI?$CIoop?$CJarray?$CJ?5?$CG?$CG?5objIsNe@ 004d6fa8     ntcanvas.obj
 0003:00000ff0       ??_C@_0BG@DJPB@?$CBoopIsImm?$CI?$CIoop?$CJarray?$CJ?$AA@ 004d6ff0     ntcanvas.obj
 0003:00001008       ??_C@_0DP@FNGJ@?$CIrect?$CJ?5?$DN?$DN?5nonOop?5?$HM?$HM?5objDataSize?$CI@ 004d7008     ntcanvas.obj
 0003:00001048       ??_C@_0CL@MOMI@?$CBoopIsImm?$CIarray?$CJ?5?$CG?$CG?5?$CBobjIsNewAss@ 004d7048     ntcanvas.obj
 0003:00001074       ??_C@_0BB@FHCD@?$CBoopIsImm?$CIarray?$CJ?$AA@ 004d7074     ntcanvas.obj
 0003:00001088       ??_C@_0EA@OEMD@?$CBoopIsImm?$CIresult?$CJ?5?$CG?$CG?5objIsNewAss@ 004d7088     ntcanvas.obj
 0003:000010c8       ??_C@_0ED@FKFP@?$CIresult?$CJ?5?$DN?$DN?5nonOop?5?$HM?$HM?5objDataSiz@ 004d70c8     ntcanvas.obj
 0003:0000110c       ??_C@_05IBNB@j?5?$DM?5i?$AA@ 004d710c     ntcanvas.obj
 0003:00001114       ??_C@_0EB@GN@?$CBoopIsImm?$CIdamageRectangles?$CJ?5?$CG?$CG?5?$CB@ 004d7114     ntcanvas.obj
 0003:00001158       ??_C@_0BM@OMIA@?$CBoopIsImm?$CIdamageRectangles?$CJ?$AA@ 004d7158     ntcanvas.obj
 0003:00001174       ??_C@_0EL@GLMH@?$CBoopIsImm?$CIresult?$CJ?5?$CG?$CG?5objIsNewAss@ 004d7174     ntcanvas.obj
 0003:000011c0       ??_C@_0BH@MKKD@?$CBobjHasPtrs?$CIbufferOop?$CJ?$AA@ 004d71c0     ntcanvas.obj
 0003:000011d8       ??_C@_0CP@DDHL@?$CBoopIsImm?$CIoopRect?$CJ?5?$CG?$CG?5?$CBobjIsNewA@ 004d71d8     ntcanvas.obj
 0003:00001208       ??_C@_0BD@DFGK@?$CBoopIsImm?$CIoopRect?$CJ?$AA@ 004d7208     ntcanvas.obj
 0003:0000121c       ??_C@_0FG@NNE@?$CBoopIsImm?$CIdamageRectangles?$CJ?5?$CG?$CG?5o@ 004d721c     ntcanvas.obj
 0003:00001274       ??_C@_0DH@FFJH@?$CBoopIsImm?$CIcolorMapOop?$CJ?5?$CG?$CG?5?$CBobjIs@ 004d7274     ntcanvas.obj
 0003:000012ac       ??_C@_0BH@KHDO@?$CBoopIsImm?$CIcolorMapOop?$CJ?$AA@ 004d72ac     ntcanvas.obj
 0003:000012c4       ??_C@_0EG@NCGP@?$CBoopIsImm?$CIresult?$CJ?5?$CG?$CG?5objIsNewAss@ 004d72c4     ntcanvas.obj
 0003:0000130c       ??_C@_03LBJA@xeq?$AA@      004d730c     ntcurs.obj
 0003:00001310       ??_C@_04OMDE@wait?$AA@     004d7310     ntcurs.obj
 0003:00001318       ??_C@_06KMLP@normal?$AA@   004d7318     ntcurs.obj
 0003:00001320       ??_C@_04MHDN@help?$AA@     004d7320     ntcurs.obj
 0003:00001328       ??_C@_05KFON@iBeam?$AA@    004d7328     ntcurs.obj
 0003:00001330       ??_C@_02HAO@up?$AA@        004d7330     ntcurs.obj
 0003:00001334       ??_C@_0BB@CGJP@absoluteVertical?$AA@ 004d7334     ntcurs.obj
 0003:00001348       ??_C@_07KFNL@no?5drop?$AA@ 004d7348     ntcurs.obj
 0003:00001350       ??_C@_09KAKM@crossHair?$AA@ 004d7350     ntcurs.obj
 0003:0000135c       ??_C@_0L@GGHO@bottomLeft?$AA@ 004d735c     ntcurs.obj
 0003:00001368       ??_C@_08BNEN@topRight?$AA@ 004d7368     ntcurs.obj
 0003:00001374       ??_C@_06GMLF@corner?$AA@   004d7374     ntcurs.obj
 0003:0000137c       ??_C@_06NOHF@origin?$AA@   004d737c     ntcurs.obj
 0003:00001384       ??_C@_0BC@DJBO@CPOK16FreeCbThunk?$AA@ 004d7384     ntdynld.obj
 0003:00001398       ??_C@_0BD@HKBE@CPOK16AllocCbThunk?$AA@ 004d7398     ntdynld.obj
 0003:000013ac       ??_C@_0BA@JJED@CPOK16Xlate3216?$AA@ 004d73ac     ntdynld.obj
 0003:000013bc       ??_C@_0BD@KNIG@CPOK16InitCallback?$AA@ 004d73bc     ntdynld.obj
 0003:000013d0       ??_C@_0L@HGPF@CPOK16Free?$AA@ 004d73d0     ntdynld.obj
 0003:000013dc       ??_C@_0M@BPOK@CPOK16Alloc?$AA@ 004d73dc     ntdynld.obj
 0003:000013e8       ??_C@_0BA@BMLE@CPOK16Xlate1632?$AA@ 004d73e8     ntdynld.obj
 0003:000013f8       ??_C@_0O@LBOI@CPOK16CallFar?$AA@ 004d73f8     ntdynld.obj
 0003:00001408       ??_C@_0P@LEFO@CPOK16InitCall?$AA@ 004d7408     ntdynld.obj
 0003:00001418       ??_C@_0BF@JDEI@CPOK16GetProcAddress?$AA@ 004d7418     ntdynld.obj
 0003:00001430       ??_C@_0BC@HELG@CPOK16FreeLibrary?$AA@ 004d7430     ntdynld.obj
 0003:00001444       ??_C@_0BE@PPJF@Thunking?5Init?5Error?$AA@ 004d7444     ntdynld.obj
 0003:00001458       ??_C@_0BC@IGCE@CPOK16LoadLibrary?$AA@ 004d7458     ntdynld.obj
 0003:0000146c       ??_C@_0L@CIO@VWFT32?4DLL?$AA@ 004d746c     ntdynld.obj
 0003:00001478       ??_C@_0BO@OANB@?4?4?2?4?4?2?4?4?2src?2platpc?2ntdynld?4c?$AA@ 004d7478     ntdynld.obj
 0003:00001498       ??_C@_0BB@KIMI@oeLoadInitialize?$AA@ 004d7498     ntdynld.obj
 0003:000014ac       ??_C@_0BB@HHAI@UPLoadInitialize?$AA@ 004d74ac     ntdynld.obj
 0003:00002ae0       ??_C@_0L@OCKC@WSANO_DATA?$AA@ 004d8ae0     ntecode.obj
 0003:00002aec       ??_C@_0P@FDEO@WSANO_RECOVERY?$AA@ 004d8aec     ntecode.obj
 0003:00002afc       ??_C@_0N@POCN@WSATRY_AGAIN?$AA@ 004d8afc     ntecode.obj
 0003:00002b0c       ??_C@_0BC@FGAC@WSAHOST_NOT_FOUND?$AA@ 004d8b0c     ntecode.obj
 0003:00002b20       ??_C@_0BC@HCBF@WSANOTINITIALISED?$AA@ 004d8b20     ntecode.obj
 0003:00002b34       ??_C@_0BD@PKID@WSAVERNOTSUPPORTED?$AA@ 004d8b34     ntecode.obj
 0003:00002b48       ??_C@_0P@BMGD@WSASYSNOTREADY?$AA@ 004d8b48     ntecode.obj
 0003:00002b58       ??_C@_06JKGF@EWSOCK?$AA@   004d8b58     ntecode.obj
 0003:00002b60       ??_C@_0BA@GDKP@WSAEHOSTUNREACH?$AA@ 004d8b60     ntecode.obj
 0003:00002b70       ??_C@_0N@FHHG@EHOSTUNREACH?$AA@ 004d8b70     ntecode.obj
 0003:00002b80       ??_C@_0N@CHFC@WSAEHOSTDOWN?$AA@ 004d8b80     ntecode.obj
 0003:00002b90       ??_C@_09MJAA@EHOSTDOWN?$AA@ 004d8b90     ntecode.obj
 0003:00002b9c       ??_C@_0BA@CAFH@WSAENAMETOOLONG?$AA@ 004d8b9c     ntecode.obj
 0003:00002bac       ??_C@_08KIHD@WSAELOOP?$AA@ 004d8bac     ntecode.obj
 0003:00002bb8       ??_C@_06LAPK@EELOOP?$AA@   004d8bb8     ntecode.obj
 0003:00002bc0       ??_C@_0BA@KHJO@WSAECONNREFUSED?$AA@ 004d8bc0     ntecode.obj
 0003:00002bd0       ??_C@_0N@JDEH@ECONNREFUSED?$AA@ 004d8bd0     ntecode.obj
 0003:00002be0       ??_C@_0N@IOAI@WSAETIMEDOUT?$AA@ 004d8be0     ntecode.obj
 0003:00002bf0       ??_C@_09GAFK@ETIMEDOUT?$AA@ 004d8bf0     ntecode.obj
 0003:00002bfc       ??_C@_0BA@JKLP@WSAETOOMANYREFS?$AA@ 004d8bfc     ntecode.obj
 0003:00002c0c       ??_C@_0N@KOGG@ETOOMANYREFS?$AA@ 004d8c0c     ntecode.obj
 0003:00002c1c       ??_C@_0N@IIJE@WSAESHUTDOWN?$AA@ 004d8c1c     ntecode.obj
 0003:00002c2c       ??_C@_09GGMG@ESHUTDOWN?$AA@ 004d8c2c     ntecode.obj
 0003:00002c38       ??_C@_0M@FHGM@WSAENOTCONN?$AA@ 004d8c38     ntecode.obj
 0003:00002c44       ??_C@_08FHM@ENOTCONN?$AA@  004d8c44     ntecode.obj
 0003:00002c50       ??_C@_0L@GMEH@WSAEISCONN?$AA@ 004d8c50     ntecode.obj
 0003:00002c5c       ??_C@_07HMGE@EISCONN?$AA@  004d8c5c     ntecode.obj
 0003:00002c64       ??_C@_0L@HPDK@WSAENOBUFS?$AA@ 004d8c64     ntecode.obj
 0003:00002c70       ??_C@_07GPBJ@ENOBUFS?$AA@  004d8c70     ntecode.obj
 0003:00002c78       ??_C@_0O@LFGK@WSAECONNRESET?$AA@ 004d8c78     ntecode.obj
 0003:00002c88       ??_C@_0L@BFIE@ECONNRESET?$AA@ 004d8c88     ntecode.obj
 0003:00002c94       ??_C@_0BA@DAMK@WSAECONNABORTED?$AA@ 004d8c94     ntecode.obj
 0003:00002ca4       ??_C@_0N@EBD@ECONNABORTED?$AA@ 004d8ca4     ntecode.obj
 0003:00002cb4       ??_C@_0N@KFEB@WSAENETRESET?$AA@ 004d8cb4     ntecode.obj
 0003:00002cc4       ??_C@_09ELBD@ENETRESET?$AA@ 004d8cc4     ntecode.obj
 0003:00002cd0       ??_C@_0P@BMAL@WSAENETUNREACH?$AA@ 004d8cd0     ntecode.obj
 0003:00002ce0       ??_C@_0M@MFKL@ENETUNREACH?$AA@ 004d8ce0     ntecode.obj
 0003:00002cec       ??_C@_0M@OCME@WSAENETDOWN?$AA@ 004d8cec     ntecode.obj
 0003:00002cf8       ??_C@_08LANE@ENETDOWN?$AA@ 004d8cf8     ntecode.obj
 0003:00002d04       ??_C@_0BB@CAPK@WSAEADDRNOTAVAIL?$AA@ 004d8d04     ntecode.obj
 0003:00002d18       ??_C@_0O@NIMO@EADDRNOTAVAIL?$AA@ 004d8d18     ntecode.obj
 0003:00002d28       ??_C@_0O@HEEI@WSAEADDRINUSE?$AA@ 004d8d28     ntecode.obj
 0003:00002d38       ??_C@_0L@NEKG@EADDRINUSE?$AA@ 004d8d38     ntecode.obj
 0003:00002d44       ??_C@_0BA@JGHB@WSAEAFNOSUPPORT?$AA@ 004d8d44     ntecode.obj
 0003:00002d54       ??_C@_0N@KCKI@EAFNOSUPPORT?$AA@ 004d8d54     ntecode.obj
 0003:00002d64       ??_C@_0BA@NEAC@WSAEPFNOSUPPORT?$AA@ 004d8d64     ntecode.obj
 0003:00002d74       ??_C@_0N@OANL@EPFNOSUPPORT?$AA@ 004d8d74     ntecode.obj
 0003:00002d84       ??_C@_0O@CKGP@WSAEOPNOTSUPP?$AA@ 004d8d84     ntecode.obj
 0003:00002d94       ??_C@_0L@IKIB@EOPNOTSUPP?$AA@ 004d8d94     ntecode.obj
 0003:00002da0       ??_C@_0BD@BHGL@WSAESOCKTNOSUPPORT?$AA@ 004d8da0     ntecode.obj
 0003:00002db4       ??_C@_0BA@FLIJ@ESOCKTNOSUPPORT?$AA@ 004d8db4     ntecode.obj
 0003:00002dc4       ??_C@_0BD@NNFA@WSAEPROTONOSUPPORT?$AA@ 004d8dc4     ntecode.obj
 0003:00002dd8       ??_C@_0BA@JBLC@EPROTONOSUPPORT?$AA@ 004d8dd8     ntecode.obj
 0003:00002de8       ??_C@_0P@CMMD@WSAENOPROTOOPT?$AA@ 004d8de8     ntecode.obj
 0003:00002df8       ??_C@_0M@PFGD@ENOPROTOOPT?$AA@ 004d8df8     ntecode.obj
 0003:00002e04       ??_C@_0O@MMIF@WSAEPROTOTYPE?$AA@ 004d8e04     ntecode.obj
 0003:00002e14       ??_C@_0L@GMGL@EPROTOTYPE?$AA@ 004d8e14     ntecode.obj
 0003:00002e20       ??_C@_0M@EFDP@WSAEMSGSIZE?$AA@ 004d8e20     ntecode.obj
 0003:00002e2c       ??_C@_08BHCP@EMSGSIZE?$AA@ 004d8e2c     ntecode.obj
 0003:00002e38       ??_C@_0BA@LDNB@WSAEDESTADDRREQ?$AA@ 004d8e38     ntecode.obj
 0003:00002e48       ??_C@_0N@IHAI@EDESTADDRREQ?$AA@ 004d8e48     ntecode.obj
 0003:00002e58       ??_C@_0M@PLNC@WSAENOTSOCK?$AA@ 004d8e58     ntecode.obj
 0003:00002e64       ??_C@_08KJMC@ENOTSOCK?$AA@ 004d8e64     ntecode.obj
 0003:00002e70       ??_C@_0M@FDKM@WSAEALREADY?$AA@ 004d8e70     ntecode.obj
 0003:00002e7c       ??_C@_0P@DGNH@WSAEINPROGRESS?$AA@ 004d8e7c     ntecode.obj
 0003:00002e8c       ??_C@_0M@OPHH@EINPROGRESS?$AA@ 004d8e8c     ntecode.obj
 0003:00002e98       ??_C@_0P@HEMP@WSAEWOULDBLOCK?$AA@ 004d8e98     ntecode.obj
 0003:00002ea8       ??_C@_0M@KNGP@EWOULDBLOCK?$AA@ 004d8ea8     ntecode.obj
 0003:00002eb4       ??_C@_09IMGE@WSAEMFILE?$AA@ 004d8eb4     ntecode.obj
 0003:00002ec0       ??_C@_09COKE@WSAEINVAL?$AA@ 004d8ec0     ntecode.obj
 0003:00002ecc       ??_C@_09GNPN@WSAEFAULT?$AA@ 004d8ecc     ntecode.obj
 0003:00002ed8       ??_C@_09HMKF@WSAEACCES?$AA@ 004d8ed8     ntecode.obj
 0003:00002ee4       ??_C@_08PJGE@WSAEBADF?$AA@ 004d8ee4     ntecode.obj
 0003:00002ef0       ??_C@_08PLFD@WSAEINTR?$AA@ 004d8ef0     ntecode.obj
 0003:00002efc       ??_C@_05EIPD@EINTR?$AA@    004d8efc     ntecode.obj
 0003:00002f04       ??_C@_0BP@OOCN@ERROR_NO_BROWSER_SERVERS_FOUND?$AA@ 004d8f04     ntecode.obj
 0003:00002f24       ??_C@_0BE@OCEB@ERROR_DEVICE_IN_USE?$AA@ 004d8f24     ntecode.obj
 0003:00002f38       ??_C@_0BB@DMEJ@ERROR_OPEN_FILES?$AA@ 004d8f38     ntecode.obj
 0003:00002f4c       ??_C@_0BE@GGCP@ERROR_NOT_CONNECTED?$AA@ 004d8f4c     ntecode.obj
 0003:00002f60       ??_C@_0BD@BBHN@ERROR_BAD_USERNAME?$AA@ 004d8f60     ntecode.obj
 0003:00002f74       ??_C@_0BC@OJAL@EPT_S_CANT_CREATE?$AA@ 004d8f74     ntecode.obj
 0003:00002f88       ??_C@_0BH@GJLC@ERROR_NOT_ENOUGH_QUOTA?$AA@ 004d8f88     ntecode.obj
 0003:00002fa0       ??_C@_0BO@DPAF@ERROR_RESOURCE_LANG_NOT_FOUND?$AA@ 004d8fa0     ntecode.obj
 0003:00002fc0       ??_C@_0BO@BMIH@ERROR_RESOURCE_NAME_NOT_FOUND?$AA@ 004d8fc0     ntecode.obj
 0003:00002fe0       ??_C@_0BO@KNLF@ERROR_RESOURCE_TYPE_NOT_FOUND?$AA@ 004d8fe0     ntecode.obj
 0003:00003000       ??_C@_0BO@CIIH@ERROR_RESOURCE_DATA_NOT_FOUND?$AA@ 004d9000     ntecode.obj
 0003:00003020       ??_C@_0BO@MOGP@ERROR_SERVER_HAS_OPEN_HANDLES?$AA@ 004d9020     ntecode.obj
 0003:00003040       ??_C@_0CA@EIEN@ERROR_DOMAIN_TRUST_INCONSISTENT?$AA@ 004d9040     ntecode.obj
 0003:00003060       ??_C@_0CD@GFAE@ERROR_NOLOGON_SERVER_TRUST_ACCOU@ 004d9060     ntecode.obj
 0003:00003084       ??_C@_0CI@GDIM@ERROR_NOLOGON_WORKSTATION_TRUST_@ 004d9084     ntecode.obj
 0003:000030ac       ??_C@_0CI@LDGD@ERROR_NOLOGON_INTERDOMAIN_TRUST_@ 004d90ac     ntecode.obj
 0003:000030d4       ??_C@_0BK@KGEK@ERROR_INVALID_ENVIRONMENT?$AA@ 004d90d4     ntecode.obj
 0003:000030f0       ??_C@_0BH@BAPC@ERROR_INVALID_DATATYPE?$AA@ 004d90f0     ntecode.obj
 0003:00003108       ??_C@_0BO@GDBL@ERROR_INVALID_PRINTER_COMMAND?$AA@ 004d9108     ntecode.obj
 0003:00003128       ??_C@_0BN@PHNO@ERROR_PRINTER_ALREADY_EXISTS?$AA@ 004d9128     ntecode.obj
 0003:00003148       ??_C@_0BL@MOGB@ERROR_INVALID_PRINTER_NAME?$AA@ 004d9148     ntecode.obj
 0003:00003164       ??_C@_0BH@COCL@ERROR_INVALID_PRIORITY?$AA@ 004d9164     ntecode.obj
 0003:0000317c       ??_C@_0BN@DIFC@ERROR_INVALID_SEPARATOR_FILE?$AA@ 004d917c     ntecode.obj
 0003:0000319c       ??_C@_0BN@HBGB@ERROR_UNKNOWN_PRINTPROCESSOR?$AA@ 004d919c     ntecode.obj
 0003:000031bc       ??_C@_0BN@EKEG@ERROR_UNKNOWN_PRINTER_DRIVER?$AA@ 004d91bc     ntecode.obj
 0003:000031dc       ??_C@_0BD@ICDL@ERROR_UNKNOWN_PORT?$AA@ 004d91dc     ntecode.obj
 0003:000031f0       ??_C@_0CH@GNJN@ERROR_PRINTER_DRIVER_ALREADY_INS@ 004d91f0     ntecode.obj
 0003:00003218       ??_C@_0CC@JIOL@ERROR_REDIRECTOR_HAS_OPEN_HANDLE@ 004d9218     ntecode.obj
 0003:0000323c       ??_C@_0BG@NPNK@ERROR_ACCOUNT_EXPIRED?$AA@ 004d923c     ntecode.obj
 0003:00003254       ??_C@_0BL@EJPL@ERROR_NETLOGON_NOT_STARTED?$AA@ 004d9254     ntecode.obj
 0003:00003270       ??_C@_0BE@ODNO@ERROR_TRUST_FAILURE?$AA@ 004d9270     ntecode.obj
 0003:00003284       ??_C@_0CD@KOEI@ERROR_TRUSTED_RELATIONSHIP_FAILU@ 004d9284     ntecode.obj
 0003:000032a8       ??_C@_0BN@NHLD@ERROR_TRUSTED_DOMAIN_FAILURE?$AA@ 004d92a8     ntecode.obj
 0003:000032c8       ??_C@_0BL@HPMJ@ERROR_NO_TRUST_SAM_ACCOUNT?$AA@ 004d92c8     ntecode.obj
 0003:000032e4       ??_C@_0BK@BBMB@ERROR_NO_TRUST_LSA_SECRET?$AA@ 004d92e4     ntecode.obj
 0003:00003300       ??_C@_0BJ@GNFB@ERROR_UNRECOGNIZED_MEDIA?$AA@ 004d9300     ntecode.obj
 0003:0000331c       ??_C@_0BK@OKCE@ERROR_INVALID_USER_BUFFER?$AA@ 004d931c     ntecode.obj
 0003:00003338       ??_C@_0BF@HFAN@EPT_S_NOT_REGISTERED?$AA@ 004d9338     ntecode.obj
 0003:00003350       ??_C@_0BG@EDFH@EPT_S_CANT_PERFORM_OP?$AA@ 004d9350     ntecode.obj
 0003:00003368       ??_C@_0BE@GAMJ@EPT_S_INVALID_ENTRY?$AA@ 004d9368     ntecode.obj
 0003:0000337c       ??_C@_0BM@GOOO@ERROR_EVENTLOG_FILE_CORRUPT?$AA@ 004d937c     ntecode.obj
 0003:00003398       ??_C@_0BO@BJNG@ERROR_INVALID_SHOWWIN_COMMAND?$AA@ 004d9398     ntecode.obj
 0003:000033b8       ??_C@_0BO@LONG@ERROR_INVALID_SCROLLBAR_RANGE?$AA@ 004d93b8     ntecode.obj
 0003:000033d8       ??_C@_0BE@KKBE@ERROR_NO_SCROLLBARS?$AA@ 004d93d8     ntecode.obj
 0003:000033ec       ??_C@_0BL@IIGG@ERROR_POPUP_ALREADY_ACTIVE?$AA@ 004d93ec     ntecode.obj
 0003:00003408       ??_C@_0BK@IHPP@ERROR_NON_MDICHILD_WINDOW?$AA@ 004d9408     ntecode.obj
 0003:00003424       ??_C@_0BI@INMN@ERROR_INVALID_THREAD_ID?$AA@ 004d9424     ntecode.obj
 0003:0000343c       ??_C@_0BJ@CBCK@ERROR_INVALID_GW_COMMAND?$AA@ 004d943c     ntecode.obj
 0003:00003458       ??_C@_0BH@DMJN@ERROR_NOT_CHILD_WINDOW?$AA@ 004d9458     ntecode.obj
 0003:00003470       ??_C@_0BN@HPAL@ERROR_HWNDS_HAVE_DIFF_PARENT?$AA@ 004d9470     ntecode.obj
 0003:00003490       ??_C@_0BM@DKLO@ERROR_SCREEN_ALREADY_LOCKED?$AA@ 004d9490     ntecode.obj
 0003:000034ac       ??_C@_0BI@BJIG@ERROR_INVALID_SPI_VALUE?$AA@ 004d94ac     ntecode.obj
 0003:000034c4       ??_C@_0BL@GFII@ERROR_INVALID_MSGBOX_STYLE?$AA@ 004d94c4     ntecode.obj
 0003:000034e0       ??_C@_0BF@DBLM@ERROR_NO_SYSTEM_MENU?$AA@ 004d94e0     ntecode.obj
 0003:000034f8       ??_C@_0BI@DDEC@ERROR_CHILD_WINDOW_MENU?$AA@ 004d94f8     ntecode.obj
 0003:00003510       ??_C@_0CF@KGCF@ERROR_DESTROY_OBJECT_OF_OTHER_TH@ 004d9510     ntecode.obj
 0003:00003538       ??_C@_0BK@CBPD@ERROR_LB_WITHOUT_TABSTOPS?$AA@ 004d9538     ntecode.obj
 0003:00003554       ??_C@_0BJ@FAFC@ERROR_SETCOUNT_ON_BAD_LB?$AA@ 004d9554     ntecode.obj
 0003:00003570       ??_C@_0BJ@FPJB@ERROR_INVALID_LB_MESSAGE?$AA@ 004d9570     ntecode.obj
 0003:0000358c       ??_C@_0BJ@HBKF@ERROR_HOOK_NOT_INSTALLED?$AA@ 004d958c     ntecode.obj
 0003:000035a8       ??_C@_0BH@OKBK@ERROR_JOURNAL_HOOK_SET?$AA@ 004d95a8     ntecode.obj
 0003:000035c0       ??_C@_0BH@GGEE@ERROR_GLOBAL_ONLY_HOOK?$AA@ 004d95c0     ntecode.obj
 0003:000035d8       ??_C@_0BG@CIOG@ERROR_HOOK_NEEDS_HMOD?$AA@ 004d95d8     ntecode.obj
 0003:000035f0       ??_C@_0BK@CDLB@ERROR_INVALID_FILTER_PROC?$AA@ 004d95f0     ntecode.obj
 0003:0000360c       ??_C@_0BK@MGFC@ERROR_INVALID_HOOK_FILTER?$AA@ 004d960c     ntecode.obj
 0003:00003628       ??_C@_0BD@EFAG@ERROR_DC_NOT_FOUND?$AA@ 004d9628     ntecode.obj
 0003:0000363c       ??_C@_0BK@LKDP@ERROR_INVALID_EDIT_HEIGHT?$AA@ 004d963c     ntecode.obj
 0003:00003658       ??_C@_0BK@GBLM@ERROR_WINDOW_NOT_COMBOBOX?$AA@ 004d9658     ntecode.obj
 0003:00003674       ??_C@_0BP@JNE@ERROR_INVALID_COMBOBOX_MESSAGE?$AA@ 004d9674     ntecode.obj
 0003:00003694       ??_C@_0BL@HOOI@ERROR_CONTROL_ID_NOT_FOUND?$AA@ 004d9694     ntecode.obj
 0003:000036b0       ??_C@_0BI@DLFB@ERROR_WINDOW_NOT_DIALOG?$AA@ 004d96b0     ntecode.obj
 0003:000036c8       ??_C@_0BM@PEJI@ERROR_HOTKEY_NOT_REGISTERED?$AA@ 004d96c8     ntecode.obj
 0003:000036e4       ??_C@_0BJ@IDFL@ERROR_CLIPBOARD_NOT_OPEN?$AA@ 004d96e4     ntecode.obj
 0003:00003700       ??_C@_0BN@FGMG@ERROR_NO_WILDCARD_CHARACTERS?$AA@ 004d9700     ntecode.obj
 0003:00003720       ??_C@_0BL@IECA@ERROR_LISTBOX_ID_NOT_FOUND?$AA@ 004d9720     ntecode.obj
 0003:0000373c       ??_C@_0BL@EELC@ERROR_PRIVATE_DIALOG_INDEX?$AA@ 004d973c     ntecode.obj
 0003:00003758       ??_C@_0BK@OABM@ERROR_INVALID_ICON_HANDLE?$AA@ 004d9758     ntecode.obj
 0003:00003774       ??_C@_0BE@KMNB@ERROR_INVALID_INDEX?$AA@ 004d9774     ntecode.obj
 0003:00003788       ??_C@_0BI@COPP@ERROR_CLASS_HAS_WINDOWS?$AA@ 004d9788     ntecode.obj
 0003:000037a0       ??_C@_0BL@JJ@ERROR_CLASS_DOES_NOT_EXIST?$AA@ 004d97a0     ntecode.obj
 0003:000037bc       ??_C@_0BL@HFBA@ERROR_CLASS_ALREADY_EXISTS?$AA@ 004d97bc     ntecode.obj
 0003:000037d8       ??_C@_0CA@FIND@ERROR_HOTKEY_ALREADY_REGISTERED?$AA@ 004d97d8     ntecode.obj
 0003:000037f8       ??_C@_0BN@CINC@ERROR_WINDOW_OF_OTHER_THREAD?$AA@ 004d97f8     ntecode.obj
 0003:00003818       ??_C@_0BM@HEIF@ERROR_CANNOT_FIND_WND_CLASS?$AA@ 004d9818     ntecode.obj
 0003:00003834       ??_C@_0BH@DCOE@ERROR_TLW_WITH_WSCHILD?$AA@ 004d9834     ntecode.obj
 0003:0000384c       ??_C@_0BJ@LENH@ERROR_INVALID_DWP_HANDLE?$AA@ 004d984c     ntecode.obj
 0003:00003868       ??_C@_0BK@CDBM@ERROR_INVALID_HOOK_HANDLE?$AA@ 004d9868     ntecode.obj
 0003:00003884       ??_C@_0BL@BKBL@ERROR_INVALID_ACCEL_HANDLE?$AA@ 004d9884     ntecode.obj
 0003:000038a0       ??_C@_0BM@GLED@ERROR_INVALID_CURSOR_HANDLE?$AA@ 004d98a0     ntecode.obj
 0003:000038bc       ??_C@_0BK@LDAI@ERROR_INVALID_MENU_HANDLE?$AA@ 004d98bc     ntecode.obj
 0003:000038d8       ??_C@_0BM@FDDO@ERROR_INVALID_WINDOW_HANDLE?$AA@ 004d98d8     ntecode.obj
 0003:000038f4       ??_C@_0BD@PKFE@ERROR_DISK_CORRUPT?$AA@ 004d98f4     ntecode.obj
 0003:00003908       ??_C@_0BD@JDAJ@ERROR_FILE_CORRUPT?$AA@ 004d9908     ntecode.obj
 0003:0000391c       ??_C@_0BF@OPJD@ERROR_NO_INHERITANCE?$AA@ 004d991c     ntecode.obj
 0003:00003934       ??_C@_0CD@NKJA@ERROR_LM_CROSS_ENCRYPTION_REQUIR@ 004d9934     ntecode.obj
 0003:00003958       ??_C@_0BE@BBOP@ERROR_TOO_MANY_SIDS?$AA@ 004d9958     ntecode.obj
 0003:0000396c       ??_C@_0BF@OEKJ@ERROR_INVALID_MEMBER?$AA@ 004d996c     ntecode.obj
 0003:00003984       ??_C@_0BF@FBME@ERROR_NO_SUCH_MEMBER?$AA@ 004d9984     ntecode.obj
 0003:0000399c       ??_C@_0CD@OBH@ERROR_NT_CROSS_ENCRYPTION_REQUIR@ 004d999c     ntecode.obj
 0003:000039c0       ??_C@_0BN@GGED@ERROR_LOGON_TYPE_NOT_GRANTED?$AA@ 004d99c0     ntecode.obj
 0003:000039e0       ??_C@_0BL@INCG@ERROR_TOO_MANY_CONTEXT_IDS?$AA@ 004d99e0     ntecode.obj
 0003:000039fc       ??_C@_0BI@HPEA@ERROR_INTERNAL_DB_ERROR?$AA@ 004d99fc     ntecode.obj
 0003:00003a14       ??_C@_0BG@LCLL@ERROR_SECRET_TOO_LONG?$AA@ 004d9a14     ntecode.obj
 0003:00003a2c       ??_C@_0BH@GELA@ERROR_TOO_MANY_SECRETS?$AA@ 004d9a2c     ntecode.obj
 0003:00003a44       ??_C@_0BI@JCLG@ERROR_LOGON_NOT_GRANTED?$AA@ 004d9a44     ntecode.obj
 0003:00003a5c       ??_C@_0BD@BJPG@ERROR_ALIAS_EXISTS?$AA@ 004d9a5c     ntecode.obj
 0003:00003a70       ??_C@_0BG@LHDP@ERROR_MEMBER_IN_ALIAS?$AA@ 004d9a70     ntecode.obj
 0003:00003a88       ??_C@_0BK@BDOO@ERROR_MEMBER_NOT_IN_ALIAS?$AA@ 004d9a88     ntecode.obj
 0003:00003aa4       ??_C@_0BE@PBOO@ERROR_NO_SUCH_ALIAS?$AA@ 004d9aa4     ntecode.obj
 0003:00003ab8       ??_C@_0BL@KBLF@ERROR_TOKEN_ALREADY_IN_USE?$AA@ 004d9ab8     ntecode.obj
 0003:00003ad4       ??_C@_0BM@PNKB@ERROR_MEMBERS_PRIMARY_GROUP?$AA@ 004d9ad4     ntecode.obj
 0003:00003af0       ??_C@_0BD@MCMB@ERROR_SPECIAL_USER?$AA@ 004d9af0     ntecode.obj
 0003:00003b04       ??_C@_0BE@ELPC@ERROR_SPECIAL_GROUP?$AA@ 004d9b04     ntecode.obj
 0003:00003b18       ??_C@_0BG@EMBC@ERROR_SPECIAL_ACCOUNT?$AA@ 004d9b18     ntecode.obj
 0003:00003b30       ??_C@_0BL@DACA@ERROR_RXACT_COMMIT_FAILURE?$AA@ 004d9b30     ntecode.obj
 0003:00003b4c       ??_C@_0BK@OMPN@ERROR_RXACT_INVALID_STATE?$AA@ 004d9b4c     ntecode.obj
 0003:00003b68       ??_C@_0BJ@FHDC@ERROR_CANNOT_IMPERSONATE?$AA@ 004d9b68     ntecode.obj
 0003:00003b84       ??_C@_0BJ@MKMN@ERROR_INVALID_LOGON_TYPE?$AA@ 004d9b84     ntecode.obj
 0003:00003ba0       ??_C@_0BO@CIBC@ERROR_LOGON_SESSION_COLLISION?$AA@ 004d9ba0     ntecode.obj
 0003:00003bc0       ??_C@_0BO@MNLC@ERROR_BAD_LOGON_SESSION_STATE?$AA@ 004d9bc0     ntecode.obj
 0003:00003be0       ??_C@_0BG@MMCK@ERROR_NO_SUCH_PACKAGE?$AA@ 004d9be0     ntecode.obj
 0003:00003bf8       ??_C@_0BL@CNFF@ERROR_LOGON_SESSION_EXISTS?$AA@ 004d9bf8     ntecode.obj
 0003:00003c14       ??_C@_0BI@ILKF@ERROR_NOT_LOGON_PROCESS?$AA@ 004d9c14     ntecode.obj
 0003:00003c2c       ??_C@_0BM@CNPI@ERROR_BAD_DESCRIPTOR_FORMAT?$AA@ 004d9c2c     ntecode.obj
 0003:00003c48       ??_C@_0BJ@HBLI@ERROR_GENERIC_NOT_MAPPED?$AA@ 004d9c48     ntecode.obj
 0003:00003c64       ??_C@_0BF@MHFG@ERROR_INTERNAL_ERROR?$AA@ 004d9c64     ntecode.obj
 0003:00003c7c       ??_C@_0BN@MLJJ@ERROR_INTERNAL_DB_CORRUPTION?$AA@ 004d9c7c     ntecode.obj
 0003:00003c9c       ??_C@_0BM@IION@ERROR_DOMAIN_LIMIT_EXCEEDED?$AA@ 004d9c9c     ntecode.obj
 0003:00003cb8       ??_C@_0BE@IMPA@ERROR_DOMAIN_EXISTS?$AA@ 004d9cb8     ntecode.obj
 0003:00003ccc       ??_C@_0BF@GGFE@ERROR_NO_SUCH_DOMAIN?$AA@ 004d9ccc     ntecode.obj
 0003:00003ce4       ??_C@_0BK@LENE@ERROR_INVALID_DOMAIN_ROLE?$AA@ 004d9ce4     ntecode.obj
 0003:00003d00       ??_C@_0BL@MGCH@ERROR_INVALID_DOMAIN_STATE?$AA@ 004d9d00     ntecode.obj
 0003:00003d1c       ??_C@_0BL@JIBH@ERROR_INVALID_SERVER_STATE?$AA@ 004d9d1c     ntecode.obj
 0003:00003d38       ??_C@_0BO@NNFI@ERROR_CANT_ACCESS_DOMAIN_INFO?$AA@ 004d9d38     ntecode.obj
 0003:00003d58       ??_C@_0BM@OFNI@ERROR_NO_SECURITY_ON_OBJECT?$AA@ 004d9d58     ntecode.obj
 0003:00003d74       ??_C@_0BF@PBGJ@ERROR_BAD_TOKEN_TYPE?$AA@ 004d9d74     ntecode.obj
 0003:00003d8c       ??_C@_0BL@MBFB@ERROR_BAD_VALIDATION_CLASS?$AA@ 004d9d8c     ntecode.obj
 0003:00003da8       ??_C@_0BK@FAOO@ERROR_CANT_OPEN_ANONYMOUS?$AA@ 004d9da8     ntecode.obj
 0003:00003dc4       ??_C@_0BO@EICJ@ERROR_BAD_IMPERSONATION_LEVEL?$AA@ 004d9dc4     ntecode.obj
 0003:00003de4       ??_C@_0BP@NLFE@ERROR_INVALID_GROUP_ATTRIBUTES?$AA@ 004d9de4     ntecode.obj
 0003:00003e04       ??_C@_0BO@JJNC@ERROR_ALLOTTED_SPACE_EXCEEDED?$AA@ 004d9e04     ntecode.obj
 0003:00003e24       ??_C@_0BL@PBMD@ERROR_INVALID_ID_AUTHORITY?$AA@ 004d9e24     ntecode.obj
 0003:00003e40       ??_C@_0BK@OADD@ERROR_SERVER_NOT_DISABLED?$AA@ 004d9e40     ntecode.obj
 0003:00003e5c       ??_C@_0BG@BHMN@ERROR_SERVER_DISABLED?$AA@ 004d9e5c     ntecode.obj
 0003:00003e74       ??_C@_0BK@NKOB@ERROR_BAD_INHERITANCE_ACL?$AA@ 004d9e74     ntecode.obj
 0003:00003e90       ??_C@_0BN@JBMB@ERROR_INVALID_SECURITY_DESCR?$AA@ 004d9e90     ntecode.obj
 0003:00003eb0       ??_C@_0BC@KKKB@ERROR_INVALID_SID?$AA@ 004d9eb0     ntecode.obj
 0003:00003ec4       ??_C@_0BC@ODFP@ERROR_INVALID_ACL?$AA@ 004d9ec4     ntecode.obj
 0003:00003ed8       ??_C@_0BM@NNMN@ERROR_INVALID_SUB_AUTHORITY?$AA@ 004d9ed8     ntecode.obj
 0003:00003ef4       ??_C@_0BG@FPAN@ERROR_LUIDS_EXHAUSTED?$AA@ 004d9ef4     ntecode.obj
 0003:00003f0c       ??_C@_0BP@MJFC@ERROR_TOO_MANY_LUIDS_REQUESTED?$AA@ 004d9f0c     ntecode.obj
 0003:00003f2c       ??_C@_0BC@IDIK@ERROR_NONE_MAPPED?$AA@ 004d9f2c     ntecode.obj
 0003:00003f40       ??_C@_0BH@JPEA@ERROR_ACCOUNT_DISABLED?$AA@ 004d9f40     ntecode.obj
 0003:00003f58       ??_C@_0BH@OHHO@ERROR_PASSWORD_EXPIRED?$AA@ 004d9f58     ntecode.obj
 0003:00003f70       ??_C@_0BK@PHPA@ERROR_INVALID_WORKSTATION?$AA@ 004d9f70     ntecode.obj
 0003:00003f8c       ??_C@_0BK@MHFE@ERROR_INVALID_LOGON_HOURS?$AA@ 004d9f8c     ntecode.obj
 0003:00003fa8       ??_C@_0BK@EOPD@ERROR_ACCOUNT_RESTRICTION?$AA@ 004d9fa8     ntecode.obj
 0003:00003fc4       ??_C@_0BE@GHFM@ERROR_LOGON_FAILURE?$AA@ 004d9fc4     ntecode.obj
 0003:00003fd8       ??_C@_0BL@BEC@ERROR_PASSWORD_RESTRICTION?$AA@ 004d9fd8     ntecode.obj
 0003:00003ff4       ??_C@_0BK@PKAH@ERROR_ILL_FORMED_PASSWORD?$AA@ 004d9ff4     ntecode.obj
 0003:00004010       ??_C@_0BF@NCPG@ERROR_WRONG_PASSWORD?$AA@ 004da010     ntecode.obj
 0003:00004028       ??_C@_0BB@CIM@ERROR_LAST_ADMIN?$AA@ 004da028     ntecode.obj
 0003:0000403c       ??_C@_0BK@FAKB@ERROR_MEMBER_NOT_IN_GROUP?$AA@ 004da03c     ntecode.obj
 0003:00004058       ??_C@_0BG@PEHA@ERROR_MEMBER_IN_GROUP?$AA@ 004da058     ntecode.obj
 0003:00004070       ??_C@_0BE@LCKB@ERROR_NO_SUCH_GROUP?$AA@ 004da070     ntecode.obj
 0003:00004084       ??_C@_0BD@CDHH@ERROR_GROUP_EXISTS?$AA@ 004da084     ntecode.obj
 0003:00004098       ??_C@_0BD@JBOM@ERROR_NO_SUCH_USER?$AA@ 004da098     ntecode.obj
 0003:000040ac       ??_C@_0BC@PBAL@ERROR_USER_EXISTS?$AA@ 004da0ac     ntecode.obj
 0003:000040c0       ??_C@_0BL@KOHD@ERROR_INVALID_ACCOUNT_NAME?$AA@ 004da0c0     ntecode.obj
 0003:000040dc       ??_C@_0BJ@BEAI@ERROR_PRIVILEGE_NOT_HELD?$AA@ 004da0dc     ntecode.obj
 0003:000040f8       ??_C@_0BI@HCNP@ERROR_NO_SUCH_PRIVILEGE?$AA@ 004da0f8     ntecode.obj
 0003:00004110       ??_C@_0BM@DILD@ERROR_NO_SUCH_LOGON_SESSION?$AA@ 004da110     ntecode.obj
 0003:0000412c       ??_C@_0BH@NFPO@ERROR_NO_LOGON_SERVERS?$AA@ 004da12c     ntecode.obj
 0003:00004144       ??_C@_0BN@BIAK@ERROR_CANT_DISABLE_MANDATORY?$AA@ 004da144     ntecode.obj
 0003:00004164       ??_C@_0BN@CAJD@ERROR_NO_IMPERSONATION_TOKEN?$AA@ 004da164     ntecode.obj
 0003:00004184       ??_C@_0BM@ILN@ERROR_INVALID_PRIMARY_GROUP?$AA@ 004da184     ntecode.obj
 0003:000041a0       ??_C@_0BE@DOD@ERROR_INVALID_OWNER?$AA@ 004da1a0     ntecode.obj
 0003:000041b4       ??_C@_0BI@OLJE@ERROR_REVISION_MISMATCH?$AA@ 004da1b4     ntecode.obj
 0003:000041cc       ??_C@_0BH@KGGE@ERROR_UNKNOWN_REVISION?$AA@ 004da1cc     ntecode.obj
 0003:000041e4       ??_C@_0BH@KBCA@ERROR_NULL_LM_PASSWORD?$AA@ 004da1e4     ntecode.obj
 0003:000041fc       ??_C@_0BN@DEKC@ERROR_LOCAL_USER_SESSION_KEY?$AA@ 004da1fc     ntecode.obj
 0003:0000421c       ??_C@_0BM@CPBI@ERROR_NO_QUOTAS_FOR_ACCOUNT?$AA@ 004da21c     ntecode.obj
 0003:00004238       ??_C@_0BG@EGOO@ERROR_SOME_NOT_MAPPED?$AA@ 004da238     ntecode.obj
 0003:00004250       ??_C@_0BH@JKJL@ERROR_NOT_ALL_ASSIGNED?$AA@ 004da250     ntecode.obj
 0003:00004268       ??_C@_0BB@KHHO@ERROR_NO_NETWORK?$AA@ 004da268     ntecode.obj
 0003:0000427c       ??_C@_0BF@MKND@ERROR_EXTENDED_ERROR?$AA@ 004da27c     ntecode.obj
 0003:00004294       ??_C@_0BE@BJDN@ERROR_NOT_CONTAINER?$AA@ 004da294     ntecode.obj
 0003:000042a8       ??_C@_0BC@OFPL@ERROR_BAD_PROFILE?$AA@ 004da2a8     ntecode.obj
 0003:000042bc       ??_C@_0BK@MNOM@ERROR_CANNOT_OPEN_PROFILE?$AA@ 004da2bc     ntecode.obj
 0003:000042d8       ??_C@_0BD@PIJL@ERROR_BAD_PROVIDER?$AA@ 004da2d8     ntecode.obj
 0003:000042ec       ??_C@_0BJ@HFGI@ERROR_NO_NET_OR_BAD_PATH?$AA@ 004da2ec     ntecode.obj
 0003:00004308       ??_C@_0CA@PLJ@ERROR_DEVICE_ALREADY_REMEMBERED?$AA@ 004da308     ntecode.obj
 0003:00004328       ??_C@_0BJ@CMAP@ERROR_CONNECTION_UNAVAIL?$AA@ 004da328     ntecode.obj
 0003:00004344       ??_C@_0BB@IMIJ@ERROR_BAD_DEVICE?$AA@ 004da344     ntecode.obj
 0003:00004358       ??_C@_0BA@HCCP@ERROR_IO_DEVICE?$AA@ 004da358     ntecode.obj
 0003:00004368       ??_C@_0BO@JFJO@ERROR_NO_SHUTDOWN_IN_PROGRESS?$AA@ 004da368     ntecode.obj
 0003:00004388       ??_C@_0BL@JJHF@ERROR_SHUTDOWN_IN_PROGRESS?$AA@ 004da388     ntecode.obj
 0003:000043a4       ??_C@_0BG@BANG@ERROR_DLL_INIT_FAILED?$AA@ 004da3a4     ntecode.obj
 0003:000043bc       ??_C@_0BN@FMBC@ERROR_NO_UNICODE_TRANSLATION?$AA@ 004da3bc     ntecode.obj
 0003:000043dc       ??_C@_0BN@NHMJ@ERROR_UNABLE_TO_UNLOAD_MEDIA?$AA@ 004da3dc     ntecode.obj
 0003:000043fc       ??_C@_0BL@PHGG@ERROR_UNABLE_TO_LOCK_MEDIA?$AA@ 004da3fc     ntecode.obj
 0003:00004418       ??_C@_0BN@LCFA@ERROR_DEVICE_NOT_PARTITIONED?$AA@ 004da418     ntecode.obj
 0003:00004438       ??_C@_0BL@PCDH@ERROR_INVALID_BLOCK_LENGTH?$AA@ 004da438     ntecode.obj
 0003:00004454       ??_C@_0BI@FEOB@ERROR_PARTITION_FAILURE?$AA@ 004da454     ntecode.obj
 0003:0000446c       ??_C@_0BH@KLGJ@ERROR_NO_DATA_DETECTED?$AA@ 004da46c     ntecode.obj
 0003:00004484       ??_C@_0BH@KJBA@ERROR_SETMARK_DETECTED?$AA@ 004da484     ntecode.obj
 0003:0000449c       ??_C@_0BI@DNLN@ERROR_FILEMARK_DETECTED?$AA@ 004da49c     ntecode.obj
 0003:000044b4       ??_C@_0BD@OPHK@ERROR_END_OF_MEDIA?$AA@ 004da4b4     ntecode.obj
 0003:000044c8       ??_C@_0BG@LPFI@ERROR_NOTIFY_ENUM_DIR?$AA@ 004da4c8     ntecode.obj
 0003:000044e0       ??_C@_0BN@HHND@ERROR_CHILD_MUST_BE_VOLATILE?$AA@ 004da4e0     ntecode.obj
 0003:00004500       ??_C@_0BH@KBIF@ERROR_KEY_HAS_CHILDREN?$AA@ 004da500     ntecode.obj
 0003:00004518       ??_C@_0BD@IMKL@ERROR_NO_LOG_SPACE?$AA@ 004da518     ntecode.obj
 0003:0000452c       ??_C@_0BC@FFKF@ERROR_KEY_DELETED?$AA@ 004da52c     ntecode.obj
 0003:00004540       ??_C@_0BI@MNBI@ERROR_NOT_REGISTRY_FILE?$AA@ 004da540     ntecode.obj
 0003:00004558       ??_C@_0BJ@OMON@ERROR_REGISTRY_IO_FAILED?$AA@ 004da558     ntecode.obj
 0003:00004574       ??_C@_0BH@KIPK@ERROR_REGISTRY_CORRUPT?$AA@ 004da574     ntecode.obj
 0003:0000458c       ??_C@_0BJ@NCAA@ERROR_REGISTRY_RECOVERED?$AA@ 004da58c     ntecode.obj
 0003:000045a8       ??_C@_0BA@FEAL@ERROR_CANTWRITE?$AA@ 004da5a8     ntecode.obj
 0003:000045b8       ??_C@_0P@DDMP@ERROR_CANTREAD?$AA@ 004da5b8     ntecode.obj
 0003:000045c8       ??_C@_0P@JMHO@ERROR_CANTOPEN?$AA@ 004da5c8     ntecode.obj
 0003:000045d8       ??_C@_0N@JGPN@ERROR_BADKEY?$AA@ 004da5d8     ntecode.obj
 0003:000045e8       ??_C@_0M@ODNI@ERROR_BADDB?$AA@ 004da5e8     ntecode.obj
 0003:000045f4       ??_C@_0P@KOAI@ERROR_NO_TOKEN?$AA@ 004da5f4     ntecode.obj
 0003:00004604       ??_C@_0BG@HGGG@ERROR_FULLSCREEN_MODE?$AA@ 004da604     ntecode.obj
 0003:0000461c       ??_C@_0BD@BGID@ERROR_FILE_INVALID?$AA@ 004da61c     ntecode.obj
 0003:00004630       ??_C@_0BK@KJAO@ERROR_UNRECOGNIZED_VOLUME?$AA@ 004da630     ntecode.obj
 0003:0000464c       ??_C@_0BE@BLLN@ERROR_INVALID_FLAGS?$AA@ 004da64c     ntecode.obj
 0003:00004660       ??_C@_0BH@FHME@ERROR_CAN_NOT_COMPLETE?$AA@ 004da660     ntecode.obj
 0003:00004678       ??_C@_0BG@LAMP@ERROR_INVALID_MESSAGE?$AA@ 004da678     ntecode.obj
 0003:00004690       ??_C@_0BF@DNFM@ERROR_STACK_OVERFLOW?$AA@ 004da690     ntecode.obj
 0003:000046a8       ??_C@_0BA@LECO@ERROR_SWAPERROR?$AA@ 004da6a8     ntecode.obj
 0003:000046b8       ??_C@_0P@GFCL@ERROR_NOACCESS?$AA@ 004da6b8     ntecode.obj
 0003:000046c8       ??_C@_0BB@JMJN@ERROR_IO_PENDING?$AA@ 004da6c8     ntecode.obj
 0003:000046dc       ??_C@_0BE@BINI@ERROR_IO_INCOMPLETE?$AA@ 004da6dc     ntecode.obj
 0003:000046f0       ??_C@_0BI@IPOF@ERROR_OPERATION_ABORTED?$AA@ 004da6f0     ntecode.obj
 0003:00004708       ??_C@_0BH@FKCL@ERROR_EA_ACCESS_DENIED?$AA@ 004da708     ntecode.obj
 0003:00004720       ??_C@_0BF@DPPO@ERROR_PIPE_LISTENING?$AA@ 004da720     ntecode.obj
 0003:00004738       ??_C@_0BF@EHNM@ERROR_PIPE_CONNECTED?$AA@ 004da738     ntecode.obj
 0003:00004750       ??_C@_0BK@OGFM@ERROR_ARITHMETIC_OVERFLOW?$AA@ 004da750     ntecode.obj
 0003:0000476c       ??_C@_0BG@ICDC@ERROR_INVALID_ADDRESS?$AA@ 004da76c     ntecode.obj
 0003:00004784       ??_C@_0BH@KJPA@ERROR_MR_MID_NOT_FOUND?$AA@ 004da784     ntecode.obj
 0003:0000479c       ??_C@_0BA@CCBO@ERROR_NOT_OWNER?$AA@ 004da79c     ntecode.obj
 0003:000047ac       ??_C@_0BI@JNKP@ERROR_EAS_NOT_SUPPORTED?$AA@ 004da7ac     ntecode.obj
 0003:000047c4       ??_C@_0BI@CNFF@ERROR_INVALID_EA_HANDLE?$AA@ 004da7c4     ntecode.obj
 0003:000047dc       ??_C@_0BE@CNKC@ERROR_EA_TABLE_FULL?$AA@ 004da7dc     ntecode.obj
 0003:000047f0       ??_C@_0BG@NEBI@ERROR_EA_FILE_CORRUPT?$AA@ 004da7f0     ntecode.obj
 0003:00004808       ??_C@_0BA@CDLE@ERROR_DIRECTORY?$AA@ 004da808     ntecode.obj
 0003:00004818       ??_C@_0BL@LFC@ERROR_EA_LIST_INCONSISTENT?$AA@ 004da818     ntecode.obj
 0003:00004834       ??_C@_0BG@EEPH@ERROR_INVALID_EA_NAME?$AA@ 004da834     ntecode.obj
 0003:0000484c       ??_C@_0BG@LKHH@ERROR_VC_DISCONNECTED?$AA@ 004da84c     ntecode.obj
 0003:00004864       ??_C@_0BA@GDGE@ERROR_MORE_DATA?$AA@ 004da864     ntecode.obj
 0003:00004874       ??_C@_0BJ@DONP@ERROR_PIPE_NOT_CONNECTED?$AA@ 004da874     ntecode.obj
 0003:00004890       ??_C@_0O@DPML@ERROR_NO_DATA?$AA@ 004da890     ntecode.obj
 0003:000048a0       ??_C@_0BA@FJEC@ERROR_PIPE_BUSY?$AA@ 004da8a0     ntecode.obj
 0003:000048b0       ??_C@_0P@FIDK@ERROR_BAD_PIPE?$AA@ 004da8b0     ntecode.obj
 0003:000048c0       ??_C@_0BK@NHDP@ERROR_NESTING_NOT_ALLOWED?$AA@ 004da8c0     ntecode.obj
 0003:000048dc       ??_C@_0BH@LMJP@ERROR_TOO_MANY_MODULES?$AA@ 004da8dc     ntecode.obj
 0003:000048f4       ??_C@_0N@IAHE@ERROR_LOCKED?$AA@ 004da8f4     ntecode.obj
 0003:00004904       ??_C@_0BI@BLBK@ERROR_THREAD_1_INACTIVE?$AA@ 004da904     ntecode.obj
 0003:0000491c       ??_C@_0BM@GOBL@ERROR_INVALID_SIGNAL_NUMBER?$AA@ 004da91c     ntecode.obj
 0003:00004938       ??_C@_0BO@KDDO@ERROR_META_EXPANSION_TOO_LONG?$AA@ 004da938     ntecode.obj
 0003:00004958       ??_C@_0BJ@HJAO@ERROR_RING2_STACK_IN_USE?$AA@ 004da958     ntecode.obj
 0003:00004974       ??_C@_0BL@BEPG@ERROR_FILENAME_EXCED_RANGE?$AA@ 004da974     ntecode.obj
 0003:00004990       ??_C@_0BF@JGMG@ERROR_NO_SIGNAL_SENT?$AA@ 004da990     ntecode.obj
 0003:000049a8       ??_C@_0BH@OGDG@ERROR_ENVVAR_NOT_FOUND?$AA@ 004da9a8     ntecode.obj
 0003:000049c0       ??_C@_0BN@JKLJ@ERROR_INFLOOP_IN_RELOC_CHAIN?$AA@ 004da9c0     ntecode.obj
 0003:000049e0       ??_C@_0BP@JNAK@ERROR_RELOC_CHAIN_XEEDS_SEGLIM?$AA@ 004da9e0     ntecode.obj
 0003:00004a00       ??_C@_0BP@JKIL@ERROR_RING2SEG_MUST_BE_MOVABLE?$AA@ 004daa00     ntecode.obj
 0003:00004a20       ??_C@_0BO@IEIC@ERROR_AUTODATASEG_EXCEEDS_64k?$AA@ 004daa20     ntecode.obj
 0003:00004a40       ??_C@_0BF@MGDK@ERROR_INVALID_SEGDPL?$AA@ 004daa40     ntecode.obj
 0003:00004a58       ??_C@_0BH@ILNL@ERROR_IOPL_NOT_ENABLED?$AA@ 004daa58     ntecode.obj
 0003:00004a70       ??_C@_0CA@BIOG@ERROR_DYNLINK_FROM_INVALID_RING?$AA@ 004daa70     ntecode.obj
 0003:00004a90       ??_C@_0BL@OOLH@ERROR_INVALID_MINALLOCSIZE?$AA@ 004daa90     ntecode.obj
 0003:00004aac       ??_C@_0CA@LPCE@ERROR_ITERATED_DATA_EXCEEDS_64k?$AA@ 004daaac     ntecode.obj
 0003:00004acc       ??_C@_0BF@LONG@ERROR_BAD_EXE_FORMAT?$AA@ 004daacc     ntecode.obj
 0003:00004ae4       ??_C@_0BJ@IAJO@ERROR_EXE_MARKED_INVALID?$AA@ 004daae4     ntecode.obj
 0003:00004b00       ??_C@_0BM@GPCC@ERROR_INVALID_EXE_SIGNATURE?$AA@ 004dab00     ntecode.obj
 0003:00004b1c       ??_C@_0BJ@DFNF@ERROR_INVALID_MODULETYPE?$AA@ 004dab1c     ntecode.obj
 0003:00004b38       ??_C@_0BH@MDD@ERROR_INVALID_STACKSEG?$AA@ 004dab38     ntecode.obj
 0003:00004b50       ??_C@_0BP@GCBC@ERROR_INVALID_STARTING_CODESEG?$AA@ 004dab50     ntecode.obj
 0003:00004b70       ??_C@_0BE@BIJF@ERROR_SEM_NOT_FOUND?$AA@ 004dab70     ntecode.obj
 0003:00004b84       ??_C@_0BK@EFNB@ERROR_INVALID_FLAG_NUMBER?$AA@ 004dab84     ntecode.obj
 0003:00004ba0       ??_C@_0BF@FLPL@ERROR_ALREADY_EXISTS?$AA@ 004daba0     ntecode.obj
 0003:00004bb8       ??_C@_0BG@KPDI@ERROR_INVALID_ORDINAL?$AA@ 004dabb8     ntecode.obj
 0003:00004bd0       ??_C@_0BN@GCMG@ERROR_INVALID_SEGMENT_NUMBER?$AA@ 004dabd0     ntecode.obj
 0003:00004bf0       ??_C@_0CB@IIEJ@ERROR_ATOMIC_LOCKS_NOT_SUPPORTED@ 004dabf0     ntecode.obj
 0003:00004c14       ??_C@_0BH@FJMA@ERROR_CANCEL_VIOLATION?$AA@ 004dac14     ntecode.obj
 0003:00004c2c       ??_C@_0L@KJCH@ERROR_BUSY?$AA@ 004dac2c     ntecode.obj
 0003:00004c38       ??_C@_0BC@MOKI@ERROR_LOCK_FAILED?$AA@ 004dac38     ntecode.obj
 0003:00004c4c       ??_C@_0BI@GAMP@ERROR_MAX_THRDS_REACHED?$AA@ 004dac4c     ntecode.obj
 0003:00004c64       ??_C@_0BF@MGAG@ERROR_SIGNAL_PENDING?$AA@ 004dac64     ntecode.obj
 0003:00004c7c       ??_C@_0BD@EBAP@ERROR_BAD_PATHNAME?$AA@ 004dac7c     ntecode.obj
 0003:00004c90       ??_C@_0BE@HEMA@ERROR_BAD_ARGUMENTS?$AA@ 004dac90     ntecode.obj
 0003:00004ca4       ??_C@_0BI@GGDG@ERROR_BAD_THREADID_ADDR?$AA@ 004daca4     ntecode.obj
 0003:00004cbc       ??_C@_0BB@KAJF@ERROR_NOT_LOCKED?$AA@ 004dacbc     ntecode.obj
 0003:00004cd0       ??_C@_0BA@HPDG@ERROR_DISCARDED?$AA@ 004dacd0     ntecode.obj
 0003:00004ce0       ??_C@_0BF@IOJE@ERROR_SIGNAL_REFUSED?$AA@ 004dace0     ntecode.obj
 0003:00004cf8       ??_C@_0BE@KIDG@ERROR_TOO_MANY_TCBS?$AA@ 004dacf8     ntecode.obj
 0003:00004d0c       ??_C@_0BF@BJKB@ERROR_LABEL_TOO_LONG?$AA@ 004dad0c     ntecode.obj
 0003:00004d24       ??_C@_0BK@GOME@ERROR_INVALID_LIST_FORMAT?$AA@ 004dad24     ntecode.obj
 0003:00004d40       ??_C@_0BK@HLAC@ERROR_TOO_MANY_MUXWAITERS?$AA@ 004dad40     ntecode.obj
 0003:00004d5c       ??_C@_0BK@EJME@ERROR_INVALID_EVENT_COUNT?$AA@ 004dad5c     ntecode.obj
 0003:00004d78       ??_C@_0BD@JFOC@ERROR_SYSTEM_TRACE?$AA@ 004dad78     ntecode.obj
 0003:00004d8c       ??_C@_0BG@JNEG@ERROR_IS_SUBST_TARGET?$AA@ 004dad8c     ntecode.obj
 0003:00004da4       ??_C@_0BA@MMEB@ERROR_PATH_BUSY?$AA@ 004dada4     ntecode.obj
 0003:00004db4       ??_C@_0BD@NEHB@ERROR_IS_JOIN_PATH?$AA@ 004dadb4     ntecode.obj
 0003:00004dc8       ??_C@_0BE@GJAL@ERROR_IS_SUBST_PATH?$AA@ 004dadc8     ntecode.obj
 0003:00004ddc       ??_C@_0BE@LGLF@ERROR_DIR_NOT_EMPTY?$AA@ 004daddc     ntecode.obj
 0003:00004df0       ??_C@_0BD@JPCL@ERROR_DIR_NOT_ROOT?$AA@ 004dadf0     ntecode.obj
 0003:00004e04       ??_C@_0BB@GMMO@ERROR_SAME_DRIVE?$AA@ 004dae04     ntecode.obj
 0003:00004e18       ??_C@_0BB@GGFB@ERROR_BUSY_DRIVE?$AA@ 004dae18     ntecode.obj
 0003:00004e2c       ??_C@_0BE@EKDO@ERROR_SUBST_TO_JOIN?$AA@ 004dae2c     ntecode.obj
 0003:00004e40       ??_C@_0BE@BIAK@ERROR_JOIN_TO_SUBST?$AA@ 004dae40     ntecode.obj
 0003:00004e54       ??_C@_0BF@LHJK@ERROR_SUBST_TO_SUBST?$AA@ 004dae54     ntecode.obj
 0003:00004e6c       ??_C@_0BD@NKFP@ERROR_JOIN_TO_JOIN?$AA@ 004dae6c     ntecode.obj
 0003:00004e80       ??_C@_0BC@JMCC@ERROR_NOT_SUBSTED?$AA@ 004dae80     ntecode.obj
 0003:00004e94       ??_C@_0BB@KHCN@ERROR_NOT_JOINED?$AA@ 004dae94     ntecode.obj
 0003:00004ea8       ??_C@_0BB@HOGD@ERROR_IS_SUBSTED?$AA@ 004daea8     ntecode.obj
 0003:00004ebc       ??_C@_0BA@OGKP@ERROR_IS_JOINED?$AA@ 004daebc     ntecode.obj
 0003:00004ecc       ??_C@_0BF@MHPK@ERROR_IS_JOIN_TARGET?$AA@ 004daecc     ntecode.obj
 0003:00004ee4       ??_C@_0BF@MHEA@ERROR_SEEK_ON_DEVICE?$AA@ 004daee4     ntecode.obj
 0003:00004efc       ??_C@_0BE@NGMH@ERROR_NEGATIVE_SEEK?$AA@ 004daefc     ntecode.obj
 0003:00004f10       ??_C@_0BL@NMCA@ERROR_DIRECT_ACCESS_HANDLE?$AA@ 004daf10     ntecode.obj
 0003:00004f2c       ??_C@_0BJ@DGPF@ERROR_CHILD_NOT_COMPLETE?$AA@ 004daf2c     ntecode.obj
 0003:00004f48       ??_C@_0BH@OACN@ERROR_WAIT_NO_CHILDREN?$AA@ 004daf48     ntecode.obj
 0003:00004f60       ??_C@_0BF@LDMP@ERROR_PROC_NOT_FOUND?$AA@ 004daf60     ntecode.obj
 0003:00004f78       ??_C@_0BE@GIDI@ERROR_MOD_NOT_FOUND?$AA@ 004daf78     ntecode.obj
 0003:00004f8c       ??_C@_0BG@NCEK@ERROR_NO_VOLUME_LABEL?$AA@ 004daf8c     ntecode.obj
 0003:00004fa4       ??_C@_0BE@EPGM@ERROR_INVALID_LEVEL?$AA@ 004dafa4     ntecode.obj
 0003:00004fb8       ??_C@_0BD@KOEB@ERROR_INVALID_NAME?$AA@ 004dafb8     ntecode.obj
 0003:00004fcc       ??_C@_0BK@FBFE@ERROR_INSUFFICIENT_BUFFER?$AA@ 004dafcc     ntecode.obj
 0003:00004fe8       ??_C@_0BC@LCEG@ERROR_SEM_TIMEOUT?$AA@ 004dafe8     ntecode.obj
 0003:00004ffc       ??_C@_0BL@DJCC@ERROR_CALL_NOT_IMPLEMENTED?$AA@ 004daffc     ntecode.obj
 0003:00005018       ??_C@_0BH@MPKM@ERROR_BAD_DRIVER_LEVEL?$AA@ 004db018     ntecode.obj
 0003:00005030       ??_C@_0BM@LDJM@ERROR_INVALID_VERIFY_SWITCH?$AA@ 004db030     ntecode.obj
 0003:0000504c       ??_C@_0BH@OFKF@ERROR_INVALID_CATEGORY?$AA@ 004db04c     ntecode.obj
 0003:00005064       ??_C@_0BM@EHIF@ERROR_INVALID_TARGET_HANDLE?$AA@ 004db064     ntecode.obj
 0003:00005080       ??_C@_0BN@CNBA@ERROR_NO_MORE_SEARCH_HANDLES?$AA@ 004db080     ntecode.obj
 0003:000050a0       ??_C@_0BA@FFME@ERROR_DISK_FULL?$AA@ 004db0a0     ntecode.obj
 0003:000050b0       ??_C@_06GANK@EDQUOT?$AA@   004db0b0     ntecode.obj
 0003:000050b8       ??_C@_0BG@CENP@ERROR_BUFFER_OVERFLOW?$AA@ 004db0b8     ntecode.obj
 0003:000050d0       ??_C@_0BC@DJGF@ERROR_OPEN_FAILED?$AA@ 004db0d0     ntecode.obj
 0003:000050e4       ??_C@_0BC@KOIG@ERROR_BROKEN_PIPE?$AA@ 004db0e4     ntecode.obj
 0003:000050f8       ??_C@_0BD@BCBD@ERROR_DRIVE_LOCKED?$AA@ 004db0f8     ntecode.obj
 0003:0000510c       ??_C@_0BC@PFIJ@ERROR_DISK_CHANGE?$AA@ 004db10c     ntecode.obj
 0003:00005120       ??_C@_0BF@DDJE@ERROR_SEM_USER_LIMIT?$AA@ 004db120     ntecode.obj
 0003:00005138       ??_C@_0BF@GPG@ERROR_SEM_OWNER_DIED?$AA@ 004db138     ntecode.obj
 0003:00005150       ??_C@_0CA@CHBG@ERROR_INVALID_AT_INTERRUPT_TIME?$AA@ 004db150     ntecode.obj
 0003:00005170       ??_C@_0BM@MLEA@ERROR_TOO_MANY_SEM_REQUESTS?$AA@ 004db170     ntecode.obj
 0003:0000518c       ??_C@_0BB@DNJG@ERROR_SEM_IS_SET?$AA@ 004db18c     ntecode.obj
 0003:000051a0       ??_C@_0BN@KBEN@ERROR_EXCL_SEM_ALREADY_OWNED?$AA@ 004db1a0     ntecode.obj
 0003:000051c0       ??_C@_0BK@PCFG@ERROR_TOO_MANY_SEMAPHORES?$AA@ 004db1c0     ntecode.obj
 0003:000051dc       ??_C@_0BE@MAEM@ERROR_NO_PROC_SLOTS?$AA@ 004db1dc     ntecode.obj
 0003:000051f0       ??_C@_0BG@IADA@ERROR_NET_WRITE_FAULT?$AA@ 004db1f0     ntecode.obj
 0003:00005208       ??_C@_0BI@KAKI@ERROR_INVALID_PARAMETER?$AA@ 004db208     ntecode.obj
 0003:00005220       ??_C@_0BH@DNPH@ERROR_INVALID_PASSWORD?$AA@ 004db220     ntecode.obj
 0003:00005238       ??_C@_0BH@NADP@ERROR_ALREADY_ASSIGNED?$AA@ 004db238     ntecode.obj
 0003:00005250       ??_C@_08BLM@EALREADY?$AA@  004db250     ntecode.obj
 0003:0000525c       ??_C@_0BI@LFNJ@ERROR_OUT_OF_STRUCTURES?$AA@ 004db25c     ntecode.obj
 0003:00005274       ??_C@_0P@ICNA@ERROR_FAIL_I24?$AA@ 004db274     ntecode.obj
 0003:00005284       ??_C@_0BC@MMGO@ERROR_CANNOT_MAKE?$AA@ 004db284     ntecode.obj
 0003:00005298       ??_C@_0BC@FBPM@ERROR_FILE_EXISTS?$AA@ 004db298     ntecode.obj
 0003:000052ac       ??_C@_0BD@LDB@ERROR_REDIR_PAUSED?$AA@ 004db2ac     ntecode.obj
 0003:000052c0       ??_C@_0BE@IAPN@ERROR_REQ_NOT_ACCEP?$AA@ 004db2c0     ntecode.obj
 0003:000052d4       ??_C@_0BF@MFJC@ERROR_SHARING_PAUSED?$AA@ 004db2d4     ntecode.obj
 0003:000052ec       ??_C@_0BE@MCPM@ERROR_TOO_MANY_SESS?$AA@ 004db2ec     ntecode.obj
 0003:00005300       ??_C@_0BF@MMLC@ERROR_TOO_MANY_NAMES?$AA@ 004db300     ntecode.obj
 0003:00005318       ??_C@_0BD@OKIM@ERROR_BAD_NET_NAME?$AA@ 004db318     ntecode.obj
 0003:0000532c       ??_C@_0BD@HNC@ERROR_BAD_DEV_TYPE?$AA@ 004db32c     ntecode.obj
 0003:00005340       ??_C@_0BM@KLMN@ERROR_NETWORK_ACCESS_DENIED?$AA@ 004db340     ntecode.obj
 0003:0000535c       ??_C@_0BG@DFNH@ERROR_NETNAME_DELETED?$AA@ 004db35c     ntecode.obj
 0003:00005374       ??_C@_0BG@NGKI@ERROR_PRINT_CANCELLED?$AA@ 004db374     ntecode.obj
 0003:0000538c       ??_C@_0BF@JJHB@ERROR_NO_SPOOL_SPACE?$AA@ 004db38c     ntecode.obj
 0003:000053a4       ??_C@_0BC@OGNN@ERROR_PRINTQ_FULL?$AA@ 004db3a4     ntecode.obj
 0003:000053b8       ??_C@_0BD@OHCP@ERROR_BAD_REM_ADAP?$AA@ 004db3b8     ntecode.obj
 0003:000053cc       ??_C@_0BE@BNKH@ERROR_UNEXP_NET_ERR?$AA@ 004db3cc     ntecode.obj
 0003:000053e0       ??_C@_0BD@EJJG@ERROR_BAD_NET_RESP?$AA@ 004db3e0     ntecode.obj
 0003:000053f4       ??_C@_0BD@PKOE@ERROR_ADAP_HDW_ERR?$AA@ 004db3f4     ntecode.obj
 0003:00005408       ??_C@_0BE@MJE@ERROR_TOO_MANY_CMDS?$AA@ 004db408     ntecode.obj
 0003:0000541c       ??_C@_0BE@PHKA@ERROR_DEV_NOT_EXIST?$AA@ 004db41c     ntecode.obj
 0003:00005430       ??_C@_0BD@CIKJ@ERROR_NETWORK_BUSY?$AA@ 004db430     ntecode.obj
 0003:00005444       ??_C@_0BC@FPPF@ERROR_BAD_NETPATH?$AA@ 004db444     ntecode.obj
 0003:00005458       ??_C@_0P@BEEG@ERROR_DUP_NAME?$AA@ 004db458     ntecode.obj
 0003:00005468       ??_C@_0BD@DHLJ@ERROR_REM_NOT_LIST?$AA@ 004db468     ntecode.obj
 0003:0000547c       ??_C@_0BE@NADH@ERROR_NOT_SUPPORTED?$AA@ 004db47c     ntecode.obj
 0003:00005490       ??_C@_0BH@BLHO@ERROR_HANDLE_DISK_FULL?$AA@ 004db490     ntecode.obj
 0003:000054a8       ??_C@_06CFPN@ENOLCK?$AA@   004db4a8     ntecode.obj
 0003:000054b0       ??_C@_0BB@LIBE@ERROR_HANDLE_EOF?$AA@ 004db4b0     ntecode.obj
 0003:000054c4       ??_C@_0N@BEIO@ENAMETOOLONG?$AA@ 004db4c4     ntecode.obj
 0003:000054d4       ??_C@_0BO@IIOE@ERROR_SHARING_BUFFER_EXCEEDED?$AA@ 004db4d4     ntecode.obj
 0003:000054f4       ??_C@_07NBHL@EDEADLK?$AA@  004db4f4     ntecode.obj
 0003:000054fc       ??_C@_0BB@NPMH@ERROR_WRONG_DISK?$AA@ 004db4fc     ntecode.obj
 0003:00005510       ??_C@_06GCG@ERANGE?$AA@    004db510     ntecode.obj
 0003:00005518       ??_C@_0BF@CCHH@ERROR_LOCK_VIOLATION?$AA@ 004db518     ntecode.obj
 0003:00005530       ??_C@_04KGHI@EDOM?$AA@     004db530     ntecode.obj
 0003:00005538       ??_C@_0BI@PJDD@ERROR_SHARING_VIOLATION?$AA@ 004db538     ntecode.obj
 0003:00005550       ??_C@_05KEO@EPIPE?$AA@     004db550     ntecode.obj
 0003:00005558       ??_C@_0BC@BHDK@ERROR_GEN_FAILURE?$AA@ 004db558     ntecode.obj
 0003:0000556c       ??_C@_06EJHM@EMLINK?$AA@   004db56c     ntecode.obj
 0003:00005574       ??_C@_0BB@NHCA@ERROR_READ_FAULT?$AA@ 004db574     ntecode.obj
 0003:00005588       ??_C@_05OHMJ@EROFS?$AA@    004db588     ntecode.obj
 0003:00005590       ??_C@_0BC@JDJA@ERROR_WRITE_FAULT?$AA@ 004db590     ntecode.obj
 0003:000055a4       ??_C@_06GDON@ESPIPE?$AA@   004db5a4     ntecode.obj
 0003:000055ac       ??_C@_0BD@CEN@ERROR_OUT_OF_PAPER?$AA@ 004db5ac     ntecode.obj
 0003:000055c0       ??_C@_0BH@OJID@ERROR_SECTOR_NOT_FOUND?$AA@ 004db5c0     ntecode.obj
 0003:000055d8       ??_C@_05HKHE@EFBIG?$AA@    004db5d8     ntecode.obj
 0003:000055e0       ??_C@_0BD@GIO@ERROR_NOT_DOS_DISK?$AA@ 004db5e0     ntecode.obj
 0003:000055f4       ??_C@_0L@BJDG@ERROR_SEEK?$AA@ 004db5f4     ntecode.obj
 0003:00005600       ??_C@_06GDIA@ENOTTY?$AA@   004db600     ntecode.obj
 0003:00005608       ??_C@_0BB@HNHE@ERROR_BAD_LENGTH?$AA@ 004db608     ntecode.obj
 0003:0000561c       ??_C@_09CCHD@ERROR_CRC?$AA@ 004db61c     ntecode.obj
 0003:00005628       ??_C@_06EPLI@ENFILE?$AA@   004db628     ntecode.obj
 0003:00005630       ??_C@_0BC@FJGH@ERROR_BAD_COMMAND?$AA@ 004db630     ntecode.obj
 0003:00005644       ??_C@_0BA@INCL@ERROR_NOT_READY?$AA@ 004db644     ntecode.obj
 0003:00005654       ??_C@_06PABF@EISDIR?$AA@   004db654     ntecode.obj
 0003:0000565c       ??_C@_0P@JMPB@ERROR_BAD_UNIT?$AA@ 004db65c     ntecode.obj
 0003:0000566c       ??_C@_07OIDO@ENOTDIR?$AA@  004db66c     ntecode.obj
 0003:00005674       ??_C@_0BE@FLKJ@ERROR_NO_MORE_FILES?$AA@ 004db674     ntecode.obj
 0003:00005688       ??_C@_05NKEH@EXDEV?$AA@    004db688     ntecode.obj
 0003:00005690       ??_C@_0BG@CPAP@ERROR_NOT_SAME_DEVICE?$AA@ 004db690     ntecode.obj
 0003:000056a8       ??_C@_06LDOP@EEXIST?$AA@   004db6a8     ntecode.obj
 0003:000056b0       ??_C@_0BI@GJFL@ERROR_CURRENT_DIRECTORY?$AA@ 004db6b0     ntecode.obj
 0003:000056c8       ??_C@_05IACF@EBUSY?$AA@    004db6c8     ntecode.obj
 0003:000056d0       ??_C@_0BE@EBBO@ERROR_INVALID_DRIVE?$AA@ 004db6d0     ntecode.obj
 0003:000056e4       ??_C@_06DPLE@ENODEV?$AA@   004db6e4     ntecode.obj
 0003:000056ec       ??_C@_0BC@JCNA@ERROR_OUTOFMEMORY?$AA@ 004db6ec     ntecode.obj
 0003:00005700       ??_C@_0BD@KNHO@ERROR_INVALID_DATA?$AA@ 004db700     ntecode.obj
 0003:00005714       ??_C@_0BF@CDCL@ERROR_INVALID_ACCESS?$AA@ 004db714     ntecode.obj
 0003:0000572c       ??_C@_0BB@BFAJ@ERROR_BAD_FORMAT?$AA@ 004db72c     ntecode.obj
 0003:00005740       ??_C@_07INNB@ENOEXEC?$AA@  004db740     ntecode.obj
 0003:00005748       ??_C@_0BG@NCLL@ERROR_BAD_ENVIRONMENT?$AA@ 004db748     ntecode.obj
 0003:00005760       ??_C@_05EENK@E2BIG?$AA@    004db760     ntecode.obj
 0003:00005768       ??_C@_0BE@EAII@ERROR_INVALID_BLOCK?$AA@ 004db768     ntecode.obj
 0003:0000577c       ??_C@_0BI@GKDG@ERROR_NOT_ENOUGH_MEMORY?$AA@ 004db77c     ntecode.obj
 0003:00005794       ??_C@_06PPGG@ENOMEM?$AA@   004db794     ntecode.obj
 0003:0000579c       ??_C@_0BE@EKHP@ERROR_ARENA_TRASHED?$AA@ 004db79c     ntecode.obj
 0003:000057b0       ??_C@_06EOEO@EFAULT?$AA@   004db7b0     ntecode.obj
 0003:000057b8       ??_C@_0BF@HLPG@ERROR_INVALID_HANDLE?$AA@ 004db7b8     ntecode.obj
 0003:000057d0       ??_C@_05EKME@EBADF?$AA@    004db7d0     ntecode.obj
 0003:000057d8       ??_C@_0BE@JEGM@ERROR_ACCESS_DENIED?$AA@ 004db7d8     ntecode.obj
 0003:000057ec       ??_C@_06FPBG@EACCES?$AA@   004db7ec     ntecode.obj
 0003:000057f4       ??_C@_0BK@FKGC@ERROR_TOO_MANY_OPEN_FILES?$AA@ 004db7f4     ntecode.obj
 0003:00005810       ??_C@_06KPNH@EMFILE?$AA@   004db810     ntecode.obj
 0003:00005818       ??_C@_0BF@DKIK@ERROR_PATH_NOT_FOUND?$AA@ 004db818     ntecode.obj
 0003:00005830       ??_C@_0BF@NACG@ERROR_FILE_NOT_FOUND?$AA@ 004db830     ntecode.obj
 0003:00005848       ??_C@_06LGCH@ENOENT?$AA@   004db848     ntecode.obj
 0003:00005850       ??_C@_0BH@HLGJ@ERROR_INVALID_FUNCTION?$AA@ 004db850     ntecode.obj
 0003:00005868       ??_C@_06NBH@EINVAL?$AA@    004db868     ntecode.obj
 0003:00005870       ??_C@_08NAEC@NO_ERROR?$AA@ 004db870     ntecode.obj
 0003:0000587c       ??_C@_04HCNF@Zero?$AA@     004db87c     ntecode.obj
 0003:00005884       ??_C@_0BA@JAMM@NOSUPPORT_ERROR?$AA@ 004db884     ntecode.obj
 0003:00005894       ??_C@_09NKMD@nosupport?$AA@ 004db894     ntecode.obj
 0003:000058a0       ??_C@_0BA@DLOI@ALLOCFAIL_ERROR?$AA@ 004db8a0     ntecode.obj
 0003:000058b0       ??_C@_09NKKK@allocfail?$AA@ 004db8b0     ntecode.obj
 0003:000058bc       ??_C@_09JLDH@EOF_ERROR?$AA@ 004db8bc     ntecode.obj
 0003:000058c8       ??_C@_03HOJH@eof?$AA@      004db8c8     ntecode.obj
 0003:000058cc       ??_C@_0O@PMDD@UNKNOWN_ERROR?$AA@ 004db8cc     ntecode.obj
 0003:000058dc       ??_C@_07CAMD@unknown?$AA@  004db8dc     ntecode.obj
 0003:000058e4       ??_C@_0O@FENH@BADARGS_ERROR?$AA@ 004db8e4     ntecode.obj
 0003:000058f4       ??_C@_07MINH@badargs?$AA@  004db8f4     ntecode.obj
 0003:000058fc       ??_C@_0BE@IBHC@INAPPROPRIATE_ERROR?$AA@ 004db8fc     ntecode.obj
 0003:00005910       ??_C@_0O@LICP@inappropriate?$AA@ 004db910     ntecode.obj
 0003:00005920       ??_C@_06CPKN@ENOSPC?$AA@   004db920     ntecode.obj
 0003:00005928       ??_C@_03DCCA@EIO?$AA@      004db928     ntecode.obj
 0003:0000592c       ??_C@_0BG@GKIK@errorCodesAreSorted?$CI?$CJ?$AA@ 004db92c     ntecode.obj
 0003:00005944       ??_C@_0BO@MKKE@?4?4?2?4?4?2?4?4?2src?2platpc?2ntecode?4c?$AA@ 004db944     ntecode.obj
 0003:00005964       ??_C@_0BC@KECJ@ep?9?$DOszGenericName?$AA@ 004db964     ntecode.obj
 0003:00005978       ??_C@_0BC@LNHJ@ep?9?$DOszDescription?$AA@ 004db978     ntecode.obj
 0003:0000598c       ??_C@_0BD@BFCL@ERROR_UNDOCUMENTED?$AA@ 004db98c     ntecode.obj
 0003:000059a0       ??_C@_0CK@OHPH@errorInfo?$FLi?91?$FN?4iCode?5?$DM?5errorInfo@ 004db9a0     ntecode.obj
 0003:000059cc       ??_C@_0BA@BGB@Cancel?5to?5debug?$AA@ 004db9cc     nterror.obj
 0003:000059dc       ??_C@_07ILFI@?$CFhs?6?$CFhs?$AA@ 004db9dc     nterror.obj
 0003:000059e4       ??_C@_03DDND@?$CFhs?$AA@   004db9e4     nterror.obj
 0003:000059e8       ??_C@_02DILL@?$CFs?$AA@    004db9e8     nterror.obj
 0003:000059ec       ??_C@_04NOLC@?$CFs?5?6?$AA@ 004db9ec     nterror.obj
 0003:000059f4       ??_C@_03DDP@CON?$AA@       004db9f4     nterror.obj
 0003:000059f8       ??_C@_01LLF@w?$AA@         004db9f8     nterror.obj
 0003:000059fc       ??_C@_0N@PPNN@debuglog?4txt?$AA@ 004db9fc     nterror.obj
 0003:00005a0c       ??_C@_01FNLH@a?$AA@        004dba0c     nterror.obj
 0003:00005a10       ??_C@_0BG@OFPP@Invalid?5window?5handle?$AA@ 004dba10     ntevent.obj
 0003:00005a28       ??_C@_0BB@IMIB@WM_QUERYDRAGICON?$AA@ 004dba28     ntevent.obj
 0003:00005a3c       ??_C@_09BIOC@special?$CFd?$AA@ 004dba3c     ntfont.obj
 0003:00005a48       ??_C@_05GCGK@kanji?$AA@    004dba48     ntfont.obj
 0003:00005a50       ??_C@_03HJAP@oem?$AA@      004dba50     ntfont.obj
 0003:00005a54       ??_C@_06DDGG@symbol?$AA@   004dba54     ntfont.obj
 0003:00005a5c       ??_C@_04EHIG@ansi?$AA@     004dba5c     ntfont.obj
 0003:00005a64       ??_C@_0CH@GIEA@?$CF?$FL?$FO?$HO?$FN?$HO?$CFi?$HO?$CFi?$HO?$CFi?$HO?$CFi?$HO?$CFi?$HO?$CF?$FL?$FO?$HO?$FN?$HO?$CFi?$HO?$CFi@ 004dba64     ntfont.obj
 0003:00005a8c       ??_C@_06FIDL@?90?90?90?$AA@ 004dba8c     ntfont.obj
 0003:00005a94       ??_C@_0CN@FMFO@?$CBoopIsImm?$CInewStr?$CJ?5?$CG?$CG?5?$CBobjIsNewAs@ 004dba94     ntfont.obj
 0003:00005ac4       ??_C@_0BC@BPJG@?$CBoopIsImm?$CInewStr?$CJ?$AA@ 004dbac4     ntfont.obj
 0003:00005ad8       ??_C@_0EB@DDCF@?$CBoopIsImm?$CIresult?$CJ?5?$CG?$CG?5objIsNewAss@ 004dbad8     ntfont.obj
 0003:00005b1c       ??_C@_0EI@OIOD@?$CIresult?$CJ?5?$DN?$DN?5nonOop?5?$HM?$HM?5objDataSiz@ 004dbb1c     ntfont.obj
 0003:00005b64       ??_C@_0BN@NDBM@?4?4?2?4?4?2?4?4?2src?2platpc?2ntfont?4c?$AA@ 004dbb64     ntfont.obj
 0003:00005b84       ??_C@_06NILE@System?$AA@   004dbb84     ntfont.obj
 0003:00005b8c       ??_C@_00A@?$AA@            004dbb8c     ntfont.obj
 0003:00005b90       ??_C@_0BO@KFGE@lpfi?9?$DOnbrFaces?5?$DM?5FONTFACESMAX?$AA@ 004dbb90     ntfont.obj
 0003:00005bb0       ??_C@_0MN@MLCK@oeSprintf?$CIlpfi?9?$DOszScalableVersio@ 004dbbb0     ntfont.obj
 0003:00005c80       ??_C@_0ML@NIJH@oeSprintf?$CIszStr?0?5FONTFORMAT?0?5log@ 004dbc80     ntfont.obj
 0003:00005d4c       ??_C@_0BK@DJAO@?$CFhs?$HO?$CFi?$HO?$CFi?$HO?$CFi?$HO?$CFi?$HO?$CFi?$HO?$CFhs?$HO?$CFi?$AA@ 004dbd4c     ntfont.obj
 0003:00005d68       ??_C@_0EP@POKP@sprintf?$CIszCharSetBuf?0?5?$CCspecial?$CFd@ 004dbd68     ntfont.obj
 0003:00005db8       ??_C@_0BE@HJ@?$CBobjHasPtrs?$CIstring?$CJ?$AA@ 004dbdb8     ntfont.obj
 0003:00005dcc       ??_C@_0CN@GNFH@?$CBoopIsImm?$CIhandle?$CJ?5?$CG?$CG?5?$CBobjIsNewAs@ 004dbdcc     ntfont.obj
 0003:00005dfc       ??_C@_0BC@LCMP@?$CBoopIsImm?$CIhandle?$CJ?$AA@ 004dbdfc     ntfont.obj
 0003:00005e10       ??_C@_0EB@JOHM@?$CBoopIsImm?$CIresult?$CJ?5?$CG?$CG?5objIsNewAss@ 004dbe10     ntfont.obj
 0003:00005e54       ??_C@_0DC@IFHA@?$CIhandle?$CJ?5?$DN?$DN?5nonOop?5?$HM?$HM?5objDataSiz@ 004dbe54     ntfont.obj
 0003:00005e88       __real@4@3ffe8000000000000000 004dbe88     ntfont.obj
 0003:00005e8c       ??_C@_0DD@NGAH@?$CBoopIsImm?$CIwidthFOop?$CJ?5?$CG?$CG?5?$CBobjIsNe@ 004dbe8c     ntfont.obj
 0003:00005ec0       ??_C@_0BF@GKCH@?$CBoopIsImm?$CIwidthFOop?$CJ?$AA@ 004dbec0     ntfont.obj
 0003:00005ed8       ??_C@_0DF@PCGB@?$CBoopIsImm?$CIwidthArray?$CJ?5?$CG?$CG?5?$CBobjIsN@ 004dbed8     ntfont.obj
 0003:00005f10       ??_C@_0EM@DGGB@?$CBoopIsImm?$CIwidthArray?$CJ?5?$CG?$CG?5objIsNe@ 004dbf10     ntfont.obj
 0003:00005f5c       ??_C@_0BG@JIHL@?$CBoopIsImm?$CIwidthArray?$CJ?$AA@ 004dbf5c     ntfont.obj
 0003:00005f74       ??_C@_0DH@GMPN@?$CIwidthFOop?$CJ?5?$DN?$DN?5nonOop?5?$HM?$HM?5objData@ 004dbf74     ntfont.obj
 0003:00005fac       ??_C@_0BN@JBCP@flags?5?$DN?$DN?5checkFlags?$FLGCLevel?$FN?$AA@ 004dbfac     ntgc.obj
 0003:00005fcc       ??_C@_0CG@DAFC@GCLevel?5?$DO?$DN?50?5?$CG?$CG?5GCLevel?5?$DM?5NBRGCL@ 004dbfcc     ntgc.obj
 0003:00005ff4       ??_C@_0BL@IAIO@?4?4?2?4?4?2?4?4?2src?2platpc?2ntgc?4c?$AA@ 004dbff4     ntgc.obj
 0003:00006010       ??_C@_0BH@NKNO@GCLevel?5?$DM?$DN?5NBRGCLEVELS?$AA@ 004dc010     ntgc.obj
 0003:00006028       ??_C@_0EM@BLJO@?$CIpoints?$CJ?5?$DN?$DN?5nonOop?5?$HM?$HM?5objDataSiz@ 004dc028     ntgc.obj
 0003:00006074       ??_C@_0N@BIJE@GCLevel?5?$DN?$DN?50?$AA@ 004dc074     ntgc.obj
 0003:00006088       __real@8@00000000000000000000 004dc088     ntgc.obj
 0003:00006090       __real@4@c0008000000000000000 004dc090     ntgc.obj
 0003:00006094       __real@4@3fff8000000000000000 004dc094     ntgc.obj
 0003:00006098       __real@4@3ff98efa2e0000000000 004dc098     ntgc.obj
 0003:0000609c       ??_C@_0L@BIJD@MS?9Windows?$AA@ 004dc09c     ntgc.obj
 0003:000068a8       ??_C@_0CB@NPHI@Invalid?5color?5depth?5for?5display?6@ 004dc8a8     ntgraph.obj
 0003:000068cc       ??_C@_0ED@GEAF@?$CBoopIsImm?$CIresult?$CJ?5?$CG?$CG?5objIsNewAss@ 004dc8cc     ntgraph.obj
 0003:00006910       ??_C@_0ED@LCNH@?$CBoopIsImm?$CIsysOopRegistry?$FL0?$FN?$CJ?5?$CG?$CG?5@ 004dc910     ntgraph.obj
 0003:00006954       ??_C@_0BN@EEDO@?$CBoopIsImm?$CIsysOopRegistry?$FL0?$FN?$CJ?$AA@ 004dc954     ntgraph.obj
 0003:00006974       ??_C@_0FA@DOKE@?$CBoopIsImm?$CIcmap_oop?$CJ?5?$CG?$CG?5objIsNewA@ 004dc974     ntgraph.obj
 0003:000069c4       ??_C@_0DB@EEKF@?$CBoopIsImm?$CIcmap_oop?$CJ?5?$CG?$CG?5?$CBobjIsNew@ 004dc9c4     ntgraph.obj
 0003:000069f8       ??_C@_0EI@OGPL@?$CBoopIsImm?$CIcmap_oop?$CJ?5?$CG?$CG?5objIsNewA@ 004dc9f8     ntgraph.obj
 0003:00006a40       ??_C@_0BE@OKBM@?$CBoopIsImm?$CIcmap_oop?$CJ?$AA@ 004dca40     ntgraph.obj
 0003:00006a54       ??_C@_0DB@FDBO@?$CBoopIsImm?$CIblue_oop?$CJ?5?$CG?$CG?5?$CBobjIsNew@ 004dca54     ntgraph.obj
 0003:00006a88       ??_C@_0BE@KKFE@?$CBoopIsImm?$CIblue_oop?$CJ?$AA@ 004dca88     ntgraph.obj
 0003:00006a9c       ??_C@_0EJ@GBG@?$CBoopIsImm?$CIcolor_oop?$CJ?5?$CG?$CG?5objIsNew@ 004dca9c     ntgraph.obj
 0003:00006ae8       ??_C@_0DD@CNCM@?$CBoopIsImm?$CIgreen_oop?$CJ?5?$CG?$CG?5?$CBobjIsNe@ 004dcae8     ntgraph.obj
 0003:00006b1c       ??_C@_0BF@BNCB@?$CBoopIsImm?$CIgreen_oop?$CJ?$AA@ 004dcb1c     ntgraph.obj
 0003:00006b34       ??_C@_0EK@ODIN@?$CBoopIsImm?$CIcolor_oop?$CJ?5?$CG?$CG?5objIsNew@ 004dcb34     ntgraph.obj
 0003:00006b80       ??_C@_0CP@JNJI@?$CBoopIsImm?$CIred_oop?$CJ?5?$CG?$CG?5?$CBobjIsNewA@ 004dcb80     ntgraph.obj
 0003:00006bb0       ??_C@_0BD@HIIM@?$CBoopIsImm?$CIred_oop?$CJ?$AA@ 004dcbb0     ntgraph.obj
 0003:00006bc4       ??_C@_0DD@DMBD@?$CBoopIsImm?$CIcolor_oop?$CJ?5?$CG?$CG?5?$CBobjIsNe@ 004dcbc4     ntgraph.obj
 0003:00006bf8       ??_C@_0EI@DKHD@?$CBoopIsImm?$CIcolor_oop?$CJ?5?$CG?$CG?5objIsNew@ 004dcbf8     ntgraph.obj
 0003:00006c40       ??_C@_0BF@FONM@?$CBoopIsImm?$CIcolor_oop?$CJ?$AA@ 004dcc40     ntgraph.obj
 0003:00006c58       __real@8@4006ff00000000000000 004dcc58     ntgraph.obj
 0003:00006c60       ??_C@_0DF@BLEG@?$CIblue_oop?$CJ?5?$DN?$DN?5nonOop?5?$HM?$HM?5objDataS@ 004dcc60     ntgraph.obj
 0003:00006c98       ??_C@_0DH@KAHF@?$CIgreen_oop?$CJ?5?$DN?$DN?5nonOop?5?$HM?$HM?5objData@ 004dcc98     ntgraph.obj
 0003:00006cd0       ??_C@_0DD@NFJM@?$CIred_oop?$CJ?5?$DN?$DN?5nonOop?5?$HM?$HM?5objDataSi@ 004dccd0     ntgraph.obj
 0003:00006d04       ??_C@_0EJ@KFLB@?$CIcolor_oop?$CJ?5?$DN?$DN?5nonOop?5?$HM?$HM?5objData@ 004dcd04     ntgraph.obj
 0003:00006d50       ??_C@_0ED@BFKH@?$CIresult?$CJ?5?$DN?$DN?5nonOop?5?$HM?$HM?5objDataSiz@ 004dcd50     ntgraph.obj
 0003:00006d94       ??_C@_0BO@NDEI@?4?4?2?4?4?2?4?4?2src?2platpc?2ntgraph?4c?$AA@ 004dcd94     ntgraph.obj
 0003:00006db4       ??_C@_0CE@FLGM@Unsupported?5color?5depth?5for?5disp@ 004dcdb4     ntgraph.obj
 0003:00006dd8       ??_C@_0BA@NPJO@GammaCorrection?$AA@ 004dcdd8     ntgraph.obj
 0003:00006de8       ??_C@_0N@MOIB@UpdateColors?$AA@ 004dcde8     ntgraph.obj
 0003:00006df8       ??_C@_04KIKH@none?$AA@     004dcdf8     ntherald.obj
 0003:00006e00       ??_C@_0L@KAIE@LogoBitmap?$AA@ 004dce00     ntherald.obj
 0003:00006e0c       ??_C@_09MAAG@LogoSound?$AA@ 004dce0c     ntherald.obj
 0003:00006e18       ??_C@_0BN@KJOB@Release?5identification?5codes?$AA@ 004dce18     ntherald.obj
 0003:00006e38       ??_C@_04GCKF@?$CFhs?6?$AA@ 004dce38     ntherald.obj
 0003:00006e40       ??_C@_0ME@NDGA@?$CFhs?6?$CFhs?6Release?5Identification?3?6@ 004dce40     ntherald.obj
 0003:00006f04       ??_C@_0ED@ICOD@Copyright?5?$CIc?$CJ?51999?92004?5Cincom?5S@ 004dcf04     ntherald.obj
 0003:00006f48       ??_C@_0L@GEBJ@?5not?5found?$AA@ 004dcf48     ntherald.obj
 0003:00006f54       ??_C@_09JELM@?6Bitmap?3?5?$AA@ 004dcf54     ntherald.obj
 0003:00006f60       ??_C@_0BO@DOFC@Couldn?8t?5init?5pixmap?5registry?$AA@ 004dcf60     nthreg.obj
 0003:00006f80       ??_C@_0FC@EDOL@?$CIpixRegistry?$CJ?5?$DN?$DN?5nonOop?5?$HM?$HM?5objDa@ 004dcf80     nthreg.obj
 0003:00006fd4       ??_C@_0BN@LCCF@?4?4?2?4?4?2?4?4?2src?2platpc?2nthreg?4c?$AA@ 004dcfd4     nthreg.obj
 0003:00006ff4       ??_C@_0CJ@PHPE@unrecognized?5type?5in?5bFreeHandle@ 004dcff4     nthreg.obj
 0003:00007020       ??_C@_0BG@LKOO@?$CBobjHasPtrs?$CIregistry?$CJ?$AA@ 004dd020     nthreg.obj
 0003:00007038       ??_C@_0EO@NCDD@?$CIregistry?$CJ?5?$DN?$DN?5nonOop?5?$HM?$HM?5objDataS@ 004dd038     nthreg.obj
 0003:00007094       ??_C@_0IP@HNCG@?$CIbitsPerPixel?5?$DN?$DN?51?5?$CG?$CG?5OnWindows3@ 004dd094     ntimage.obj
 0003:00007124       ??_C@_0BO@HKJN@?4?4?2?4?4?2?4?4?2src?2platpc?2ntimage?4c?$AA@ 004dd124     ntimage.obj
 0003:00007144       ??_C@_0BE@IDMG@?$CBisOnList?$CIpioblock?$CJ?$AA@ 004dd144     ntioblok.obj
 0003:00007158       ??_C@_0BB@JBJG@pioblock?5?$CB?$DN?5NULL?$AA@ 004dd158     ntioblok.obj
 0003:0000716c       ??_C@_0CL@JMNJ@theSmalltalkThread?5?$DN?$DN?5GetCurrent@ 004dd16c     ntioblok.obj
 0003:00007198       ??_C@_0BP@GPEO@?4?4?2?4?4?2?4?4?2src?2platpc?2ntioblok?4c?$AA@ 004dd198     ntioblok.obj
 0003:000071b8       ??_C@_0BD@LPGN@isOnList?$CIpioblock?$CJ?$AA@ 004dd1b8     ntioblok.obj
 0003:000071cc       ??_C@_0BH@BNEE@validIOBlock?$CIpioblock?$CJ?$AA@ 004dd1cc     ntioblok.obj
 0003:000071e4       ??_C@_0BA@LJCP@GetMonitorInfoA?$AA@ 004dd1e4     ntmain.obj
 0003:000071f4       ??_C@_0BE@KPOG@EnumDisplayMonitors?$AA@ 004dd1f4     ntmain.obj
 0003:00007208       ??_C@_0BB@GJCM@MonitorFromPoint?$AA@ 004dd208     ntmain.obj
 0003:0000721c       ??_C@_0BA@GOHF@MonitorFromRect?$AA@ 004dd21c     ntmain.obj
 0003:0000722c       ??_C@_0BC@COEH@MonitorFromWindow?$AA@ 004dd22c     ntmain.obj
 0003:00007240       ??_C@_0BB@NDAA@GetSystemMetrics?$AA@ 004dd240     ntmain.obj
 0003:00007254       ??_C@_06NEIN@USER32?$AA@   004dd254     ntmain.obj
 0003:0000725c       ??_C@_07LGIJ@DISPLAY?$AA@  004dd25c     ntmain.obj
 0003:00007264       ??_C@_07MJOI@Console?$AA@  004dd264     ntmain.obj
 0003:0000727c       ??_C@_06LCPM@VWNTOE?$AA@   004dd27c     ntmain.obj
 0003:00007284       ??_C@_0BN@OOEE@?4?4?2?4?4?2?4?4?2src?2platpc?2ntmain?4c?$AA@ 004dd284     ntmain.obj
 0003:000072a4       ??_C@_03MGPP@?4IM?$AA@     004dd2a4     ntmain.obj
 0003:000072a8       ??_C@_01KPOD@?$DN?$AA@     004dd2a8     ntmain.obj
 0003:000072ac       ??_C@_0BI@EMNG@buf?$FL0?$FN?5?$DN?$DN?5?8?9?8?5?$CG?$CG?5buf?$FL1?$FN?$AA@ 004dd2ac     ntmain.obj
 0003:000072c4       ??_C@_0L@EGPH@herald?4wav?$AA@ 004dd2c4     ntmain.obj
 0003:000072d0       ??_C@_0L@GNFN@herald?4bmp?$AA@ 004dd2d0     ntmain.obj
 0003:000072dc       ??_C@_05KME@OWST1?$AA@     004dd2dc     ntmain.obj
 0003:000072e4       ??_C@_0BJ@COPJ@MaxSaveHiddenWindowBytes?$AA@ 004dd2e4     ntmain.obj
 0003:00007300       ??_C@_05KIMK@OWSTS?$AA@    004dd300     ntmain.obj
 0003:00007308       ??_C@_0DD@BCKG@maxVirtualAlloc?5?$DO?$DN?5totalInitialA@ 004dd308     ntmem.obj
 0003:0000733c       ??_C@_0BM@FLPF@?4?4?2?4?4?2?4?4?2src?2platpc?2ntmem?4c?$AA@ 004dd33c     ntmem.obj
 0003:00007358       ??_C@_0BO@BFGA@couldn?8t?5VirtualAlloc?5memory?4?$AA@ 004dd358     ntmem.obj
 0003:00007378       ??_C@_0BO@OBPH@couldn?8t?5VirtualQuery?5memory?4?$AA@ 004dd378     ntmem.obj
 0003:00007398       ??_C@_0BK@OLK@mInf?4BaseAddress?5?$DN?$DN?5where?$AA@ 004dd398     ntmem.obj
 0003:000073b4       ??_C@_0BN@KDFB@couldn?8t?5VirtualFree?5memory?4?$AA@ 004dd3b4     ntmem.obj
 0003:00007404       ??_C@_0BC@CBGM@SendIMEMessageExA?$AA@ 004dd404     ntnls.obj
 0003:00007418       ??_C@_0L@GPPP@imeSetArea?$AA@ 004dd418     ntnls.obj
 0003:00007424       ??_C@_0L@BJMC@imeSetFont?$AA@ 004dd424     ntnls.obj
 0003:00007430       ??_C@_0L@MPAB@imeSetRoot?$AA@ 004dd430     ntnls.obj
 0003:0000743c       ??_C@_0L@OFON@imeSetSpot?$AA@ 004dd43c     ntnls.obj
 0003:00007448       ??_C@_06IMLE@user32?$AA@   004dd448     ntnls.obj
 0003:00007450       ??_C@_0CG@BHFH@failed?5to?5lock?5virtual?5image?5res@ 004dd450     ntfile.obj
 0003:00007478       ??_C@_0CG@MBMH@failed?5to?5load?5virtual?5image?5res@ 004dd478     ntfile.obj
 0003:000074a0       ??_C@_0BN@CKBL@?4?4?2?4?4?2?4?4?2src?2platpc?2ntfile?4c?$AA@ 004dd4a0     ntfile.obj
 0003:000074c0       ??_C@_0BD@MJJF@SnapshotFileShared?$AA@ 004dd4c0     ntfile.obj
 0003:000074d4       ??_C@_0CD@OFJP@file?5?$CB?$DN?5fileHandleForImageResour@ 004dd4d4     ntfile.obj
 0003:000074f8       ??_C@_0EC@PIIB@?$CIoResult?$CJ?5?$DN?$DN?5nonOop?5?$HM?$HM?5objDataSi@ 004dd4f8     ntfile.obj
 0003:0000753c       ??_C@_0CM@MDME@?$CBoopIsImm?$CIresult?$CJ?5?$CG?$CG?5objIsNewAss@ 004dd53c     ntfile.obj
 0003:00007568       ??_C@_0N@EIDB@fn?5?$CB?$DN?5nonOop?$AA@ 004dd568     ntfile.obj
 0003:00007578       ??_C@_0ED@CNPF@?$CIresult?$CJ?5?$DN?$DN?5nonOop?5?$HM?$HM?5objDataSiz@ 004dd578     ntfile.obj
 0003:000075bc       ??_C@_0BF@PGGI@i?5?$DM?$DN?5oopStackSegSize?$AA@ 004dd5bc     ntfile.obj
 0003:000075d4       ??_C@_0DB@JBAE@?$CIresult?$CJ?5?$DN?$DN?5nonOop?5?$HM?$HM?5objDataSiz@ 004dd5d4     ntfile.obj
 0003:00007608       ??_C@_01FDHG@?$CK?$AA@     004dd608     ntfile.obj
 0003:0000760c       ??_C@_01PCFE@?2?$AA@       004dd60c     ntfile.obj
 0003:00007610       ??_C@_0CN@POOF@?$CBoopIsImm?$CIstName?$CJ?5?$CG?$CG?5?$CBobjIsNewAs@ 004dd610     ntfile.obj
 0003:00007640       ??_C@_0BC@CDAC@?$CBoopIsImm?$CIstName?$CJ?$AA@ 004dd640     ntfile.obj
 0003:00007654       ??_C@_0CP@NEAP@?$CBoopIsImm?$CIoResult?$CJ?5?$CG?$CG?5?$CBobjIsNewA@ 004dd654     ntfile.obj
 0003:00007684       ??_C@_0ED@CIIJ@?$CBoopIsImm?$CIoResult?$CJ?5?$CG?$CG?5objIsNewAs@ 004dd684     ntfile.obj
 0003:000076c8       ??_C@_0BD@KILC@?$CBoopIsImm?$CIoResult?$CJ?$AA@ 004dd6c8     ntfile.obj
 0003:000076dc       ??_C@_0FA@IAOG@?$CIoResult?$CJ?5?$DN?$DN?5nonOop?5?$HM?$HM?5objDataSi@ 004dd6dc     ntfile.obj
 0003:0000772c       ??_C@_03GBEA@?$CD?3?2?$AA@ 004dd72c     ntfile.obj
 0003:00007730       ??_C@_02BEKL@?$CD?3?$AA@   004dd730     ntfile.obj
 0003:00007734       ??_C@_03HDDO@FAT?$AA@      004dd734     ntfile.obj
 0003:00007738       ??_C@_0KB@IAJK@?$CBoopIsImm?$CI?$CI?$CIfsFlags?5?$CG?50x00000010@ 004dd738     ntfile.obj
 0003:000077dc       ??_C@_0EM@PPBI@?$CBoopIsImm?$CI?$CI?$CIfsFlags?5?$CG?50x00000010@ 004dd7dc     ntfile.obj
 0003:00007828       ??_C@_0HN@BJK@?$CBoopIsImm?$CIoResult?$CJ?5?$CG?$CG?5objIsNewAs@ 004dd828     ntfile.obj
 0003:000078a8       ??_C@_0KB@OOLI@?$CBoopIsImm?$CI?$CI?$CIfsFlags?5?$CG?50x00008000@ 004dd8a8     ntfile.obj
 0003:0000794c       ??_C@_0EM@MFON@?$CBoopIsImm?$CI?$CI?$CIfsFlags?5?$CG?50x00008000@ 004dd94c     ntfile.obj
 0003:00007998       ??_C@_0HN@DLGP@?$CBoopIsImm?$CIoResult?$CJ?5?$CG?$CG?5objIsNewAs@ 004dd998     ntfile.obj
 0003:00007a18       ??_C@_0KB@KAMP@?$CBoopIsImm?$CI?$CI?$CIfsFlags?5?$CG?50x00000008@ 004dda18     ntfile.obj
 0003:00007abc       ??_C@_0EM@GEJJ@?$CBoopIsImm?$CI?$CI?$CIfsFlags?5?$CG?50x00000008@ 004ddabc     ntfile.obj
 0003:00007b08       ??_C@_0HN@JKBL@?$CBoopIsImm?$CIoResult?$CJ?5?$CG?$CG?5objIsNewAs@ 004ddb08     ntfile.obj
 0003:00007b88       ??_C@_0KB@DBOC@?$CBoopIsImm?$CI?$CI?$CIfsFlags?5?$CG?50x00000004@ 004ddb88     ntfile.obj
 0003:00007c2c       ??_C@_0EM@BFFG@?$CBoopIsImm?$CI?$CI?$CIfsFlags?5?$CG?50x00000004@ 004ddc2c     ntfile.obj
 0003:00007c78       ??_C@_0HN@OLNE@?$CBoopIsImm?$CIoResult?$CJ?5?$CG?$CG?5objIsNewAs@ 004ddc78     ntfile.obj
 0003:00007cf8       ??_C@_0KB@NNDP@?$CBoopIsImm?$CI?$CI?$CIfsFlags?5?$CG?50x00000001@ 004ddcf8     ntfile.obj
 0003:00007d9c       ??_C@_0EM@DBMC@?$CBoopIsImm?$CI?$CI?$CIfsFlags?5?$CG?50x00000001@ 004ddd9c     ntfile.obj
 0003:00007de8       ??_C@_0HN@MPEA@?$CBoopIsImm?$CIoResult?$CJ?5?$CG?$CG?5objIsNewAs@ 004ddde8     ntfile.obj
 0003:00007e68       ??_C@_0KB@HJHE@?$CBoopIsImm?$CI?$CI?$CIfsFlags?5?$CG?50x00000002@ 004dde68     ntfile.obj
 0003:00007f0c       ??_C@_0EM@CNLB@?$CBoopIsImm?$CI?$CI?$CIfsFlags?5?$CG?50x00000002@ 004ddf0c     ntfile.obj
 0003:00007f58       ??_C@_0HN@NDDD@?$CBoopIsImm?$CIoResult?$CJ?5?$CG?$CG?5objIsNewAs@ 004ddf58     ntfile.obj
 0003:00007fd8       ??_C@_0EB@MLFP@?$CBoopIsImm?$CIoMaxComponentLen?$CJ?5?$CG?$CG?5?$CB@ 004ddfd8     ntfile.obj
 0003:0000801c       ??_C@_0CO@JDLD@?$CBoopIsImm?$CIoResult?$CJ?5?$CG?$CG?5objIsNewAs@ 004de01c     ntfile.obj
 0003:0000804c       ??_C@_0DP@BCKJ@?$CBoopIsImm?$CIoFileSystemName?$CJ?5?$CG?$CG?5?$CBo@ 004de04c     ntfile.obj
 0003:0000808c       ??_C@_0BL@EIN@?$CBoopIsImm?$CIoFileSystemName?$CJ?$AA@ 004de08c     ntfile.obj
 0003:000080a8       ??_C@_0EM@OKAI@?$CBoopIsImm?$CIoResult?$CJ?5?$CG?$CG?5objIsNewAs@ 004de0a8     ntfile.obj
 0003:000080f4       ??_C@_0CJ@MOGA@?$CBoopIsImm?$CItemp?$CJ?5?$CG?$CG?5?$CBobjIsNewAsse@ 004de0f4     ntfile.obj
 0003:00008120       ??_C@_0BA@BOHM@?$CBoopIsImm?$CItemp?$CJ?$AA@ 004de120     ntfile.obj
 0003:00008130       ??_C@_0DP@POEK@?$CBoopIsImm?$CIresult?$CJ?5?$CG?$CG?5objIsNewAss@ 004de130     ntfile.obj
 0003:00008170       ??_C@_0ED@CMBF@?$CIresult?$CJ?5?$DN?$DN?5nonOop?5?$HM?$HM?5objDataSiz@ 004de170     ntfile.obj
 0003:000081b4       ??_C@_0EK@FJCP@?$CIresult?$CJ?5?$DN?$DN?5nonOop?5?$HM?$HM?5objDataSiz@ 004de1b4     ntfile.obj
 0003:00008200       ??_C@_0BF@KIDE@win32?5V?$CFd?4?$CFd?5?$CFs?5i386?$AA@ 004de200     ntfile.obj
 0003:00008218       ??_C@_02OHFO@95?$AA@       004de218     ntfile.obj
 0003:0000821c       ??_C@_02EJFA@nt?$AA@       004de21c     ntfile.obj
 0003:00008220       ??_C@_0EE@BLNM@?$CIhandleOop?$CJ?5?$DN?$DN?5nonOop?5?$HM?$HM?5objData@ 004de220     ntfio.obj
 0003:00008264       ??_C@_0BM@KBEF@?4?4?2?4?4?2?4?4?2src?2platpc?2ntfio?4c?$AA@ 004de264     ntfio.obj
 0003:00008280       ??_C@_0CN@PGON@validIOBlock?$CIobjDataField?$CIsfd?0?5p@ 004de280     ntfio.obj
 0003:000082b0       ??_C@_0EF@OBCO@?$CIunsigned?5__int64?$CJ?$CIhipos?5?$DM?$DM?532?$CJ?5@ 004de2b0     ntfio.obj
 0003:000082f8       ??_C@_0DD@FEBP@validIOBlock?$CIobjDataField?$CIhandle@ 004de2f8     ntfio.obj
 0003:0000832c       ??_C@_05JMGP@close?$AA@    004de32c     ntsock.obj
 0003:00008334       ??_C@_08DHEI@shutdown?$AA@ 004de334     ntsock.obj
 0003:00008340       ??_C@_0P@KNOI@WSAAsyncSelect?$AA@ 004de340     ntsock.obj
 0003:00008350       ??_C@_0M@NJHJ@?$CFs?5err?3?5?$CFu?6?$AA@ 004de350     ntsock.obj
 0003:0000835c       ??_C@_08EMEN@?6recv?8d?6?$AA@ 004de35c     ntsock.obj
 0003:00008368       ??_C@_0L@LCBG@?6recv?5err?6?$AA@ 004de368     ntsock.obj
 0003:00008374       ??_C@_06NCIH@?6sent?6?$AA@ 004de374     ntsock.obj
 0003:0000837c       ??_C@_0L@OBHC@?6send?5err?6?$AA@ 004de37c     ntsock.obj
 0003:00008388       ??_C@_0CA@EEIF@?$CBsocketWin?5?$HM?$HM?5hWnd?5?$DN?$DN?5socketWin?$AA@ 004de388     ntsock.obj
 0003:000083a8       ??_C@_0BN@NPAK@?4?4?2?4?4?2?4?4?2src?2platpc?2ntsock?4c?$AA@ 004de3a8     ntsock.obj
 0003:000083c8       ??_C@_02GKKC@eW?$AA@       004de3c8     ntsock.obj
 0003:000083cc       ??_C@_02GKGJ@eR?$AA@       004de3cc     ntsock.obj
 0003:000083d0       ??_C@_0CG@PNJJ@sockWSAEvent?3?5wParam?5?$DN?$CFx?0lParam?5@ 004de3d0     ntsock.obj
 0003:000083f8       ??_C@_0O@DIB@?6signalError?6?$AA@ 004de3f8     ntsock.obj
 0003:00008408       ??_C@_0L@KLBB@WSACleanup?$AA@ 004de408     ntsock.obj
 0003:00008414       ??_C@_01PIHH@?$CB?$AA@     004de414     ntsock.obj
 0003:00008418       ??_C@_0BA@GJAO@iRegistryXerror?$AA@ 004de418     ntsock.obj
 0003:00008428       ??_C@_01PJOB@?$CL?$AA@     004de428     ntsock.obj
 0003:0000842c       ??_C@_01GJD@?9?$AA@        004de42c     ntsock.obj
 0003:00008430       ??_C@_02LHDD@?$CDR?$AA@    004de430     ntsock.obj
 0003:00008434       ??_C@_02LHPI@?$CDW?$AA@    004de434     ntsock.obj
 0003:00008438       ??_C@_0CF@GJGP@?$CBoopIsImm?$CIba?$CJ?5?$CG?$CG?5?$CBobjIsNewAssert@ 004de438     ntsock.obj
 0003:00008460       ??_C@_0O@EDCA@?$CBoopIsImm?$CIba?$CJ?$AA@ 004de460     ntsock.obj
 0003:00008470       ??_C@_0ED@BNEG@?$CBoopIsImm?$CIresultOop?$CJ?5?$CG?$CG?5objIsNew@ 004de470     ntsock.obj
 0003:000084b4       ??_C@_0DD@HEBC@?$CBoopIsImm?$CIhandleOop?$CJ?5?$CG?$CG?5?$CBobjIsNe@ 004de4b4     ntsock.obj
 0003:000084e8       ??_C@_0BF@NPCJ@?$CBoopIsImm?$CIhandleOop?$CJ?$AA@ 004de4e8     ntsock.obj
 0003:00008500       ??_C@_0DD@HIBA@?$CBoopIsImm?$CIresultOop?$CJ?5?$CG?$CG?5?$CBobjIsNe@ 004de500     ntsock.obj
 0003:00008534       ??_C@_0EK@PEFC@?$CBoopIsImm?$CIresultOop?$CJ?5?$CG?$CG?5objIsNew@ 004de534     ntsock.obj
 0003:00008580       ??_C@_0BF@IFAN@?$CBoopIsImm?$CIresultOop?$CJ?$AA@ 004de580     ntsock.obj
 0003:00008598       ??_C@_0DK@CCPJ@?$CIba?$CJ?5?$DN?$DN?5nonOop?5?$HM?$HM?5objDataSize?$CIba@ 004de598     ntsock.obj
 0003:000085d4       ??_C@_0EF@HHNJ@?$CIresultOop?$CJ?5?$DN?$DN?5nonOop?5?$HM?$HM?5objData@ 004de5d4     ntsock.obj
 0003:0000861c       ??_C@_0CO@NLBO@validIOBlock?$CIobjDataField?$CIhoop?0?5@ 004de61c     ntsock.obj
 0003:0000864c       ??_C@_0BC@CGIE@?$CBobjHasPtrs?$CIaddr?$CJ?$AA@ 004de64c     ntsock.obj
 0003:00008660       ??_C@_09NDIA@recv?5err?6?$AA@ 004de660     ntsock.obj
 0003:0000866c       ??_C@_0BA@MHH@?$CBobjHasPtrs?$CIrf?$CJ?$AA@ 004de66c     ntsock.obj
 0003:0000867c       ??_C@_0P@EGPC@?$CBobjHasPtrs?$CIv?$CJ?$AA@ 004de67c     ntsock.obj
 0003:0000868c       ??_C@_0EA@ONJO@?$CIresult?$CJ?5?$DN?$DN?5nonOop?5?$HM?$HM?5objDataSiz@ 004de68c     ntsock.obj
 0003:000086cc       ??_C@_0EH@EIAO@?$CIresult?$CJ?5?$DN?$DN?5nonOop?5?$HM?$HM?5objDataSiz@ 004de6cc     ntsock.obj
 0003:00008714       ??_C@_0BA@LJBI@GPNConnect?5?$CFld?6?$AA@ 004de714     ntsock.obj
 0003:00008724       ??_C@_0EN@JPAG@?$CIresultOop?$CJ?5?$DN?$DN?5nonOop?5?$HM?$HM?5objData@ 004de724     ntsock.obj
 0003:00008774       ??_C@_0EG@EAFK@?$CIresult?$CJ?5?$DN?$DN?5nonOop?5?$HM?$HM?5objDataSiz@ 004de774     ntsock.obj
 0003:000087bc       ??_C@_0EG@LDJJ@?$CIresult?$CJ?5?$DN?$DN?5nonOop?5?$HM?$HM?5objDataSiz@ 004de7bc     ntsock.obj
 0003:00008804       ??_C@_0M@EGHG@?$CFu?4?$CFu?4?$CFu?4?$CFu?$AA@ 004de804     ntsock.obj
 0003:00008810       ??_C@_0BA@EMEI@?$CBobjHasPtrs?$CIba?$CJ?$AA@ 004de810     ntsock.obj
 0003:00008820       ??_C@_0P@LDON@PRINTER?5OUTPUT?$AA@ 004de820     ntplat.obj
 0003:00008830       ??_C@_01LHO@r?$AA@         004de830     ntplat.obj
 0003:00008834       ??_C@_0O@FLMC@initgraphics?6?$AA@ 004de834     ntplat.obj
 0003:00008844       ??_C@_03OFLH@RAW?$AA@      004de844     ntplat.obj
 0003:00008848       ??_C@_0BN@MEJP@?4?4?2?4?4?2?4?4?2src?2platpc?2ntplat?4c?$AA@ 004de848     ntplat.obj
 0003:00008868       ??_C@_0BC@PIGE@POSTSCRIPT?5OUTPUT?$AA@ 004de868     ntplat.obj
 0003:0000887c       ??_C@_02JKAF@rb?$AA@       004de87c     ntplat.obj
 0003:00008880       ??_C@_0EP@IPNC@?$CIprtHandle?$CJ?5?$DN?$DN?5nonOop?5?$HM?$HM?5objData@ 004de880     ntprint.obj
 0003:000088d0       ??_C@_0BO@KLAI@?4?4?2?4?4?2?4?4?2src?2platpc?2ntprint?4c?$AA@ 004de8d0     ntprint.obj
 0003:000088f0       ??_C@_0JH@LMNN@?$CBoopIsImm?$CI?$CI?$CIwidth?5?$DO?$DN?5height?$CJ?5?$DP?5s@ 004de8f0     ntprint.obj
 0003:00008988       ??_C@_0EH@JGEN@?$CBoopIsImm?$CI?$CI?$CIwidth?5?$DO?$DN?5height?$CJ?5?$DP?5s@ 004de988     ntprint.obj
 0003:000089d0       ??_C@_0HG@GHBI@?$CBoopIsImm?$CIresult?$CJ?5?$CG?$CG?5objIsNewAss@ 004de9d0     ntprint.obj
 0003:00008a48       ??_C@_0CP@EOEG@?$CBoopIsImm?$CIy_scale?$CJ?5?$CG?$CG?5?$CBobjIsNewA@ 004dea48     ntprint.obj
 0003:00008a78       ??_C@_0BD@ODCP@?$CBoopIsImm?$CIy_scale?$CJ?$AA@ 004dea78     ntprint.obj
 0003:00008a8c       ??_C@_0EC@PKAD@?$CBoopIsImm?$CIresult?$CJ?5?$CG?$CG?5objIsNewAss@ 004dea8c     ntprint.obj
 0003:00008ad0       ??_C@_0CP@IEGJ@?$CBoopIsImm?$CIx_scale?$CJ?5?$CG?$CG?5?$CBobjIsNewA@ 004dead0     ntprint.obj
 0003:00008b00       ??_C@_0BD@KLAB@?$CBoopIsImm?$CIx_scale?$CJ?$AA@ 004deb00     ntprint.obj
 0003:00008b14       ??_C@_0EC@LCCN@?$CBoopIsImm?$CIresult?$CJ?5?$CG?$CG?5objIsNewAss@ 004deb14     ntprint.obj
 0003:00008b58       ??_C@_0DD@GBLF@?$CIy_scale?$CJ?5?$DN?$DN?5nonOop?5?$HM?$HM?5objDataSi@ 004deb58     ntprint.obj
 0003:00008b8c       ??_C@_0DD@IJLI@?$CIx_scale?$CJ?5?$DN?$DN?5nonOop?5?$HM?$HM?5objDataSi@ 004deb8c     ntprint.obj
 0003:00008bc0       ??_C@_0BA@HC@?$CBclipboardBytes?$AA@ 004debc0     ntsel.obj
 0003:00008bd0       ??_C@_0BM@MKED@?4?4?2?4?4?2?4?4?2src?2platpc?2ntsel?4c?$AA@ 004debd0     ntsel.obj
 0003:00008bec       ??_C@_0CH@ILHO@?$CBoopIsImm?$CIsem?$CJ?5?$CG?$CG?5?$CBobjIsNewAsser@ 004debec     ntsem.obj
 0003:00008c14       ??_C@_0FN@FFHE@?$CBoopIsImm?$CIsysOopRegistry?$FLioSemRe@ 004dec14     ntsem.obj
 0003:00008c74       ??_C@_0FM@FKPG@?$CBoopIsImm?$CIsysOopRegistry?$FLioSemRe@ 004dec74     ntsem.obj
 0003:00008cd0       ??_C@_0CK@KMCE@?$CBoopIsImm?$CIsysOopRegistry?$FLioSemRe@ 004decd0     ntsem.obj
 0003:00008cfc       ??_C@_0BM@JIFF@?4?4?2?4?4?2?4?4?2src?2platpc?2ntsem?4c?$AA@ 004decfc     ntsem.obj
 0003:00008d18       ??_C@_0HL@DDOK@?$CBoopIsImm?$CI?$CK?$CI?$CI?$CIoop?5?$CK?$CJ?$CI?$CIoldRegistr@ 004ded18     ntsem.obj
 0003:00008d94       ??_C@_0DJ@DKPN@?$CBoopIsImm?$CI?$CK?$CI?$CI?$CIoop?5?$CK?$CJ?$CI?$CIoldRegistr@ 004ded94     ntsem.obj
 0003:00008dd0       ??_C@_0DH@LKGA@?$CBoopIsImm?$CInewRegistry?$CJ?5?$CG?$CG?5?$CBobjIs@ 004dedd0     ntsem.obj
 0003:00008e08       ??_C@_0DG@MAO@?$CBoopIsImm?$CInewRegistry?$CJ?5?$CG?$CG?5objIsN@ 004dee08     ntsem.obj
 0003:00008e40       ??_C@_0BH@ELIB@?$CBoopIsImm?$CInewRegistry?$CJ?$AA@ 004dee40     ntsem.obj
 0003:00008e58       ??_C@_0FN@FCIA@?$CInewRegistry?$CJ?5?$DN?$DN?5nonOop?5?$HM?$HM?5objDa@ 004dee58     ntsem.obj
 0003:00008eb8       ??_C@_0EE@DEEN@index?5?$DO?$DN?50?5?$CG?$CG?5index?5?$DM?$DN?5?$CIint?$CJobjO@ 004deeb8     ntsem.obj
 0003:00008efc       ??_C@_0EP@DJIF@?$CIregOop?$CJ?5?$DN?$DN?5nonOop?5?$HM?$HM?5objDataSiz@ 004deefc     ntsem.obj
 0003:00008f4c       ??_C@_0BL@IGJJ@hiresClockFrequency?5?$DO?51000?$AA@ 004def4c     nttime.obj
 0003:00008f68       ??_C@_0EB@GDOI@SystemTimeToFileTime?$CI?$CGtime1901?0?5@ 004def68     nttime.obj
 0003:00008fac       ??_C@_0BN@HOAL@?4?4?2?4?4?2?4?4?2src?2platpc?2nttime?4c?$AA@ 004defac     nttime.obj
 0003:00008fcc       ??_C@_0DI@DMID@No?5hires?5timer?5present?$DL?5can?8t?5pr@ 004defcc     nttime.obj
 0003:00009004       ??_C@_0BK@CJEG@?$CIDWORD?$CJseconds?5?$DN?$DN?5seconds?$AA@ 004df004     nttime.obj
 0003:00009020       ??_C@_09LFPL@ISO8859L1?$AA@ 004df020     ntwin.obj
 0003:0000902c       ??_C@_0EB@GJHG@?$CBobjHasPtrs?$CIoBytes?$CJ?5?$CG?$CG?5objByteDa@ 004df02c     ntcall16.obj
 0003:00009070       ??_C@_0BA@BDDB@probablyOop?$CI_o?$CJ?$AA@ 004df070     ntcall16.obj
 0003:00009080       ??_C@_0EC@IAPL@?$CBoopIsImm?$CI?$CK?$CI?$CGcalloutResult?$CJ?$CJ?5?$CG?$CG?5@ 004df080     ntcall16.obj
 0003:000090c4       ??_C@_0CJ@GDOP@?$CBoopIsImm?$CIoPtr?$CJ?5?$CG?$CG?5?$CBobjIsNewAsse@ 004df0c4     ntcall16.obj
 0003:000090f0       ??_C@_0ED@NIA@?$CBoopIsImm?$CI?$CK?$CI?$CGcalloutResult?$CJ?$CJ?5?$CG?$CG?5@ 004df0f0     ntcall16.obj
 0003:00009134       ??_C@_0BN@BOII@?$CBoopIsImm?$CI?$CK?$CI?$CGcalloutResult?$CJ?$CJ?$AA@ 004df134     ntcall16.obj
 0003:00009154       ??_C@_0BP@CHJH@?4?4?2?4?4?2?4?4?2src?2platpc?2ntcall16?4c?$AA@ 004df154     ntcall16.obj
 0003:00009184       ??_C@_0N@EDAJ@invalid?5kind?$AA@ 004df184     ntcom.obj
 0003:00009194       ??_C@_0CI@JOGP@STULong?$CI?$CIq32?$CJ?5pPtr?0?5oAddress?$CJ?5?$CB?$DN@ 004df194     ntcom.obj
 0003:000091bc       ??_C@_0DD@PNGK@?$CBoopIsImm?$CIoArgArray?$CJ?5?$CG?$CG?5?$CBobjIsNe@ 004df1bc     ntcom.obj
 0003:000091f0       ??_C@_0DC@ECCF@?$CBoopIsImm?$CIoArgArray?$CJ?5?$CG?$CG?5objIsNew@ 004df1f0     ntcom.obj
 0003:00009224       ??_C@_0BF@KLKF@?$CBoopIsImm?$CIoArgArray?$CJ?$AA@ 004df224     ntcom.obj
 0003:0000923c       ??_C@_0CN@IJIE@?$CBoopIsImm?$CIoBytes?$CJ?5?$CG?$CG?5?$CBobjIsNewAs@ 004df23c     ntcom.obj
 0003:0000926c       ??_C@_0BC@JJLI@?$CBoopIsImm?$CIoBytes?$CJ?$AA@ 004df26c     ntcom.obj
 0003:00009280       ??_C@_0DN@FPAD@?$CBoopIsImm?$CIoArg?$CJ?5?$CG?$CG?5objIsNewAsser@ 004df280     ntcom.obj
 0003:000092c0       ??_C@_0DI@BLAH@?$CIoBytes?$CJ?5?$DN?$DN?5nonOop?5?$HM?$HM?5objDataSiz@ 004df2c0     ntcom.obj
 0003:000092f8       ??_C@_0CN@DHHA@?$CIoArg?$CJ?5?$DN?$DN?5nonOop?5?$HM?$HM?5objDataSize?$CI@ 004df2f8     ntcom.obj
 0003:00009328       ??_C@_0CN@NIIO@?$CIoArg?$CJ?5?$DN?$DN?5nonOop?5?$HM?$HM?5objDataSize?$CI@ 004df328     ntcom.obj
 0003:00009358       ??_C@_0CL@PDDB@?$CBoopIsImm?$CIoType?$CJ?5?$CG?$CG?5?$CBobjIsNewAss@ 004df358     ntcom.obj
 0003:00009384       ??_C@_0DB@OIIO@?$CBoopIsImm?$CIoAddress?$CJ?5?$CG?$CG?5?$CBobjIsNew@ 004df384     ntcom.obj
 0003:000093b8       ??_C@_0CJ@EKGE@?$CBoopIsImm?$CIoArg?$CJ?5?$CG?$CG?5?$CBobjIsNewAsse@ 004df3b8     ntcom.obj
 0003:000093e4       ??_C@_0CI@MBIM@?$CBoopIsImm?$CIoArg?$CJ?5?$CG?$CG?5objIsNewAsser@ 004df3e4     ntcom.obj
 0003:0000940c       ??_C@_0BA@MGCE@?$CBoopIsImm?$CIoArg?$CJ?$AA@ 004df40c     ntcom.obj
 0003:0000941c       ??_C@_0EE@DMHP@?$CIoArgArray?$CJ?5?$DN?$DN?5nonOop?5?$HM?$HM?5objData@ 004df41c     ntcom.obj
 0003:00009460       ??_C@_0DB@INAK@?$CB?$CIdontRoundUpSize?$CIlArrayNumBytes@ 004df460     ntcom.obj
 0003:00009494       ??_C@_0BM@PKDE@?4?4?2?4?4?2?4?4?2src?2platpc?2ntcom?4c?$AA@ 004df494     ntcom.obj
 0003:000094b0       ??_C@_0BK@BPOE@__s?5?$DO?$DN?5sizeof?$CINBAPIShmem?$CJ?$AA@ 004df4b0     ntcallbk.obj
 0003:000094cc       ??_C@_0BP@GHPM@?4?4?2?4?4?2?4?4?2src?2platpc?2ntcallbk?4c?$AA@ 004df4cc     ntcallbk.obj
 0003:000094ec       ??_C@_0EA@GAJD@?$CIoArgArray?$CJ?5?$DN?$DN?5nonOop?5?$HM?$HM?5objData@ 004df4ec     ntcallbk.obj
 0003:0000952c       ??_C@_0CL@DLCB@t?9?$DOsm?9?$DOshmemSize?5?$DO?$DN?5SHMEM_SIZE?$CId@ 004df52c     ntcallbk.obj
 0003:00009558       ??_C@_0BO@CABB@?4?4?2?4?4?2?4?4?2src?2platpc?2ntcallc?4c?$AA@ 004df558     ntcallc.obj
 0003:00009594       ??_C@_0BP@BOMO@reach?5for?5the?5unreachable?5star?$AA@ 004df594     ntcallc.obj
 0003:000095b4       ??_C@_0EG@DAGL@?$CBobjHasPtrs?$CIoBytes?$CJ?5?$CG?$CG?5objByteDa@ 004df5b4     ntcallc.obj
 0003:000095fc       ??_C@_0DF@KOL@?$CBoopIsImm?$CI?$CK?$CI?$CGresult?$CJ?$CJ?5?$CG?$CG?5?$CBobjIsN@ 004df5fc     ntcallc.obj
 0003:00009634       ??_C@_0DE@HCJP@?$CBoopIsImm?$CI?$CK?$CI?$CGresult?$CJ?$CJ?5?$CG?$CG?5objIsNe@ 004df634     ntcallc.obj
 0003:00009668       ??_C@_0BG@EADA@?$CBoopIsImm?$CI?$CK?$CI?$CGresult?$CJ?$CJ?$AA@ 004df668     ntcallc.obj
 0003:00009680       ??_C@_0BO@NLKJ@?4?4?2?4?4?2?4?4?2src?2platpc?2ntcbk16?4c?$AA@ 004df680     ntcbk16.obj
 0003:000096a0       ??_C@_0P@DBLH@moduleUnloaded?$AA@ 004df6a0     exBitBlt.obj
 0003:000096b0       ??_C@_0BE@OHBA@primitiveDrawLoopXY?$AA@ 004df6b0     exBitBlt.obj
 0003:000096c4       ??_C@_0P@PNAO@loadBitBltFrom?$AA@ 004df6c4     exBitBlt.obj
 0003:000096d4       ??_C@_0BO@FHDO@primitiveCopyBitstranslucency?$AA@ 004df6d4     exBitBlt.obj
 0003:000096f4       ??_C@_0BL@MMCA@primitiveWarpBitssmoothing?$AA@ 004df6f4     exBitBlt.obj
 0003:00009710       ??_C@_0CO@LGCI@sourceBLTstridedeststridedxdysxs@ 004df710     exBitBlt.obj
 0003:00009740       ??_C@_08MBNG@copyBits?$AA@ 004df740     exBitBlt.obj
 0003:0000974c       ??_C@_0DA@PLCH@primitiveDisplayStringstringfrom@ 004df74c     exBitBlt.obj
 0003:0000977c       ??_C@_0BC@IBIO@primitiveCopyBits?$AA@ 004df77c     exBitBlt.obj
 0003:00009790       ??_C@_0BB@DHCD@copyBitsFromtoat?$AA@ 004df790     exBitBlt.obj
 0003:000097a4       ??_C@_0BB@CKDI@initialiseModule?$AA@ 004df7a4     exBitBlt.obj
 0003:000097b8       ??_C@_0O@PONB@getModuleName?$AA@ 004df7b8     exBitBlt.obj
 0003:000097c8       ??_C@_0N@CHMA@BitBltPlugin?$AA@ 004df7c8     exBitBlt.obj
 0003:000097d8       ??_C@_0CE@DBJB@BitBltPlugin?5September?514?0?52004?5@ 004df7d8     exBitBlt.obj
 0003:000098dc       ??_C@_0CK@DFHF@?$CBobjHasPtrs?$CI?$CIoop?$CJ?$CItileByteArrayO@ 004df8dc     exBitBlt.obj
 0003:00009908       ??_C@_0CM@PDIG@?$CBobjHasPtrs?$CI?$CIoop?$CJ?$CIsourceByteArra@ 004df908     exBitBlt.obj
 0003:00009934       ??_C@_0CF@GIFI@?$CBobjHasPtrs?$CI?$CIoop?$CJ?$CIdestByteArrayO@ 004df934     exBitBlt.obj
 0003:0000995c       ??_C@_0CA@ONMN@?4?4?2?4?4?2?4?4?2src?2ext?2BitBltPlugin?4c?$AA@ 004df95c     exBitBlt.obj
 0003:0000997c       ??_C@_0BP@DKND@?$CBobjHasPtrs?$CI?$CIoop?$CJ?$CIsourceBits?$CJ?$CJ?$AA@ 004df97c     exBitBlt.obj
 0003:0000999c       ??_C@_0BN@FMJM@?$CBobjHasPtrs?$CI?$CIoop?$CJ?$CIdestBits?$CJ?$CJ?$AA@ 004df99c     exBitBlt.obj
 0003:000099c0       __real@8@401dffffe38000000000 004df9c0     exBitBlt.obj
 0003:000099c8       __real@8@c01dffffe38000000000 004df9c8     exBitBlt.obj
 0003:000099d0       ??_C@_0O@KKKD@SurfacePlugin?$AA@ 004df9d0     exBitBlt.obj
 0003:000099e0       ??_C@_0CA@GBPN@?$CBobjHasPtrs?$CI?$CIoop?$CJ?$CIdestPalette?$CJ?$CJ?$AA@ 004df9e0     exBitBlt.obj
 0003:00009a00       ??_C@_0CC@KN@?$CBobjHasPtrs?$CI?$CIoop?$CJ?$CIsourcePalette?$CJ@ 004dfa00     exBitBlt.obj
 0003:00009a24       ??_C@_0CB@GLKG@?$CBobjHasPtrs?$CI?$CIoop?$CJ?$CIsourceString?$CJ?$CJ@ 004dfa24     exBitBlt.obj
 0003:00009a48       ??_C@_0CN@CHLL@?$CBoopIsImm?$CIintObj?$CJ?5?$CG?$CG?5?$CBobjIsNewAs@ 004dfa48     exBitBlt.obj
 0003:00009a78       ??_C@_0EB@EHGH@?$CBoopIsImm?$CI?$CIoop?$CJ?$CIbitBltOop?$CJ?$CJ?5?$CG?$CG?5?$CB@ 004dfa78     exBitBlt.obj
 0003:00009abc       ??_C@_0EA@EMAK@?$CBoopIsImm?$CI?$CIoop?$CJ?$CIbitBltOop?$CJ?$CJ?5?$CG?$CG?5o@ 004dfabc     exBitBlt.obj
 0003:00009afc       ??_C@_0BM@FGOD@?$CBoopIsImm?$CI?$CIoop?$CJ?$CIbitBltOop?$CJ?$CJ?$AA@ 004dfafc     exBitBlt.obj
 0003:00009b18       ??_C@_0DE@JFGK@oReturnValue?5?$DN?$DN?5nonOop?5?$HM?$HM?5probab@ 004dfb18     exCOM.obj
 0003:00009b4c       ??_C@_0BI@DNFE@calloutResult?5?$DN?$DN?5nonOop?$AA@ 004dfb4c     exCOM.obj
 0003:00009b64       ??_C@_0ED@JCDD@?$CBoopIsImm?$CIoResult?$CJ?5?$CG?$CG?5objIsNewAs@ 004dfb64     exCOM.obj
 0003:00009ba8       ??_C@_0EA@OHKP@?$CIoBytes?$CJ?5?$DN?$DN?5nonOop?5?$HM?$HM?5objDataSiz@ 004dfba8     exCOM.obj
 0003:00009be8       ??_C@_0DH@BBMF@?$CBoopIsImm?$CIoResultType?$CJ?5?$CG?$CG?5?$CBobjIs@ 004dfbe8     exCOM.obj
 0003:00009c20       ??_C@_0CJ@MFHN@?$CBoopIsImm?$CIoNil?$CJ?5?$CG?$CG?5?$CBobjIsNewAsse@ 004dfc20     exCOM.obj
 0003:00009c4c       ??_C@_0BA@NPEF@?$CBoopIsImm?$CIoNil?$CJ?$AA@ 004dfc4c     exCOM.obj
 0003:00009c5c       ??_C@_0EB@NKPL@?$CBoopIsImm?$CIoResult?$CJ?5?$CG?$CG?5objIsNewAs@ 004dfc5c     exCOM.obj
 0003:00009ca0       ??_C@_0DD@CELF@?$CIoResult?$CJ?5?$DN?$DN?5nonOop?5?$HM?$HM?5objDataSi@ 004dfca0     exCOM.obj
 0003:00009cd4       ??_C@_0DD@MLEL@?$CIoResult?$CJ?5?$DN?$DN?5nonOop?5?$HM?$HM?5objDataSi@ 004dfcd4     exCOM.obj
 0003:00009d08       ??_C@_0BC@IIEF@oopIsInt?$CIoHandle?$CJ?$AA@ 004dfd08     exCOM.obj
 0003:00009d1c       ??_C@_0BM@IPBD@oopIsInt?$CIoStructReturnSize?$CJ?$AA@ 004dfd1c     exCOM.obj
 0003:00009d38       ??_C@_0BK@LKGB@oopIsInt?$CIoStructArgsSize?$CJ?$AA@ 004dfd38     exCOM.obj
 0003:00009d54       ??_C@_0DK@EGPL@?$CIoopUInt?$CJ?$CInumArgs?5?$CL?52?$CJ?5?$DN?$DN?5objByt@ 004dfd54     exCOM.obj
 0003:00009d90       ??_C@_0BM@JLMK@?$CBobjHasPtrs?$CIoArgumentKinds?$CJ?$AA@ 004dfd90     exCOM.obj
 0003:00009dac       ??_C@_0DE@LKHE@oopClass?$CIoArgumentKinds?$CJ?5?$DN?$DN?5sysO@ 004dfdac     exCOM.obj
 0003:00009de0       ??_C@_0BK@MBEM@oopIsInt?$CIoSpecifierFlags?$CJ?$AA@ 004dfde0     exCOM.obj
 0003:00009dfc       ??_C@_0CL@JGEF@Attempted?5COM?5call?5prior?5to?5init@ 004dfdfc     exCOM.obj
 0003:00009e28       ??_C@_0BJ@GBKB@?4?4?2?4?4?2?4?4?2src?2ext?2exCOM?4c?$AA@ 004dfe28     exCOM.obj
 0003:00009e44       ??_C@_0DN@FIEF@?$CBoopIsImm?$CIoArgumentCache?$CJ?5?$CG?$CG?5?$CBob@ 004dfe44     exCOM.obj
 0003:00009e84       ??_C@_0DM@IEDM@?$CBoopIsImm?$CIoArgumentCache?$CJ?5?$CG?$CG?5obj@ 004dfe84     exCOM.obj
 0003:00009ec0       ??_C@_0BK@KGJC@?$CBoopIsImm?$CIoArgumentCache?$CJ?$AA@ 004dfec0     exCOM.obj
 0003:00009edc       ??_C@_0FJ@BIJN@?$CIoArgumentCache?$CJ?5?$DN?$DN?5nonOop?5?$HM?$HM?5ob@ 004dfedc     exCOM.obj
 0003:00009f38       ??_C@_0CN@GEDB@waitOnCalloutSemaphore?$CIoReturnVa@ 004dff38     exCallC.obj
 0003:00009f68       ??_C@_0DB@LOBE@waitOnCalloutSemaphore?$CIsemaphore@ 004dff68     exCallC.obj
 0003:00009f9c       ??_C@_0ED@MMB@?$CBoopIsImm?$CIoVirtuals?$CJ?5?$CG?$CG?5objClass@ 004dff9c     exCallC.obj
 0003:00009fe0       ??_C@_0DJ@PNGG@numArgs?5?$DN?$DN?5?$CIoopInt?$CJ?$CIobjByteDataS@ 004dffe0     exCallC.obj
 0003:0000a01c       ??_C@_0FB@CNGC@?$CBoopIsImm?$CIoArgumentKinds?$CJ?5?$CG?$CG?5obj@ 004e001c     exCallC.obj
 0003:0000a070       ??_C@_0DA@IAND@Attempted?5external?5call?5prior?5to@ 004e0070     exCallC.obj
 0003:0000a0a0       ??_C@_0CB@OIOB@numArgs?5?$DN?$DN?5?$CIoopInt?$CJnmNumArgs?$CInm?$CJ@ 004e00a0     exCallC.obj
 0003:0000a0c4       ??_C@_0N@DNKC@?$CBnmIsPIC?$CInm?$CJ?$AA@ 004e00c4     exCallC.obj
 0003:0000a0d4       ??_C@_0BL@GECJ@?4?4?2?4?4?2?4?4?2src?2ext?2exCallC?4c?$AA@ 004e00d4     exCallC.obj
 0003:0000a0f0       ??_C@_0DE@LOBO@?$CIcurrentStack?$CJ?9?$DOsp?5?$DO?$DN?5lowestLega@ 004e00f0     exCallC.obj
 0003:0000a124       ??_C@_0BD@HMM@nmNumArgs?$CInm?$CJ?5?$DN?$DN?52?$AA@ 004e0124     exCallC.obj
 0003:0000a138       ??_C@_0BE@BDME@?$CBisTranFailCode?$CInm?$CJ?$AA@ 004e0138     exCallC.obj
 0003:0000a14c       ??_C@_0BH@FPP@unlinkedCall?5arguments?$AA@ 004e014c     exCallC.obj
 0003:0000a164       ??_C@_0DH@DJL@?$CIoArgArray?$CJ?5?$DN?$DN?5nonOop?5?$HM?$HM?5objData@ 004e0164     exCallC.obj
 0003:0000a19c       ??_C@_0CE@JINI@?$CB?$CIdontRoundUpSize?$CIi?$CJ?5?$CG?5tagBitsMa@ 004e019c     exCallC.obj
 0003:0000a1c0       ??_C@_0DF@JHPN@?$CBoopIsImm?$CIoArguments?$CJ?5?$CG?$CG?5?$CBobjIsN@ 004e01c0     exCallC.obj
 0003:0000a1f8       ??_C@_0DE@KCED@?$CBoopIsImm?$CIoArguments?$CJ?5?$CG?$CG?5objIsNe@ 004e01f8     exCallC.obj
 0003:0000a22c       ??_C@_0BG@HMMK@?$CBoopIsImm?$CIoArguments?$CJ?$AA@ 004e022c     exCallC.obj
 0003:0000a244       ??_C@_0FB@IJIC@?$CIoArguments?$CJ?5?$DN?$DN?5nonOop?5?$HM?$HM?5objDat@ 004e0244     exCallC.obj
 0003:0000a298       ??_C@_0BC@OJMM@?$CBobjHasPtrs?$CIooop?$CJ?$AA@ 004e0298     exCallSup.obj
 0003:0000a2ac       ??_C@_0BN@JLDL@?4?4?2?4?4?2?4?4?2src?2ext?2exCallSup?4c?$AA@ 004e02ac     exCallSup.obj
 0003:0000a2cc       ??_C@_0EA@HIJF@?$CIresult?$CJ?5?$DN?$DN?5nonOop?5?$HM?$HM?5objDataSiz@ 004e02cc     exCallSup.obj
 0003:0000a30c       ??_C@_0DD@GDDI@?$CIcopy?$CJ?5?$DN?$DN?5nonOop?5?$HM?$HM?5objDataSize?$CI@ 004e030c     exCallSup.obj
 0003:0000a340       ??_C@_0BF@FLHH@?$CBobjHasPtrs?$CIoString?$CJ?$AA@ 004e0340     exCallSup.obj
 0003:0000a358       ??_C@_0BH@EEEL@?$CBobjHasPtrs?$CIoReceiver?$CJ?$AA@ 004e0358     exCallSup.obj
 0003:0000a370       ??_C@_0BE@IJCM@probablyOop?$CIoDatum?$CJ?$AA@ 004e0370     exCallSup.obj
 0003:0000a384       ??_C@_0DF@OMPL@?$CBoopIsImm?$CI?$CK?$CI?$CGoDatum?$CJ?$CJ?5?$CG?$CG?5?$CBobjIsN@ 004e0384     exCallSup.obj
 0003:0000a3bc       ??_C@_0DE@DIMB@?$CBoopIsImm?$CI?$CK?$CI?$CGoDatum?$CJ?$CJ?5?$CG?$CG?5objIsNe@ 004e03bc     exCallSup.obj
 0003:0000a3f0       ??_C@_0BG@HPFF@?$CBoopIsImm?$CI?$CK?$CI?$CGoDatum?$CJ?$CJ?$AA@ 004e03f0     exCallSup.obj
 0003:0000a408       ??_C@_0CN@DJFF@?$CBoopIsImm?$CIoDatum?$CJ?5?$CG?$CG?5?$CBobjIsNewAs@ 004e0408     exCallSup.obj
 0003:0000a438       ??_C@_0CM@FKJD@?$CBoopIsImm?$CIoDatum?$CJ?5?$CG?$CG?5objIsNewAss@ 004e0438     exCallSup.obj
 0003:0000a464       ??_C@_0BC@GOGP@?$CBoopIsImm?$CIoDatum?$CJ?$AA@ 004e0464     exCallSup.obj
 0003:0000a478       ??_C@_0HF@NGJH@inheritsFrom3?$CIoDatumClass?0?5sysOo@ 004e0478     exCallSup.obj
 0003:0000a4f0       ??_C@_0DB@HAH@?$CIoDatum?$CJ?5?$DN?$DN?5nonOop?5?$HM?$HM?5objDataSiz@ 004e04f0     exCallSup.obj
 0003:0000a524       ??_C@_0DB@OIPJ@?$CIoDatum?$CJ?5?$DN?$DN?5nonOop?5?$HM?$HM?5objDataSiz@ 004e0524     exCallSup.obj
 0003:0000a558       ??_C@_0BJ@NDEO@probablyObj?$CIoDatumClass?$CJ?$AA@ 004e0558     exCallSup.obj
 0003:0000a574       ??_C@_0BD@DJPG@probablyObj?$CIoType?$CJ?$AA@ 004e0574     exCallSup.obj
 0003:0000a588       ??_C@_0BF@ENBC@oopIsImm?$CIoDatumKind?$CJ?$AA@ 004e0588     exCallSup.obj
 0003:0000a5a0       ??_C@_0BH@OGKJ@oopIsImm?$CIoPointerKind?$CJ?$AA@ 004e05a0     exCallSup.obj
 0003:0000a5b8       ??_C@_0BF@IKFF@probablyOop?$CIoResult?$CJ?$AA@ 004e05b8     exCallSup.obj
 0003:0000a5d0       ??_C@_09NPGF@size?5?$DO?$DN?50?$AA@ 004e05d0     exCallSup.obj
 0003:0000a5dc       ??_C@_0N@ODJJ@numFixed?5?$DO?50?$AA@ 004e05dc     exCallSup.obj
 0003:0000a5ec       ??_C@_0EA@FLGE@?$CIresult?$CJ?5?$DN?$DN?5nonOop?5?$HM?$HM?5objDataSiz@ 004e05ec     exDisplay.obj
 0003:0000a62c       ??_C@_0BN@FMO@?4?4?2?4?4?2?4?4?2src?2ext?2exDisplay?4c?$AA@ 004e062c     exDisplay.obj
 0003:0000a64c       ??_C@_0BE@CPCB@?$CBobjHasPtrs?$CIobjOop?$CJ?$AA@ 004e064c     exEndian.obj
 0003:0000a660       ??_C@_0BM@CDFD@?4?4?2?4?4?2?4?4?2src?2ext?2exEndian?4c?$AA@ 004e0660     exEndian.obj
 0003:0000a67c       ??_C@_0BE@LJBF@windowLabelEncoding?$AA@ 004e067c     exEnviron.obj
 0003:0000a690       ??_C@_0BM@FEE@IEEEFloatingPointPrimitives?$AA@ 004e0690     exEnviron.obj
 0003:0000a6ac       ??_C@_0BI@KBIF@catchExternalCallErrors?$AA@ 004e06ac     exEnviron.obj
 0003:0000a6c4       ??_C@_0BB@EMIE@acceptQuitEvents?$AA@ 004e06c4     exEnviron.obj
 0003:0000a6d8       ??_C@_0P@DKHP@sysOopRegistry?$AA@ 004e06d8     exEnviron.obj
 0003:0000a6e8       ??_C@_09CJCC@imageName?$AA@ 004e06e8     exEnviron.obj
 0003:0000a6f4       ??_C@_0BC@FEOF@ScavengeSemaphore?$AA@ 004e06f4     exEnviron.obj
 0003:0000a708       ??_C@_04KGEB@IA32?$AA@     004e0708     exEnviron.obj
 0003:0000a710       ??_C@_03LDKN@ISA?$AA@      004e0710     exEnviron.obj
 0003:0000a714       ??_C@_0CF@DHBD@copyToOEString?$CIobject?0?5copy?0?5len@ 004e0714     exEnviron.obj
 0003:0000a73c       ??_C@_0BE@GHBC@?$CBobjHasPtrs?$CIobject?$CJ?$AA@ 004e073c     exEnviron.obj
 0003:0000a750       ??_C@_0BN@GAPI@?4?4?2?4?4?2?4?4?2src?2ext?2exEnviron?4c?$AA@ 004e0750     exEnviron.obj
 0003:0000a770       ??_C@_0DC@DIEK@?$CIresult?$CJ?5?$DN?$DN?5nonOop?5?$HM?$HM?5objDataSiz@ 004e0770     exEnviron.obj
 0003:0000a7a4       ??_C@_0CN@BGLC@?$CBoopIsImm?$CImapOop?$CJ?5?$CG?$CG?5?$CBobjIsNewAs@ 004e07a4     exEnviron.obj
 0003:0000a7d4       ??_C@_0BC@NKBK@?$CBoopIsImm?$CImapOop?$CJ?$AA@ 004e07d4     exEnviron.obj
 0003:0000a7e8       ??_C@_0EH@BAL@?$CBoopIsImm?$CIreturnVal?$CJ?5?$CG?$CG?5objIsNew@ 004e07e8     exEnviron.obj
 0003:0000a830       ??_C@_0CP@BAIC@?$CBoopIsImm?$CInameOop?$CJ?5?$CG?$CG?5?$CBobjIsNewA@ 004e0830     exEnviron.obj
 0003:0000a860       ??_C@_0BD@PEIB@?$CBoopIsImm?$CInameOop?$CJ?$AA@ 004e0860     exEnviron.obj
 0003:0000a874       ??_C@_0DD@IBDD@?$CBoopIsImm?$CIreturnVal?$CJ?5?$CG?$CG?5?$CBobjIsNe@ 004e0874     exEnviron.obj
 0003:0000a8a8       ??_C@_0EI@DFFK@?$CBoopIsImm?$CIreturnVal?$CJ?5?$CG?$CG?5objIsNew@ 004e08a8     exEnviron.obj
 0003:0000a8f0       ??_C@_0BF@BHEE@?$CBoopIsImm?$CIreturnVal?$CJ?$AA@ 004e08f0     exEnviron.obj
 0003:0000a908       ??_C@_0EJ@LEKB@?$CIreturnVal?$CJ?5?$DN?$DN?5nonOop?5?$HM?$HM?5objData@ 004e0908     exEnviron.obj
 0003:0000a954       ??_C@_0EB@BGHB@?$CImapOop?$CJ?5?$DN?$DN?5nonOop?5?$HM?$HM?5objDataSiz@ 004e0954     exEnviron.obj
 0003:0000a998       ??_C@_0DO@NKLH@?$CInameOop?$CJ?5?$DN?$DN?5nonOop?5?$HM?$HM?5objDataSi@ 004e0998     exEnviron.obj
 0003:0000a9d8       ??_C@_0BG@HDIG@?$CBobjHasPtrs?$CIencoding?$CJ?$AA@ 004e09d8     exEnviron.obj
 0003:0000a9f0       ??_C@_0BI@OHEN@?$CBobjHasPtrs?$CIfirstArray?$CJ?$AA@ 004e09f0     exEnviron.obj
 0003:0000aa08       ??_C@_0BD@MAOK@?$CBobjHasPtrs?$CIcodes?$CJ?$AA@ 004e0a08     exEnviron.obj
 0003:0000aa1c       ??_C@_0DA@MPHI@bogus?5registration?5type?5returned@ 004e0a1c     exEnviron.obj
 0003:0000aa4c       ??_C@_0EA@EKJI@?$CBoopIsImm?$CIresult?$CJ?5?$CG?$CG?5objIsNewAss@ 004e0a4c     exEnviron.obj
 0003:0000aa8c       ??_C@_0BC@EGGB@oopIsImm?$CInumArgs?$CJ?$AA@ 004e0a8c     exEnviron.obj
 0003:0000aaa0       ??_C@_0CJ@DOOP@?$CBoopIsImm?$CIaddr?$CJ?5?$CG?$CG?5?$CBobjIsNewAsse@ 004e0aa0     exEnviron.obj
 0003:0000aacc       ??_C@_0CK@IMNH@?$CBoopIsImm?$CIdescr?$CJ?5?$CG?$CG?5objIsNewAsse@ 004e0acc     exEnviron.obj
 0003:0000aaf8       ??_C@_0CJ@EPNG@?$CBoopIsImm?$CIname?$CJ?5?$CG?$CG?5?$CBobjIsNewAsse@ 004e0af8     exEnviron.obj
 0003:0000ab24       ??_C@_0BA@OOKI@?$CBoopIsImm?$CIname?$CJ?$AA@ 004e0b24     exEnviron.obj
 0003:0000ab34       ??_C@_0CL@KEHB@?$CBoopIsImm?$CIdescr?$CJ?5?$CG?$CG?5?$CBobjIsNewAss@ 004e0b34     exEnviron.obj
 0003:0000ab60       ??_C@_0DN@DIID@?$CBoopIsImm?$CIdescr?$CJ?5?$CG?$CG?5objIsNewAsse@ 004e0b60     exEnviron.obj
 0003:0000aba0       ??_C@_0BB@PJHI@?$CBoopIsImm?$CIdescr?$CJ?$AA@ 004e0ba0     exEnviron.obj
 0003:0000abb4       ??_C@_0DN@KNPA@?$CIdescr?$CJ?5?$DN?$DN?5nonOop?5?$HM?$HM?5objDataSize@ 004e0bb4     exEnviron.obj
 0003:0000abf4       ??_C@_0CH@GCEG@?$CBoopIsImm?$CIstr?$CJ?5?$CG?$CG?5?$CBobjIsNewAsser@ 004e0bf4     exEnviron.obj
 0003:0000ac1c       ??_C@_0P@HGHO@?$CBoopIsImm?$CIstr?$CJ?$AA@ 004e0c1c     exEnviron.obj
 0003:0000ac2c       ??_C@_0DO@EAHF@?$CBoopIsImm?$CIresult?$CJ?5?$CG?$CG?5objIsNewAss@ 004e0c2c     exEnviron.obj
 0003:0000ac6c       ??_C@_0BE@JIBJ@an?5arbitrary?5limit?5?$AA@ 004e0c6c     exError.obj
 0003:0000ac80       ??_C@_0BH@EIBB@a?5virtual?5machine?5bug?5?$AA@ 004e0c80     exError.obj
 0003:0000ac98       ??_C@_0O@KLLJ@the?5platform?5?$AA@ 004e0c98     exError.obj
 0003:0000aca8       ??_C@_09LCGH@the?5user?5?$AA@ 004e0ca8     exError.obj
 0003:0000acb4       ??_C@_06ECGB@Note?3?5?$AA@ 004e0cb4     exError.obj
 0003:0000acbc       ??_C@_07MKMO@Error?3?5?$AA@ 004e0cbc     exError.obj
 0003:0000acc4       ??_C@_0O@LMBL@Fatal?5error?3?5?$AA@ 004e0cc4     exError.obj
 0003:0000acd4       ??_C@_0BO@KNAO@Space?5could?5not?5be?5allocated?4?$AA@ 004e0cd4     exError.obj
 0003:0000acf4       ??_C@_0CG@NMPD@Insufficient?5memory?5to?5allocate?5@ 004e0cf4     exError.obj
 0003:0000ad1c       ??_C@_0DM@BFAO@Your?5image?5file?5is?5not?5compatibl@ 004e0d1c     exError.obj
 0003:0000ad58       ??_C@_0BC@HIPL@Can?8t?5load?5image?4?$AA@ 004e0d58     exError.obj
 0003:0000ad6c       ??_C@_0DG@FP@Unable?5to?5read?5the?5image?5file?4?5F@ 004e0d6c     exError.obj
 0003:0000ada4       ??_C@_0P@PBOH@Out?5of?5memory?4?$AA@ 004e0da4     exError.obj
 0003:0000adb4       ??_C@_0BL@MHIL@Remembered?5table?5overflow?4?$AA@ 004e0db4     exError.obj
 0003:0000add0       ??_C@_09PBIA@No?5error?4?$AA@ 004e0dd0     exError.obj
 0003:0000addc       ??_C@_0CB@LDAK@Please?5contact?5your?5distributor?4@ 004e0ddc     exError.obj
 0003:0000ae00       ??_C@_01PJCK@?4?$AA@       004e0e00     exError.obj
 0003:0000ae04       ??_C@_0M@GGAH@?5caused?5by?5?$AA@ 004e0e04     exError.obj
 0003:0000ae10       ??_C@_06EOPA@?$CFs?5?$CFd?6?$AA@ 004e0e10     exError.obj
 0003:0000ae18       ??_C@_03HHKO@?$CFs?6?$AA@  004e0e18     exError.obj
 0003:0000ae1c       ??_C@_0O@PDOM@unknown?5error?$AA@ 004e0e1c     exError.obj
 0003:0000ae2c       ??_C@_0CI@EOJE@isMemberOf?$CIoTable?0?5sysOop?$CIarrayC@ 004e0e2c     exExport.obj
 0003:0000ae54       ??_C@_0GG@GFFL@?$CIsysOopRegistry?$FL12?$FN?$CJ?5?$CB?$DN?5sysOop?$CIs@ 004e0e54     exExport.obj
 0003:0000aebc       ??_C@_0BM@MOAM@?4?4?2?4?4?2?4?4?2src?2ext?2exExport?4c?$AA@ 004e0ebc     exExport.obj
 0003:0000aed8       ??_C@_0O@KNID@refCount?5?$DO?$DN?50?$AA@ 004e0ed8     exExport.obj
 0003:0000aee8       ??_C@_0P@DCIE@Can?8t?5open?5?$CFhs?$AA@ 004e0ee8     exInit.obj
 0003:0000aef8       ??_C@_0BM@PONE@No?5image?5filename?5supplied?4?$AA@ 004e0ef8     exInit.obj
 0003:0000af14       ??_C@_0BK@CBJF@?4?4?2?4?4?2?4?4?2src?2ext?2exInit?4c?$AA@ 004e0f14     exInit.obj
 0003:0000af30       ??_C@_0CL@IAP@Can?8t?5access?5image?5resource?$DL?5err@ 004e0f30     exInit.obj
 0003:0000af5c       ??_C@_0CI@OHJJ@platform?5has?5no?5translated?5float@ 004e0f5c     exInit.obj
 0003:0000af84       ??_C@_0DC@OAFH@?$CFsabling?5translated?5float?5prims?$DL@ 004e0f84     exInit.obj
 0003:0000afb8       ??_C@_03PCMF@dis?$AA@      004e0fb8     exInit.obj
 0003:0000afbc       ??_C@_02GPBN@en?$AA@       004e0fbc     exInit.obj
 0003:0000afc0       ??_C@_0FJ@PBN@?$CIerrorCodeTable?$CJ?5?$DN?$DN?5nonOop?5?$HM?$HM?5ob@ 004e0fc0     exInit.obj
 0003:0000b01c       ??_C@_0BE@KMOC@No?5room?5in?5registry?$AA@ 004e101c     exInit.obj
 0003:0000b030       ??_C@_0CL@OBAG@attempt?5to?5read?5past?5end?5of?5imag@ 004e1030     exInit.obj
 0003:0000b05c       ??_C@_0BL@BHDN@imResData?5?$CG?$CG?5imResSize?5?$DO?50?$AA@ 004e105c     exInit.obj
 0003:0000b078       ??_C@_0EI@DBKH@infStream?9?$DOavail_out?5?$DN?$DN?50?5?$CG?$CG?5inf@ 004e1078     exInit.obj
 0003:0000b0c0       ??_C@_0CH@KGBD@read?5past?5end?5of?5compressed?5imag@ 004e10c0     exInit.obj
 0003:0000b0e8       ??_C@_0CL@KBMI@read?5past?5end?5of?5compressed?5imag@ 004e10e8     exInit.obj
 0003:0000b114       ??_C@_0CL@KOHK@compressed?5image?5data?5has?5incorr@ 004e1114     exInit.obj
 0003:0000b140       ??_C@_0CD@CNHO@failed?5to?5initialize?5decompressi@ 004e1140     exInit.obj
 0003:0000b164       ??_C@_05IOHI@1?41?44?$AA@  004e1164     exInit.obj
 0003:0000b16c       ??_C@_0CN@HEPF@failed?5to?5initialize?5decompressi@ 004e116c     exInit.obj
 0003:0000b19c       ??_C@_0BK@FJBH@howMany?5?$DO?$DN?5GZ_HEADER_SIZE?$AA@ 004e119c     exInit.obj
 0003:0000b1b8       ??_C@_0CG@PJPD@imageFileBufferSize?5?$DO?$DN?5GZ_HEADER@ 004e11b8     exInit.obj
 0003:0000b1e0       ??_C@_0BP@ICFC@?$CBinfStream?5?$CG?$CG?5?$CBinflationBuffer?$AA@ 004e11e0     exInit.obj
 0003:0000b200       ??_C@_0FC@PCNA@?$CIvoid?5?$CK?$CJ?$CI?$CIz_stream?5?$CK?$CJ?$CI?$CIbyte?5?$CK?$CJzo@ 004e1200     exInit.obj
 0003:0000b254       ??_C@_0CD@CHIO@?$CIbyte?5?$CK?$CJzone?9?$DOazScan?5?$DM?5zone?9?$DOazE@ 004e1254     exInit.obj
 0003:0000b278       ??_C@_0BL@GENP@zone?9?$DOazFree?5?$DM?5zone?9?$DOazEnd?$AA@ 004e1278     exInit.obj
 0003:0000b294       ??_C@_0DF@PLFK@?$CIbyte?5?$CK?$CJzone?9?$DOazScan?5?$DO?$DN?5?$CIbyte?5?$CK?$CJ@ 004e1294     exInit.obj
 0003:0000b2cc       ??_C@_0CN@OIJC@zone?9?$DOazFree?5?$DO?$DN?5?$CIbyte?5?$CK?$CJzone?5?$CL?5O@ 004e12cc     exInit.obj
 0003:0000b2fc       ??_C@_0DH@OCNN@zone?9?$DOazEnd?5?$DM?$DN?5?$CIbyte?5?$CK?$CJzone?5?$CL?5OV@ 004e12fc     exInit.obj
 0003:0000b334       ??_C@_0DM@FKAK@?$CIbyte?5?$CK?$CJzone?5?$CL?5OVERHEAD_SIZE?5?$CL?5M@ 004e1334     exInit.obj
 0003:0000b370       ??_C@_0BF@LOEA@wellFormedZone?$CIzone?$CJ?$AA@ 004e1370     exInit.obj
 0003:0000b388       ??_C@_0CI@MPBH@Ran?5out?5of?5space?5while?5inflating@ 004e1388     exInit.obj
 0003:0000b3b0       ??_C@_0CB@BAL@oeConflateAlloc?5ran?5out?5of?5space@ 004e13b0     exInit.obj
 0003:0000b3d4       ??_C@_0BK@PBAP@?$CB?$CI?$CIfreeSizeOfP?5?9?5numQ?$CJ?$CG3?$CJ?$AA@ 004e13d4     exInit.obj
 0003:0000b3f0       ??_C@_0M@KJCI@?$CB?$CI?$CInumQ?$CJ?$CG3?$CJ?$AA@ 004e13f0     exInit.obj
 0003:0000b3fc       ??_C@_0P@IDJC@blockIsFree?$CIq?$CJ?$AA@ 004e13fc     exInit.obj
 0003:0000b40c       ??_C@_0IO@ELMI@?$CB?$CI?$CIfreeSizeOfP?5?$CL?5?$CI?$CI1?5?$CG?$CG?5?$CB?$CI?$CI?$CIq?$CJ?$FL0@ 004e140c     exInit.obj
 0003:0000b49c       ??_C@_0BF@LDLD@numQ?5?$DM?$DN?5maxBlockSize?$AA@ 004e149c     exInit.obj
 0003:0000b4b4       ??_C@_0CH@MEEE@blockUsedEnd?$CIp?$CJ?5?$DM?$DN?5?$CImbp?$CJzoneFree@ 004e14b4     exInit.obj
 0003:0000b4dc       ??_C@_0BA@DJC@?$CBblockIsFree?$CIp?$CJ?$AA@ 004e14dc     exInit.obj
 0003:0000b4ec       ??_C@_0CK@INJG@?$CIbyte?5?$CK?$CJp?5?$DO?$DN?5?$CIbyte?5?$CK?$CJzone?5?$CL?5OVER@ 004e14ec     exInit.obj
 0003:0000b518       ??_C@_0BE@IMJH@oeConflateInitAlloc?$AA@ 004e1518     exInit.obj
 0003:0000b52c       ??_C@_0BG@PCDJ@oeConflateInitHeapObj?$AA@ 004e152c     exInit.obj
 0003:0000b544       ??_C@_0M@MKCL@zlibVersion?$AA@ 004e1544     exInit.obj
 0003:0000b550       ??_C@_06CKFI@zError?$AA@   004e1550     exInit.obj
 0003:0000b558       ??_C@_07JAMG@gzerror?$AA@  004e1558     exInit.obj
 0003:0000b560       ??_C@_07CCBF@gzclose?$AA@  004e1560     exInit.obj
 0003:0000b568       ??_C@_05NIEB@gzeof?$AA@    004e1568     exInit.obj
 0003:0000b570       ??_C@_08HFBL@gzrewind?$AA@ 004e1570     exInit.obj
 0003:0000b57c       ??_C@_06PG@gztell?$AA@     004e157c     exInit.obj
 0003:0000b584       ??_C@_06MFD@gzseek?$AA@    004e1584     exInit.obj
 0003:0000b58c       ??_C@_07EDCE@gzflush?$AA@  004e158c     exInit.obj
 0003:0000b594       ??_C@_06OEIB@gzgetc?$AA@   004e1594     exInit.obj
 0003:0000b59c       ??_C@_06GKHE@gzputc?$AA@   004e159c     exInit.obj
 0003:0000b5a4       ??_C@_06ENPB@gzgets?$AA@   004e15a4     exInit.obj
 0003:0000b5ac       ??_C@_06MDAE@gzputs?$AA@   004e15ac     exInit.obj
 0003:0000b5b4       ??_C@_08IFEO@gzprintf?$AA@ 004e15b4     exInit.obj
 0003:0000b5c0       ??_C@_07INKK@gzwrite?$AA@  004e15c0     exInit.obj
 0003:0000b5c8       ??_C@_06HCPG@gzread?$AA@   004e15c8     exInit.obj
 0003:0000b5d0       ??_C@_0M@HBBM@gzsetparams?$AA@ 004e15d0     exInit.obj
 0003:0000b5dc       ??_C@_07JEPA@gzdopen?$AA@  004e15dc     exInit.obj
 0003:0000b5e4       ??_C@_06NNEH@gzopen?$AA@   004e15e4     exInit.obj
 0003:0000b5ec       ??_C@_0BB@BOKL@inflateSyncPoint?$AA@ 004e15ec     exInit.obj
 0003:0000b600       ??_C@_0M@HIBD@inflateSync?$AA@ 004e1600     exInit.obj
 0003:0000b60c       ??_C@_0BF@EMON@inflateSetDictionary?$AA@ 004e160c     exInit.obj
 0003:0000b624       ??_C@_0N@FLME@inflateReset?$AA@ 004e1624     exInit.obj
 0003:0000b634       ??_C@_0O@KGCD@inflateInit2_?$AA@ 004e1634     exInit.obj
 0003:0000b644       ??_C@_0N@GNKC@inflateInit_?$AA@ 004e1644     exInit.obj
 0003:0000b654       ??_C@_0L@ENML@inflateEnd?$AA@ 004e1654     exInit.obj
 0003:0000b660       ??_C@_07IAGA@inflate?$AA@  004e1660     exInit.obj
 0003:0000b668       ??_C@_0BF@ONIK@deflateSetDictionary?$AA@ 004e1668     exInit.obj
 0003:0000b680       ??_C@_0N@IFDO@deflateReset?$AA@ 004e1680     exInit.obj
 0003:0000b690       ??_C@_0O@HAOG@deflateParams?$AA@ 004e1690     exInit.obj
 0003:0000b6a0       ??_C@_0O@OAPN@deflateInit2_?$AA@ 004e16a0     exInit.obj
 0003:0000b6b0       ??_C@_0N@LDFI@deflateInit_?$AA@ 004e16b0     exInit.obj
 0003:0000b6c0       ??_C@_0L@NHIL@deflateEnd?$AA@ 004e16c0     exInit.obj
 0003:0000b6cc       ??_C@_0M@BKFB@deflateCopy?$AA@ 004e16cc     exInit.obj
 0003:0000b6d8       ??_C@_07HDOP@deflate?$AA@  004e16d8     exInit.obj
 0003:0000b6e0       ??_C@_0O@FCFC@get_crc_table?$AA@ 004e16e0     exInit.obj
 0003:0000b6f0       ??_C@_05BHCN@crc32?$AA@    004e16f0     exInit.obj
 0003:0000b6f8       ??_C@_07HJNK@adler32?$AA@  004e16f8     exInit.obj
 0003:0000b700       ??_C@_0CP@PLFO@SameThreads?$CIsmalltalkThread?0NBAP@ 004e1700     exInQueue.obj
 0003:0000b730       ??_C@_0BN@PAHC@?4?4?2?4?4?2?4?4?2src?2ext?2exInQueue?4c?$AA@ 004e1730     exInQueue.obj
 0003:0000b750       ??_C@_0BK@OIPL@Can?8t?5pdAlloc?5event?5queue?$AA@ 004e1750     exInQueue.obj
 0003:0000b76c       ??_C@_0BC@MLCI@?$CBobjHasPtrs?$CIarg1?$CJ?$AA@ 004e176c     exIO.obj
 0003:0000b780       ??_C@_0BI@ONLI@?4?4?2?4?4?2?4?4?2src?2ext?2exIO?4c?$AA@ 004e1780     exIO.obj
 0003:0000b798       ??_C@_0BB@GKLA@dump?5on?5vmExit?3?6?$AA@ 004e1798     exLeave.obj
 0003:0000b7ac       ??_C@_0BF@MIPL@probablyOop?$CIculprit?$CJ?$AA@ 004e17ac     exLeave.obj
 0003:0000b7c4       ??_C@_0BL@DFMB@?4?4?2?4?4?2?4?4?2src?2ext?2exLeave?4c?$AA@ 004e17c4     exLeave.obj
 0003:0000b7e0       ??_C@_07PBPM@len?5?$DO?50?$AA@ 004e17e0     exMemory.obj
 0003:0000b7e8       ??_C@_0BM@DIJG@?4?4?2?4?4?2?4?4?2src?2ext?2exMemory?4c?$AA@ 004e17e8     exMemory.obj
 0003:0000b804       ??_C@_0FE@FCIP@?$CBoopIsImm?$CIactiveProc?$CJ?5?$CG?$CG?5objIsNe@ 004e1804     exMessage.obj
 0003:0000b858       ??_C@_0IL@PKIB@?$CBoopIsImm?$CI?$CI?$CK?$CI?$CI?$CIoop?5?$CK?$CJ?$CI?$CIcallbackS@ 004e1858     exMessage.obj
 0003:0000b8e4       ??_C@_0KD@CNJN@?$CBoopIsImm?$CI?$CI?$CK?$CI?$CI?$CIoop?5?$CK?$CJ?$CI?$CIcallbackS@ 004e18e4     exMessage.obj
 0003:0000b988       ??_C@_0EB@PJHL@?$CBoopIsImm?$CI?$CI?$CK?$CI?$CI?$CIoop?5?$CK?$CJ?$CI?$CIcallbackS@ 004e1988     exMessage.obj
 0003:0000b9cc       ??_C@_0CK@MJML@lastLink?$CIcallbackSemaphore?$CJ?5?$CB?$DN?5a@ 004e19cc     exMessage.obj
 0003:0000b9f8       ??_C@_0ED@PLPE@?$CBoopIsImm?$CIcallbackSemaphore?$CJ?5?$CG?$CG?5@ 004e19f8     exMessage.obj
 0003:0000ba3c       ??_C@_0FL@NM@?$CBoopIsImm?$CIcallbackSemaphore?$CJ?5?$CG?$CG?5@ 004e1a3c     exMessage.obj
 0003:0000ba98       ??_C@_0BN@LLEC@?$CBoopIsImm?$CIcallbackSemaphore?$CJ?$AA@ 004e1a98     exMessage.obj
 0003:0000bab8       ??_C@_0CI@BICL@nextLink?$CIactiveProc?$CJ?5?$DN?$DN?5sysOop?$CIn@ 004e1ab8     exMessage.obj
 0003:0000bae0       ??_C@_0BP@LFDN@?$CBprocessIsRunnable?$CIactiveProc?$CJ?$AA@ 004e1ae0     exMessage.obj
 0003:0000bb00       ??_C@_0CK@PNCE@?$CBobjOnList?$CIcallbackSemaphore?0?5ac@ 004e1b00     exMessage.obj
 0003:0000bb2c       ??_C@_0DB@FNE@?$CBoopIsImm?$CIoContext?$CJ?5?$CG?$CG?5?$CBobjIsNew@ 004e1b2c     exMessage.obj
 0003:0000bb60       ??_C@_0BE@FMFF@?$CBoopIsImm?$CIoContext?$CJ?$AA@ 004e1b60     exMessage.obj
 0003:0000bb74       ??_C@_0DF@GLCB@?$CBoopIsImm?$CIactiveProc?$CJ?5?$CG?$CG?5?$CBobjIsN@ 004e1b74     exMessage.obj
 0003:0000bbac       ??_C@_0EL@INND@?$CBoopIsImm?$CIactiveProc?$CJ?5?$CG?$CG?5objIsNe@ 004e1bac     exMessage.obj
 0003:0000bbf8       ??_C@_0BG@PDDO@?$CBoopIsImm?$CIactiveProc?$CJ?$AA@ 004e1bf8     exMessage.obj
 0003:0000bc10       ??_C@_0EH@KEMO@?$CBoopIsImm?$CIscheduler?$CJ?5?$CG?$CG?5objIsNew@ 004e1c10     exMessage.obj
 0003:0000bc58       ??_C@_0BJ@PKOF@probablyOop?$CIoNewMessage?$CJ?$AA@ 004e1c58     exMessage.obj
 0003:0000bc74       ??_C@_0DL@JBIG@?$CBoopIsImm?$CIcalloutResult?$CJ?5?$CG?$CG?5?$CBobj@ 004e1c74     exMessage.obj
 0003:0000bcb0       ??_C@_0BJ@CIFN@?$CBoopIsImm?$CIcalloutResult?$CJ?$AA@ 004e1cb0     exMessage.obj
 0003:0000bccc       ??_C@_0DJ@JIEC@?$CBoopIsImm?$CIoOldPriority?$CJ?5?$CG?$CG?5?$CBobjI@ 004e1ccc     exMessage.obj
 0003:0000bd08       ??_C@_0CL@DNDB@?$CBoopIsImm?$CIoFail?$CJ?5?$CG?$CG?5?$CBobjIsNewAss@ 004e1d08     exMessage.obj
 0003:0000bd34       ??_C@_0BB@INED@?$CBoopIsImm?$CIoFail?$CJ?$AA@ 004e1d34     exMessage.obj
 0003:0000bd48       ??_C@_0BD@MOIG@probablyOop?$CIoFail?$CJ?$AA@ 004e1d48     exMessage.obj
 0003:0000bd5c       ??_C@_0CP@MJDJ@?$CBoopIsImm?$CI?$CKpoKeep?$CJ?5?$CG?$CG?5?$CBobjIsNewA@ 004e1d5c     exMessage.obj
 0003:0000bd8c       ??_C@_0BD@IKA@?$CBoopIsImm?$CI?$CKpoKeep?$CJ?$AA@ 004e1d8c     exMessage.obj
 0003:0000bda0       ??_C@_0BF@CKEH@probablyOop?$CI?$CKpoKeep?$CJ?$AA@ 004e1da0     exMessage.obj
 0003:0000bdb8       ??_C@_0GH@MGKJ@?$CBoopIsImm?$CIoExternalMessage?$CJ?5?$CG?$CG?5o@ 004e1db8     exMessage.obj
 0003:0000be20       ??_C@_0DD@DLGE@?$CBoopIsImm?$CIoSelector?$CJ?5?$CG?$CG?5?$CBobjIsNe@ 004e1e20     exMessage.obj
 0003:0000be54       ??_C@_0DD@COBK@?$CBoopIsImm?$CIoReceiver?$CJ?5?$CG?$CG?5?$CBobjIsNe@ 004e1e54     exMessage.obj
 0003:0000be88       ??_C@_0EB@ICCA@?$CBoopIsImm?$CIoExternalMessage?$CJ?5?$CG?$CG?5?$CB@ 004e1e88     exMessage.obj
 0003:0000becc       ??_C@_0EA@INNL@?$CBoopIsImm?$CIoExternalMessage?$CJ?5?$CG?$CG?5o@ 004e1ecc     exMessage.obj
 0003:0000bf0c       ??_C@_0BM@JBKC@?$CBoopIsImm?$CIoExternalMessage?$CJ?$AA@ 004e1f0c     exMessage.obj
 0003:0000bf28       ??_C@_0CP@MMEA@?$CBoopIsImm?$CIcontext?$CJ?5?$CG?$CG?5?$CBobjIsNewA@ 004e1f28     exMessage.obj
 0003:0000bf58       ??_C@_0BD@FNPG@?$CBoopIsImm?$CIcontext?$CJ?$AA@ 004e1f58     exMessage.obj
 0003:0000bf6c       ??_C@_0FB@PMKG@?$CBoopIsImm?$CIoMessageCommittedConte@ 004e1f6c     exMessage.obj
 0003:0000bfc0       ??_C@_0GG@JLCF@?$CBoopIsImm?$CIoMessageCommittedConte@ 004e1fc0     exMessage.obj
 0003:0000c028       ??_C@_0CE@EKKC@?$CBoopIsImm?$CIoMessageCommittedConte@ 004e2028     exMessage.obj
 0003:0000c04c       ??_C@_0CN@IPNK@?$CBoopIsImm?$CInilOop?$CJ?5?$CG?$CG?5?$CBobjIsNewAs@ 004e204c     exMessage.obj
 0003:0000c07c       ??_C@_0BC@IHEP@?$CBoopIsImm?$CInilOop?$CJ?$AA@ 004e207c     exMessage.obj
 0003:0000c090       ??_C@_0ED@DKC@?$CBoopIsImm?$CIprocess?$CJ?5?$CG?$CG?5objIsNewAs@ 004e2090     exMessage.obj
 0003:0000c0d4       ??_C@_0BI@BLFB@couldBeContext?$CIcontext?$CJ?$AA@ 004e20d4     exMessage.obj
 0003:0000c0ec       ??_C@_0CP@JCKK@?$CBoopIsImm?$CIprocess?$CJ?5?$CG?$CG?5?$CBobjIsNewA@ 004e20ec     exMessage.obj
 0003:0000c11c       ??_C@_0BD@POIM@?$CBoopIsImm?$CIprocess?$CJ?$AA@ 004e211c     exMessage.obj
 0003:0000c130       ??_C@_0DD@KCOC@?$CBoopIsImm?$CIscheduler?$CJ?5?$CG?$CG?5?$CBobjIsNe@ 004e2130     exMessage.obj
 0003:0000c164       ??_C@_0EI@HNKP@?$CBoopIsImm?$CIscheduler?$CJ?5?$CG?$CG?5objIsNew@ 004e2164     exMessage.obj
 0003:0000c1ac       ??_C@_0BF@KEJG@?$CBoopIsImm?$CIscheduler?$CJ?$AA@ 004e21ac     exMessage.obj
 0003:0000c1c4       ??_C@_0GH@NKEK@?$CIoMessageCommittedContext?$CJ?5?$DN?$DN?5no@ 004e21c4     exMessage.obj
 0003:0000c22c       ??_C@_0DH@BMG@objDataField?$CIscheduler?0?5oop?0?5act@ 004e222c     exMessage.obj
 0003:0000c264       ??_C@_0BM@JEIC@externalMessageClassX?5?$CB?$DN?5?91?$AA@ 004e2264     exMessage.obj
 0003:0000c280       ??_C@_0BP@LCFK@externalMessageSelectorX?5?$CB?$DN?5?91?$AA@ 004e2280     exMessage.obj
 0003:0000c2a0       ??_C@_0BI@KNEI@probablyOop?$CIoArguments?$CJ?$AA@ 004e22a0     exMessage.obj
 0003:0000c2b8       ??_C@_0BH@JJNF@probablyOop?$CIoSelector?$CJ?$AA@ 004e22b8     exMessage.obj
 0003:0000c2d0       ??_C@_0BH@NJIE@probablyOop?$CIoReceiver?$CJ?$AA@ 004e22d0     exMessage.obj
 0003:0000c2e8       ??_C@_0BN@NBK@?4?4?2?4?4?2?4?4?2src?2ext?2exMessage?4c?$AA@ 004e22e8     exMessage.obj
 0003:0000c308       ??_C@_0DH@CCFI@?$CBoopIsImm?$CIoNewMessage?$CJ?5?$CG?$CG?5?$CBobjIs@ 004e2308     exMessage.obj
 0003:0000c340       ??_C@_0FG@LEKK@?$CBoopIsImm?$CIoNewMessage?$CJ?5?$CG?$CG?5objIsN@ 004e2340     exMessage.obj
 0003:0000c398       ??_C@_0BH@ODDE@?$CBoopIsImm?$CIoNewMessage?$CJ?$AA@ 004e2398     exMessage.obj
 0003:0000c3b0       ??_C@_0CN@LCHP@?$CBoopIsImm?$CIoStack?$CJ?5?$CG?$CG?5?$CBobjIsNewAs@ 004e23b0     exMessage.obj
 0003:0000c3e0       ??_C@_0BC@KBDB@?$CBoopIsImm?$CIoStack?$CJ?$AA@ 004e23e0     exMessage.obj
 0003:0000c3f4       ??_C@_0DB@HBKG@?$CBoopIsImm?$CIoMessage?$CJ?5?$CG?$CG?5?$CBobjIsNew@ 004e23f4     exMessage.obj
 0003:0000c428       ??_C@_0EF@IJNC@?$CBoopIsImm?$CIoMessage?$CJ?5?$CG?$CG?5objIsNewA@ 004e2428     exMessage.obj
 0003:0000c470       ??_C@_0BE@DGGM@?$CBoopIsImm?$CIoMessage?$CJ?$AA@ 004e2470     exMessage.obj
 0003:0000c484       ??_C@_0FC@CMOK@?$CIoStack?$CJ?5?$DN?$DN?5nonOop?5?$HM?$HM?5objDataSiz@ 004e2484     exMessage.obj
 0003:0000c4d8       ??_C@_0CP@HEN@?$CBoopIsImm?$CIargs?$FLi?$FN?$CJ?5?$CG?$CG?5?$CBobjIsNewA@ 004e24d8     exMessage.obj
 0003:0000c508       ??_C@_0BD@JDAL@?$CBoopIsImm?$CIargs?$FLi?$FN?$CJ?$AA@ 004e2508     exMessage.obj
 0003:0000c51c       ??_C@_0DL@HHOJ@?$CBoopIsImm?$CIoArguments?$FLi?$FN?$CJ?5?$CG?$CG?5?$CBobj@ 004e251c     exMessage.obj
 0003:0000c558       ??_C@_0BJ@FIJM@?$CBoopIsImm?$CIoArguments?$FLi?$FN?$CJ?$AA@ 004e2558     exMessage.obj
 0003:0000c574       ??_C@_0FF@FJN@?$CIoArgArray?$CJ?5?$DN?$DN?5nonOop?5?$HM?$HM?5objData@ 004e2574     exMessage.obj
 0003:0000c5cc       ??_C@_0BE@NJJA@No?5such?5option?5?8?$CFc?8?$AA@ 004e25cc     exOption.obj
 0003:0000c5e0       ??_C@_07MHLD@options?$AA@  004e25e0     exOption.obj
 0003:0000c5e8       ??_C@_0CC@EBJM@Image?5filename?5already?5specified@ 004e25e8     exOption.obj
 0003:0000c60c       ??_C@_0BM@CHIO@?4?4?2?4?4?2?4?4?2src?2ext?2exOption?4c?$AA@ 004e260c     exOption.obj
 0003:0000c628       ??_C@_0BF@ODGB@size?5of?5nmethod?5zone?$AA@ 004e2628     exOption.obj
 0003:0000c640       ??_C@_07LILO@alltime?$AA@  004e2640     exOption.obj
 0003:0000c648       ??_C@_04DCJA@ound?$AA@     004e2648     exOption.obj
 0003:0000c650       ??_C@_06EEDI@osound?$AA@   004e2650     exOption.obj
 0003:0000c658       ??_C@_07CPIF@oherald?$AA@  004e2658     exOption.obj
 0003:0000c660       ??_C@_05CMEF@ologo?$AA@    004e2660     exOption.obj
 0003:0000c668       ??_C@_03BHE@ogo?$AA@       004e2668     exOption.obj
 0003:0000c66c       ??_C@_05OIPI@eeefp?$AA@    004e266c     exOption.obj
 0003:0000c674       ??_C@_0BG@MF@excess?5mbytes?5in?5heap?$AA@ 004e2674     exOption.obj
 0003:0000c68c       ??_C@_0BI@GOON@Missing?5argument?5to?5?9?$CFs?$AA@ 004e268c     exOption.obj
 0003:0000c6a4       ??_C@_06BPDO@onsole?$AA@   004e26a4     exOption.obj
 0003:0000c6ac       ??_C@_0DP@ECGO@Can?8t?5set?5option?5?8?$CFc?8?5?$CI?$CFs?$CJ?5to?5?$CFd@ 004e26ac     exOption.obj
 0003:0000c6ec       ??_C@_0DB@BINE@Option?5?8?$CFc?8?5?$CI?$CFs?$CJ?5badly?5formed?5op@ 004e26ec     exOption.obj
 0003:0000c720       ??_C@_0EMK@KAOE@?6Engine?5Options?3?6?6?9console?7open?5@ 004e2720     exOption.obj
 0003:0000cbec       ??_C@_0ML@NAKC@usage?3?5?$CFs?5?9console?5?9h?5bytes?5?9iee@ 004e2bec     exOption.obj
 0003:0000ccb8       ??_C@_0BD@BJPD@?$CBobjHasPtrs?$CIstStr?$CJ?$AA@ 004e2cb8     exPrimUtil.obj
 0003:0000cccc       ??_C@_0BO@JMEL@?4?4?2?4?4?2?4?4?2src?2ext?2exPrimUtil?4c?$AA@ 004e2ccc     exPrimUtil.obj
 0003:0000ccec       ??_C@_0BG@NCEN@?$CBobjDataImmobile?$CIobj?$CJ?$AA@ 004e2cec     exPrimUtil.obj
 0003:0000cd04       ??_C@_0BB@IEDB@probablyObj?$CIobj?$CJ?$AA@ 004e2d04     exPrimUtil.obj
 0003:0000cd18       ??_C@_0DD@KJE@?$CBoopIsImm?$CIparameter?$CJ?5?$CG?$CG?5?$CBobjIsNe@ 004e2d18     exPrimUtil.obj
 0003:0000cd4c       ??_C@_0CL@IEMB@?$CBoopIsImm?$CIclone?$CJ?5?$CG?$CG?5?$CBobjIsNewAss@ 004e2d4c     exPrimUtil.obj
 0003:0000cd78       ??_C@_0CK@INCC@?$CBoopIsImm?$CIclone?$CJ?5?$CG?$CG?5objIsNewAsse@ 004e2d78     exPrimUtil.obj
 0003:0000cda4       ??_C@_0BB@NLOL@?$CBoopIsImm?$CIclone?$CJ?$AA@ 004e2da4     exPrimUtil.obj
 0003:0000cdb8       ??_C@_0BH@JOLD@probablyOop?$CIparameter?$CJ?$AA@ 004e2db8     exPrimUtil.obj
 0003:0000cdd0       ??_C@_0BD@LAAP@probablyOop?$CIerror?$CJ?$AA@ 004e2dd0     exPrimUtil.obj
 0003:0000cde4       ??_C@_0BE@GHEE@errorCode?5?$CB?$DN?5nonOop?$AA@ 004e2de4     exPrimUtil.obj
 0003:0000cdf8       ??_C@_0CP@INOL@?$CBoopIsImm?$CIerrorPC?$CJ?5?$CG?$CG?5?$CBobjIsNewA@ 004e2df8     exPrimUtil.obj
 0003:0000ce28       ??_C@_0CP@LJO@?$CBoopIsImm?$CIerrorId?$CJ?5?$CG?$CG?5?$CBobjIsNewA@ 004e2e28     exPrimUtil.obj
 0003:0000ce58       ??_C@_0DD@EENH@?$CBoopIsImm?$CIerrorCode?$CJ?5?$CG?$CG?5?$CBobjIsNe@ 004e2e58     exPrimUtil.obj
 0003:0000ce8c       ??_C@_0EK@PAFM@probablyOop?$CIerrorType?$CJ?5?$CG?$CG?5?$CIerror@ 004e2e8c     exPrimUtil.obj
 0003:0000ced8       ??_C@_0DC@IPLG@?$CBoopIsImm?$CIerrorCode?$CJ?5?$CG?$CG?5objIsNew@ 004e2ed8     exPrimUtil.obj
 0003:0000cf0c       ??_C@_0BF@DDEN@?$CBoopIsImm?$CIerrorCode?$CJ?$AA@ 004e2f0c     exPrimUtil.obj
 0003:0000cf24       ??_C@_0EJ@JEAA@?$CIerrorCode?$CJ?5?$DN?$DN?5nonOop?5?$HM?$HM?5objData@ 004e2f24     exPrimUtil.obj
 0003:0000cf70       ??_C@_0BK@MNCA@widthTable?$FLindex?$FN?5?$DN?$DN?5NULL?$AA@ 004e2f70     exScanCh.obj
 0003:0000cf8c       ??_C@_0BM@FOHI@?4?4?2?4?4?2?4?4?2src?2ext?2exScanCh?4c?$AA@ 004e2f8c     exScanCh.obj
 0003:0000cfa8       ??_C@_0BK@JPLO@failed?5to?5set?1clear?5timer?$AA@ 004e2fa8     exTimer.obj
 0003:0000cfc4       ??_C@_0BL@HHNE@?4?4?2?4?4?2?4?4?2src?2ext?2exTimer?4c?$AA@ 004e2fc4     exTimer.obj
 0003:0000cfe0       ??_C@_0BO@LMFB@Unable?5to?5set?5feasible?5timer?$CB?$AA@ 004e2fe0     exTimer.obj
 0003:0000d000       ??_C@_0BI@CGFF@?$CBcurrent?5?$HM?$HM?5timerActive?$AA@ 004e3000     exTimer.obj
 0003:0000d018       ??_C@_07FBEE@dest?$FL6?$FN?$AA@ 004e3018     exTimer.obj
 0003:0000d020       ??_C@_0DN@GHPC@?$CIresult?$CJ?5?$DN?$DN?5nonOop?5?$HM?$HM?5objDataSiz@ 004e3020     exTimer.obj
 0003:0000d060       ??_C@_0BH@EIFI@?$CBobjHasPtrs?$CIoMicroSec?$CJ?$AA@ 004e3060     exTimer.obj
 0003:0000d078       ??_C@_0DD@GFN@?$CBoopIsImm?$CIpoopTable?$CJ?5?$CG?$CG?5?$CBobjIsNe@ 004e3078     exThapi.obj
 0003:0000d0ac       ??_C@_0FC@JDMI@?$CBoopIsImm?$CIpoopTable?$CJ?5?$CG?$CG?5objIsNew@ 004e30ac     exThapi.obj
 0003:0000d100       ??_C@_0BF@PKAE@?$CBoopIsImm?$CIpoopTable?$CJ?$AA@ 004e3100     exThapi.obj
 0003:0000d118       ??_C@_0CF@MNAN@Couldn?8t?5allocate?5NBAPI?5sysOop?5s@ 004e3118     exThapi.obj
 0003:0000d140       ??_C@_0CB@PPNG@Coudn?8t?5allocate?5NBAPI?5oopTables@ 004e3140     exThapi.obj
 0003:0000d164       ??_C@_0BP@HKJO@oldSpaceObjOk?$CIpoopTable?0FALSE?$CJ?$AA@ 004e3164     exThapi.obj
 0003:0000d184       ??_C@_0BP@BINJ@oldSpaceObjOk?$CIsoopTable?0FALSE?$CJ?$AA@ 004e3184     exThapi.obj
 0003:0000d1a4       ??_C@_0BL@MBBE@?4?4?2?4?4?2?4?4?2src?2ext?2exThapi?4c?$AA@ 004e31a4     exThapi.obj
 0003:0000d1c0       ??_C@_0CF@LFHI@SameThreads?$CIowner?0NBAPIThisThrea@ 004e31c0     exThapi.obj
 0003:0000d1e8       ??_C@_0L@GLFO@ListLocked?$AA@ 004e31e8     exThapi.obj
 0003:0000d1f4       ??_C@_0BG@NJIH@?$CB?$CIt?$CJ?5?$HM?$HM?5GoodTinfoP?$CIt?$CJ?$AA@ 004e31f4     exThapi.obj
 0003:0000d20c       ??_C@_0M@NACJ@?$CBListLocked?$AA@ 004e320c     exThapi.obj
 0003:0000d218       ??_C@_0CG@GPLK@?$CBSameThreads?$CIowner?0NBAPIThisThre@ 004e3218     exThapi.obj
 0003:0000d240       ??_C@_0BB@CGOL@ReleaseSemaphore?$AA@ 004e3240     exThapi.obj
 0003:0000d254       ??_C@_0BG@DGDG@t?9?$DOstate?5?$DN?$DN?5Quiescent?$AA@ 004e3254     exThapi.obj
 0003:0000d26c       ??_C@_0O@OBNH@GoodTinfoP?$CIt?$CJ?$AA@ 004e326c     exThapi.obj
 0003:0000d27c       ??_C@_0DJ@CGHH@?$CBoopIsImm?$CIsoopTableOop?$CJ?5?$CG?$CG?5?$CBobjI@ 004e327c     exThapi.obj
 0003:0000d2b8       ??_C@_0DI@CBFD@?$CBoopIsImm?$CIsoopTableOop?$CJ?5?$CG?$CG?5objIs@ 004e32b8     exThapi.obj
 0003:0000d2f0       ??_C@_0BI@CGAP@?$CBoopIsImm?$CIsoopTableOop?$CJ?$AA@ 004e32f0     exThapi.obj
 0003:0000d308       ??_C@_0CD@PFEK@?$CBoopIsImm?$CIv?$CJ?5?$CG?$CG?5?$CBobjIsNewAssert?$CI@ 004e3308     exThapi.obj
 0003:0000d32c       ??_C@_0DJ@NFIO@?$CBoopIsImm?$CIpoopTableOop?$CJ?5?$CG?$CG?5?$CBobjI@ 004e332c     exThapi.obj
 0003:0000d368       ??_C@_0DI@JNPJ@?$CBoopIsImm?$CIpoopTableOop?$CJ?5?$CG?$CG?5objIs@ 004e3368     exThapi.obj
 0003:0000d3a0       ??_C@_0BI@NFLJ@?$CBoopIsImm?$CIpoopTableOop?$CJ?$AA@ 004e33a0     exThapi.obj
 0003:0000d3b8       ??_C@_0BC@MEFE@nLive?5?$DN?$DN?5nThreads?$AA@ 004e33b8     exThapi.obj
 0003:0000d3cc       ??_C@_0CA@CDJC@?$CB?$CItinfos?$CJ?5?$HM?$HM?5GoodTinfoP?$CItinfos?$CJ?$AA@ 004e33cc     exThapi.obj
 0003:0000d3ec       ??_C@_0BC@KHKI@GoodTinfoP?$CIprevt?$CJ?$AA@ 004e33ec     exThapi.obj
 0003:0000d400       ??_C@_0CI@FMDA@?$CB?$CIthreads?$CJ?9?$DOnext?5?$HM?$HM?5GoodTinfoP?$CIt@ 004e3400     exThapi.obj
 0003:0000d428       ??_C@_0BE@EMHE@GoodTinfoP?$CIthreads?$CJ?$AA@ 004e3428     exThapi.obj
 0003:0000d43c       ??_C@_0CE@LGFM@?$CB?$CIt?$CJ?9?$DOnext?5?$HM?$HM?5GoodTinfoP?$CI?$CIt?$CJ?9?$DOne@ 004e343c     exThapi.obj
 0003:0000d460       ??_C@_0BK@CKKD@t?9?$DOstate?5?$DN?$DN?5ReturningBack?$AA@ 004e3460     exThapi.obj
 0003:0000d47c       ??_C@_0BE@FMEE@t?9?$DOstate?5?$DN?$DN?5Calling?$AA@ 004e347c     exThapi.obj
 0003:0000d490       ??_C@_0CB@DFNG@callback_args?5?$CB?$DN?5CALLBACK_FAILED@ 004e3490     exThapi.obj
 0003:0000d4b4       ??_C@_0CD@FCAD@?$CBSameThreads?$CIsmalltalkThread?0sel@ 004e34b4     exThapi.obj
 0003:0000d4d8       ??_C@_0OA@DHNO@validOop?$CItinfoSemaphore?$CIt?$CJ?$CJ?5?$CG?$CG?5o@ 004e34d8     exThapi.obj
 0003:0000d5b8       ??_C@_0CJ@IDFF@?$CBoopIsImm?$CIproc?$CJ?5?$CG?$CG?5?$CBobjIsNewAsse@ 004e35b8     exThapi.obj
 0003:0000d5e4       ??_C@_0DN@CMKA@?$CBoopIsImm?$CIproc?$CJ?5?$CG?$CG?5objIsNewAsser@ 004e35e4     exThapi.obj
 0003:0000d624       ??_C@_0BA@MEAN@?$CBoopIsImm?$CIproc?$CJ?$AA@ 004e3624     exThapi.obj
 0003:0000d634       ??_C@_0BA@BFGA@GoodShmemP?$CIsmp?$CJ?$AA@ 004e3634     exThapi.obj
 0003:0000d644       ??_C@_0BG@LIHN@ReallyKillOtherThread?$AA@ 004e3644     exThapi.obj
 0003:0000d65c       ??_C@_0O@HLJF@?$CBIsForeign?$CIt?$CJ?$AA@ 004e365c     exThapi.obj
 0003:0000d66c       ??_C@_0CC@GCP@?$CB?$CIthreads?$CJ?5?$HM?$HM?5GoodTinfoP?$CIthreads@ 004e366c     exThapi.obj
 0003:0000d690       ??_C@_0CG@GLCK@?$CB?$CItinfos?$CJ?9?$DOnext?5?$HM?$HM?5GoodTinfoP?$CIti@ 004e3690     exThapi.obj
 0003:0000d6b8       ??_C@_0BD@LIFA@GoodTinfoP?$CItinfos?$CJ?$AA@ 004e36b8     exThapi.obj
 0003:0000d6cc       ??_C@_05LLOB@FALSE?$AA@    004e36cc     exThapi.obj
 0003:0000d6d4       ??_C@_0BE@FJBF@WaitForSingleObject?$AA@ 004e36d4     exThapi.obj
 0003:0000d6e8       ??_C@_0O@OFGO@?$CBIsWaiting?$CIt?$CJ?$AA@ 004e36e8     exThapi.obj
 0003:0000d6f8       ??_C@_0M@GPEK@CloseHandle?$AA@ 004e36f8     exThapi.obj
 0003:0000d714       ??_C@_0BD@JPBB@GoodTinfoP?$CIvictim?$CJ?$AA@ 004e3714     exThapi.obj
 0003:0000d728       ??_C@_0BD@FMG@nAlive?5?$DN?$DN?5nThreads?$AA@ 004e3728     exThapi.obj
 0003:0000d73c       ??_C@_0KC@HENO@validOop?$CIsem?$CJ?5?$CG?$CG?5objDataField?$CIse@ 004e373c     exThapi.obj
 0003:0000d7e0       ??_C@_0BJ@KMIK@sem?5?$DN?$DN?5tinfoSemaphore?$CIt?$CJ?$AA@ 004e37e0     exThapi.obj
 0003:0000d7fc       ??_C@_0CJ@BAOK@?$CBoopIsImm?$CIctxt?$CJ?5?$CG?$CG?5?$CBobjIsNewAsse@ 004e37fc     exThapi.obj
 0003:0000d828       ??_C@_0BA@GNCM@?$CBoopIsImm?$CIctxt?$CJ?$AA@ 004e3828     exThapi.obj
 0003:0000d838       ??_C@_0DL@JLPM@?$CBoopIsImm?$CIproc?$CJ?5?$CG?$CG?5objIsNewAsser@ 004e3838     exThapi.obj
 0003:0000d874       ??_C@_0DL@GCDB@?$CInewSem?$CJ?5?$DN?$DN?5nonOop?5?$HM?$HM?5objDataSiz@ 004e3874     exThapi.obj
 0003:0000d8b0       ??_C@_0CO@JMMN@?$CB?$CIdontRoundUpSize?$CIbytesInData?$CJ?5?$CG@ 004e38b0     exThapi.obj
 0003:0000d8e0       ??_C@_0BN@CFFM@THAPI?3?5?$CFs?5?$CI?$CFld?3?$CFs?$CJ?5?$CI?$CFs?5?$CFld?$CJ?6?$AA@ 004e38e0     exThapi.obj
 0003:0000d900       ??_C@_0BC@OFHG@SetThreadPriority?$AA@ 004e3900     exThapi.obj
 0003:0000d914       ??_C@_0P@CDHG@_beginthreadex?$AA@ 004e3914     exThapi.obj
 0003:0000d924       ??_C@_0BA@IBPC@CreateSemaphore?$AA@ 004e3924     exThapi.obj
 0003:0000d934       ??_C@_07CNPM@UNKNOWN?$AA@  004e3934     exThapi.obj
 0003:0000d93c       ??_C@_04CINP@Dead?$AA@     004e393c     exThapi.obj
 0003:0000d944       ??_C@_05DHKA@Dying?$AA@    004e3944     exThapi.obj
 0003:0000d94c       ??_C@_0O@BNIH@ReturningBack?$AA@ 004e394c     exThapi.obj
 0003:0000d95c       ??_C@_0M@GLOC@CallingBack?$AA@ 004e395c     exThapi.obj
 0003:0000d968       ??_C@_09GLBK@Returning?$AA@ 004e3968     exThapi.obj
 0003:0000d974       ??_C@_07EIGA@Calling?$AA@  004e3974     exThapi.obj
 0003:0000d97c       ??_C@_09EIJE@Quiescent?$AA@ 004e397c     exThapi.obj
 0003:0000d988       ??_C@_07JFID@Nascent?$AA@  004e3988     exThapi.obj
 0003:0000d990       ??_C@_09OJMF@freelance?$AA@ 004e3990     exThapi.obj
 0003:0000d99c       ??_C@_04FFPJ@tied?$AA@     004e399c     exThapi.obj
 0003:0000d9a4       ??_C@_07EPGF@foreign?$AA@  004e39a4     exThapi.obj
 0003:0000d9ac       ??_C@_0JI@NLLI@?$CFs?5thread?5?$CFul?$CI?$CFlx?$CJ?5tinfo?50x?$CFlx?7?$CF@ 004e39ac     exThapi.obj
 0003:0000da44       ??_C@_0M@GFHH@not?5waiting?$AA@ 004e3a44     exThapi.obj
 0003:0000da50       ??_C@_07JGNJ@waiting?$AA@  004e3a50     exThapi.obj
 0003:0000da58       ??_C@_01BJG@?6?$AA@        004e3a58     exThapi.obj
 0003:0000da5c       ??_C@_0BH@MNHN@?6Active?5threads?5list?3?6?$AA@ 004e3a5c     exThapi.obj
 0003:0000da74       ??_C@_0BK@LBEK@?6Unattached?5tinfos?5list?3?6?$AA@ 004e3a74     exThapi.obj
 0003:0000da90       ??_C@_0DP@IAKJ@nil?3?5?$CFlx?5?5NBAPITableIndex?3?5?$CFlx?7s@ 004e3a90     exThapi.obj
 0003:0000dad0       ??_C@_0M@KMJB@?$CK?$CIdest?5?9?51?$CJ?$AA@ 004e3ad0     prArithmetic.obj
 0003:0000dadc       ??_C@_0DI@DJNB@?$CIintOop?$CJ?5?$DN?$DN?5nonOop?5?$HM?$HM?5objDataSiz@ 004e3adc     prArithmetic.obj
 0003:0000db14       ??_C@_0CB@IHNF@?4?4?2?4?4?2?4?4?2src?2prim?2prArithmetic?4c@ 004e3b14     prArithmetic.obj
 0003:0000db38       ??_C@_0CJ@CIKM@?$CBoopIsImm?$CIarg1?$CJ?5?$CG?$CG?5?$CBobjIsNewAsse@ 004e3b38     prArithmetic.obj
 0003:0000db64       ??_C@_0DB@EMJJ@?$CBoopIsImm?$CIreceiver?$CJ?5?$CG?$CG?5?$CBobjIsNew@ 004e3b64     prArithmetic.obj
 0003:0000db98       ??_C@_0DC@LONB@?$CBoopIsImm?$CIresultOop?$CJ?5?$CG?$CG?5objIsNew@ 004e3b98     prArithmetic.obj
 0003:0000dbcc       ??_C@_0DN@KAJD@?$CIresultOop?$CJ?5?$DN?$DN?5nonOop?5?$HM?$HM?5objData@ 004e3bcc     prArithmetic.obj
 0003:0000dc0c       ??_C@_0DB@DFLH@?$CIoFloat?$CJ?5?$DN?$DN?5nonOop?5?$HM?$HM?5objDataSiz@ 004e3c0c     prCtoST.obj
 0003:0000dc40       ??_C@_0BM@IEDL@?4?4?2?4?4?2?4?4?2src?2prim?2prCtoST?4c?$AA@ 004e3c40     prCtoST.obj
 0003:0000dc5c       ??_C@_0DN@FLDP@?$CIoString?$CJ?5?$DN?$DN?5nonOop?5?$HM?$HM?5objDataSi@ 004e3c5c     prCtoST.obj
 0003:0000dc9c       ??_C@_0ED@KGJN@?$CIoByteArray?$CJ?5?$DN?$DN?5nonOop?5?$HM?$HM?5objDat@ 004e3c9c     prCtoST.obj
 0003:0000dce0       ??_C@_0CN@IIPM@?$CBoopIsImm?$CIoArray?$CJ?5?$CG?$CG?5?$CBobjIsNewAs@ 004e3ce0     prCtoST.obj
 0003:0000dd10       ??_C@_0CM@JBND@?$CBoopIsImm?$CIoArray?$CJ?5?$CG?$CG?5objIsNewAss@ 004e3d10     prCtoST.obj
 0003:0000dd3c       ??_C@_0BC@MJKK@?$CBoopIsImm?$CIoArray?$CJ?$AA@ 004e3d3c     prCtoST.obj
 0003:0000dd50       ??_C@_0EN@BACK@?$CIoArray?$CJ?5?$DN?$DN?5nonOop?5?$HM?$HM?5objDataSiz@ 004e3d50     prCtoST.obj
 0003:0000dda0       ??_C@_0CN@OFKI@?$CBoopIsImm?$CIoFloat?$CJ?5?$CG?$CG?5?$CBobjIsNewAs@ 004e3da0     prCtoST.obj
 0003:0000ddd0       ??_C@_0DD@EOJA@?$CIoDouble?$CJ?5?$DN?$DN?5nonOop?5?$HM?$HM?5objDataSi@ 004e3dd0     prCtoST.obj
 0003:0000de04       ??_C@_0DH@KPGL@?$CIdoubleOop?$CJ?5?$DN?$DN?5nonOop?5?$HM?$HM?5objData@ 004e3e04     prDouble.obj
 0003:0000de3c       ??_C@_0BN@JBCC@?4?4?2?4?4?2?4?4?2src?2prim?2prDouble?4c?$AA@ 004e3e3c     prDouble.obj
 0003:0000de5c       ??_C@_0DF@DLMJ@?$CIfloatOop?$CJ?5?$DN?$DN?5nonOop?5?$HM?$HM?5objDataS@ 004e3e5c     prDouble.obj
 0003:0000de94       ??_C@_0DH@DPLF@?$CIoopResult?$CJ?5?$DN?$DN?5nonOop?5?$HM?$HM?5objData@ 004e3e94     prDouble.obj
 0003:0000ded0       __real@8@40008000000000000000 004e3ed0     prDouble.obj
 0003:0000ded8       ??_C@_0BM@BAOJ@?4?4?2?4?4?2?4?4?2src?2prim?2prFloat?4c?$AA@ 004e3ed8     prFloat.obj
 0003:0000def4       ??_C@_0DH@NAEL@?$CIoopResult?$CJ?5?$DN?$DN?5nonOop?5?$HM?$HM?5objData@ 004e3ef4     prFloat.obj
 0003:0000df2c       __real@4@40008000000000000000 004e3f2c     prFloat.obj
 0003:0000df30       __real@4@00000000000000000000 004e3f30     prFloat.obj
 0003:0000df34       ??_C@_0DA@HKOP@smallHighByteShouldBeThisValue?5?$DN@ 004e3f34     prLarge.obj
 0003:0000df64       ??_C@_0BM@NIBB@?4?4?2?4?4?2?4?4?2src?2prim?2prLarge?4c?$AA@ 004e3f64     prLarge.obj
 0003:0000df80       ??_C@_0FD@FFHE@oopIsImm?$CIresult?9?$DOooop?$CJ?5?$DP?5oopIsIn@ 004e3f80     prLarge.obj
 0003:0000dfd4       ??_C@_0BH@OFBI@integerDataClean?$CI?$CGarg?$CJ?$AA@ 004e3fd4     prLarge.obj
 0003:0000dfec       ??_C@_0BG@LABF@?$CBobjHasPtrs?$CIargument?$CJ?$AA@ 004e3fec     prLarge.obj
 0003:0000e004       ??_C@_0BI@MDLI@integerDataClean?$CI?$CGrcvr?$CJ?$AA@ 004e4004     prLarge.obj
 0003:0000e01c       ??_C@_0BG@ODAI@?$CBobjHasPtrs?$CIreceiver?$CJ?$AA@ 004e401c     prLarge.obj
 0003:0000e034       ??_C@_0BH@BIKD@?$CBobjHasPtrs?$CInum?9?$DOooop?$CJ?$AA@ 004e4034     prLarge.obj
 0003:0000e04c       ??_C@_0BA@IFNO@?$CBobjHasPtrs?$CIli?$CJ?$AA@ 004e404c     prLarge.obj
 0003:0000e05c       ??_C@_0BG@HANO@integerDataClean?$CInum?$CJ?$AA@ 004e405c     prLarge.obj
 0003:0000e074       ??_C@_0BI@HDEP@integerObjectClean?$CIres?$CJ?$AA@ 004e4074     prLarge.obj
 0003:0000e08c       ??_C@_0CP@BFIG@?$CIres?$CJ?5?$DN?$DN?5nonOop?5?$HM?$HM?5objDataSize?$CIr@ 004e408c     prLarge.obj
 0003:0000e0bc       ??_C@_0DD@ONEE@?$CIoopUInt?$CJ?$CInum?9?$DOsize?$CJ?5?$DN?$DN?5objByteD@ 004e40bc     prLarge.obj
 0003:0000e0f0       ??_C@_0EM@IOOP@num?9?$DOdata?5?$DN?$DN?5?$CIoopIsImm?$CInum?9?$DOooop@ 004e40f0     prLarge.obj
 0003:0000e13c       ??_C@_0DI@CC@?$CInewIntOop?$CJ?5?$DN?$DN?5nonOop?5?$HM?$HM?5objData@ 004e413c     prLarge.obj
 0003:0000e174       ??_C@_0EK@DDOG@oopIsImm?$CIprod?4ooop?$CJ?5?$DP?5oopIsInt?$CIp@ 004e4174     prLarge.obj
 0003:0000e1c0       ??_C@_0EK@KKLM@oopIsImm?$CIquo?9?$DOooop?$CJ?5?$DP?5oopIsInt?$CIq@ 004e41c0     prLarge.obj
 0003:0000e20c       ??_C@_0FA@CKBF@oopIsImm?$CIrmndr?9?$DOooop?$CJ?5?$DP?5oopIsInt@ 004e420c     prLarge.obj
 0003:0000e25c       ??_C@_0FA@MJNG@oopIsImm?$CIresult?4ooop?$CJ?5?$DP?5oopIsInt@ 004e425c     prLarge.obj
 0003:0000e2ac       ??_C@_0EE@DGJN@oopIsImm?$CIv?9?$DOooop?$CJ?5?$DP?5oopIsInt?$CIv?9?$DO@ 004e42ac     prLarge.obj
 0003:0000e2f0       ??_C@_0BD@IMFE@?$CBobjHasPtrs?$CIacopy?$CJ?$AA@ 004e42f0     prLarge.obj
 0003:0000e304       ??_C@_0BD@GILG@?$CBobjHasPtrs?$CIrcopy?$CJ?$AA@ 004e4304     prLarge.obj
 0003:0000e318       ??_C@_0DC@ICLM@?$CIrcopy?$CJ?5?$DN?$DN?5nonOop?5?$HM?$HM?5objDataSize@ 004e4318     prLarge.obj
 0003:0000e34c       ??_C@_0DC@NKAO@?$CIacopy?$CJ?5?$DN?$DN?5nonOop?5?$HM?$HM?5objDataSize@ 004e434c     prLarge.obj
 0003:0000e380       ??_C@_0CC@NBFO@?$CIq8?$CK?$CJdp?5?$DM?5?$CIarg?9?$DOdata?5?$CL?5arg?9?$DOsize@ 004e4380     prLarge.obj
 0003:0000e3a4       ??_C@_07KHJG@j?5?$DM?5lim?$AA@ 004e43a4     prLarge.obj
 0003:0000e3ac       ??_C@_0CN@LPHA@?$CIaccU?5?$DO?$DO?5qBits?$CJ?5?$DN?$DN?50?5?$CG?$CG?5?$CIaccV?5?$DO?$DO@ 004e43ac     prLarge.obj
 0003:0000e3dc       ??_C@_09OEJG@overflow?6?$AA@ 004e43dc     prLarge.obj
 0003:0000e3e8       ??_C@_0BN@NOJM@Can?8t?5allocate?5enough?5memory?$AA@ 004e43e8     prLinkRegistry.obj
 0003:0000e408       ??_C@_0CD@NLPJ@?4?4?2?4?4?2?4?4?2src?2prim?2prLinkRegistry@ 004e4408     prLinkRegistry.obj
 0003:0000e42c       ??_C@_0CC@CAHL@dummyObj?$CIobjOop?$CJ?5?$HM?$HM?5objOk?$CIobjOop@ 004e442c     mm.obj
 0003:0000e450       ??_C@_0CG@HEAK@objHasValidWeaknessProperties?$CIob@ 004e4450     mm.obj
 0003:0000e478       ??_C@_0BL@EEMM@?$CBobjIsNewForAssert?$CIobjOop?$CJ?$AA@ 004e4478     mm.obj
 0003:0000e494       ??_C@_0EB@JNLL@?$CBoopIsImm?$CI?$CIbyteArrayClass?$CJ?$CJ?5?$CG?$CG?5?$CB@ 004e4494     mm.obj
 0003:0000e4d8       ??_C@_0BM@IAGE@?$CBoopIsImm?$CI?$CIbyteArrayClass?$CJ?$CJ?$AA@ 004e44d8     mm.obj
 0003:0000e4f4       ??_C@_0CN@MIGP@?$CBoopIsImm?$CIobjOop?$CJ?5?$CG?$CG?5?$CBobjIsNewAs@ 004e44f4     mm.obj
 0003:0000e524       ??_C@_0CG@BMFO@?$CBoopIsImm?$CIobjOop?$CJ?5?$CG?$CG?5objIsOld?$CIob@ 004e4524     mm.obj
 0003:0000e54c       ??_C@_0BN@KAAB@objDataInHandleSpace?$CIobjOop?$CJ?$AA@ 004e454c     mm.obj
 0003:0000e56c       ??_C@_0BK@CCIA@objDataInOldSpace?$CIobjOop?$CJ?$AA@ 004e456c     mm.obj
 0003:0000e588       ??_C@_0BO@CLCP@objBodyPtr?$CIobjOop?0?5oop?$CJ?5?$DN?$DN?5bp?$AA@ 004e4588     mm.obj
 0003:0000e5a8       ??_C@_0CA@LJJN@?$CIsize?$CJ?5?$DM?5largestOldSpaceSegment?$AA@ 004e45a8     mm.obj
 0003:0000e5c8       ??_C@_0BH@LBEL@?4?4?2?4?4?2?4?4?2src?2mman?2mm?4c?$AA@ 004e45c8     mm.obj
 0003:0000e5e0       ??_C@_0BF@NEIK@objIsMarked?$CIdataOop?$CJ?$AA@ 004e45e0     mm.obj
 0003:0000e5f8       ??_C@_0EF@OJFN@oopIsInt?$CIdataOop?$CJ?5?$HM?$HM?5oopIsChar?$CId@ 004e45f8     mm.obj
 0003:0000e640       ??_C@_0BP@JOOC@?$CBobjIsMarked?$CIobjClass?$CIobjOop?$CJ?$CJ?$AA@ 004e4640     mm.obj
 0003:0000e660       ??_C@_0BA@HC@objInRt?$CIobjOop?$CJ?$AA@ 004e4660     mm.obj
 0003:0000e670       ??_C@_0BE@HPHI@objIsAlive?$CIdataOop?$CJ?$AA@ 004e4670     mm.obj
 0003:0000e684       ??_C@_0CB@HICC@oteIsAlignedInSeg?$CIooop?0?5?$CKsegPtr?$CJ@ 004e4684     mm.obj
 0003:0000e6a8       ??_C@_0CC@LCF@oteIsAlignedInSeg?$CIooop?0?5oldSpace@ 004e46a8     mm.obj
 0003:0000e6cc       ??_C@_0L@OGAB@objIsAlive?$AA@ 004e46cc     mm.obj
 0003:0000e6d8       ??_C@_0CD@MJI@oteIsAlignedInSeg?$CIooop?0?5permSpac@ 004e46d8     mm.obj
 0003:0000e6fc       ??_C@_0BH@HKNJ@objIsAlive?5in?5newSpace?$AA@ 004e46fc     mm.obj
 0003:0000e714       ??_C@_0BB@LGDA@couldBeObj?$CIooop?$CJ?$AA@ 004e4714     mm.obj
 0003:0000e728       ??_C@_0CA@JJPK@oopIsInt?$CIobj?$CJ?5?$HM?$HM?5oopIsChar?$CIobj?$CJ?$AA@ 004e4728     mm.obj
 0003:0000e748       ??_C@_0DD@EEEG@?$CBoopIsImm?$CI?$CIclssTag?$CJ?$CJ?5?$CG?$CG?5?$CBobjIsNe@ 004e4748     mm.obj
 0003:0000e77c       ??_C@_0BF@OAE@?$CBoopIsImm?$CI?$CIclssTag?$CJ?$CJ?$AA@ 004e477c     mm.obj
 0003:0000e794       ??_C@_0EI@LDCF@?$CBoopIsImm?$CIreceiver?$CJ?5?$CG?$CG?5objIsNewA@ 004e4794     mm.obj
 0003:0000e7dc       ??_C@_0BA@HHPL@objOk?$CIanObject?$CJ?$AA@ 004e47dc     mm.obj
 0003:0000e7ec       ??_C@_0BA@DJLJ@objOk?$CIreceiver?$CJ?$AA@ 004e47ec     mm.obj
 0003:0000e7fc       ??_C@_0CN@LPAO@?$CBoopIsImm?$CIaClass?$CJ?5?$CG?$CG?5?$CBobjIsNewAs@ 004e47fc     mm.obj
 0003:0000e82c       ??_C@_0DB@CBFK@?$CBoopIsImm?$CIanObject?$CJ?5?$CG?$CG?5?$CBobjIsNew@ 004e482c     mm.obj
 0003:0000e860       ??_C@_0BC@JFAL@?$CBoopIsImm?$CIaClass?$CJ?$AA@ 004e4860     mm.obj
 0003:0000e874       ??_C@_0EF@HGOO@?$CBoopIsImm?$CIanObject?$CJ?5?$CG?$CG?5objIsNewA@ 004e4874     mm.obj
 0003:0000e8bc       ??_C@_0BF@EMLP@couldBeOop?$CIclassOop?$CJ?$AA@ 004e48bc     mmAllocate.obj
 0003:0000e8d4       ??_C@_0BP@JCDO@?4?4?2?4?4?2?4?4?2src?2mman?2mmAllocate?4c?$AA@ 004e48d4     mmAllocate.obj
 0003:0000e8f4       ??_C@_0CG@JBDA@objHasValidWeaknessProperties?$CIne@ 004e48f4     mmAllocate.obj
 0003:0000e91c       ??_C@_0DL@JALG@?$CInewOop?$CJ?5?$DN?$DN?5nonOop?5?$HM?$HM?5objDataSiz@ 004e491c     mmAllocate.obj
 0003:0000e958       ??_C@_0CG@HBLG@classType?$CIclassOop?$CJ?5?$DN?$DN?5fixedSize@ 004e4958     mmAllocate.obj
 0003:0000e980       ??_C@_0DL@FIFO@?$CInewOop?$CJ?5?$DN?$DN?5nonOop?5?$HM?$HM?5objDataSiz@ 004e4980     mmAllocate.obj
 0003:0000e9bc       ??_C@_0BB@LPCP@numElements?5?$DO?$DN?50?$AA@ 004e49bc     mmAllocate.obj
 0003:0000e9d0       ??_C@_0CJ@HJDA@classType?$CIclassOop?$CJ?5?$DN?$DN?5variableS@ 004e49d0     mmAllocate.obj
 0003:0000e9fc       ??_C@_0N@PNHC@objOk?$CIclone?$CJ?$AA@ 004e49fc     mmAllocate.obj
 0003:0000ea0c       ??_C@_0DC@GNFM@?$CIclone?$CJ?5?$DN?$DN?5nonOop?5?$HM?$HM?5objDataSize@ 004e4a0c     mmAllocate.obj
 0003:0000ea40       ??_C@_0CH@KAAE@?$CB?$CIdontRoundUpSize?$CIsize?$CJ?5?$CG?5tagBit@ 004e4a40     mmAllocate.obj
 0003:0000ea68       ??_C@_0O@IIJL@objOk?$CImaster?$CJ?$AA@ 004e4a68     mmAllocate.obj
 0003:0000ea78       ??_C@_0BC@JJLN@?$CBoopIsImm?$CImaster?$CJ?$AA@ 004e4a78     mmAllocate.obj
 0003:0000ea8c       ??_C@_0BJ@MDIL@sizeSlots?5?$DN?$DN?5newSlotSize?$AA@ 004e4a8c     mmAllocate.obj
 0003:0000eaa8       ??_C@_0O@OILF@objIsNew?$CIobj?$CJ?$AA@ 004e4aa8     mmAllocate.obj
 0003:0000eab8       ??_C@_0CC@DKHI@?$CBoopIsImm?$CIobj?$CJ?5?$CG?$CG?5?$CBobjIsPerm?$CIobj@ 004e4ab8     mmAllocate.obj
 0003:0000eadc       ??_C@_0O@IOPI@objOk?$CInewOop?$CJ?$AA@ 004e4adc     mmAllocate.obj
 0003:0000eaec       ??_C@_0DI@COMP@?$CInewOop?$CJ?5?$DN?$DN?5nonOop?5?$HM?$HM?5objDataSiz@ 004e4aec     mmAllocate.obj
 0003:0000eb24       ??_C@_0CL@NANA@?$CB?$CIdontRoundUpSize?$CIdataSize?$CJ?5?$CG?5ta@ 004e4b24     mmAllocate.obj
 0003:0000eb50       ??_C@_0BD@PGLA@objHasPtrs?$CInewOop?$CJ?$AA@ 004e4b50     mmAllocate.obj
 0003:0000eb64       ??_C@_0BG@NEIJ@objectMemoryOk?$CIFALSE?$CJ?$AA@ 004e4b64     mmBecome.obj
 0003:0000eb7c       ??_C@_0BE@LCAP@fixedSpaceOk?$CIFALSE?$CJ?$AA@ 004e4b7c     mmBecome.obj
 0003:0000eb90       ??_C@_0BE@NJEC@largeSpaceOk?$CIFALSE?$CJ?$AA@ 004e4b90     mmBecome.obj
 0003:0000eba4       ??_C@_0BN@MMNC@?4?4?2?4?4?2?4?4?2src?2mman?2mmBecome?4c?$AA@ 004e4ba4     mmBecome.obj
 0003:0000ebc4       ??_C@_0P@HGFE@objIsOld?$CIoop1?$CJ?$AA@ 004e4bc4     mmBecome.obj
 0003:0000ebd4       ??_C@_0BL@JCEL@objDataInTaggedSpace?$CIoop1?$CJ?$AA@ 004e4bd4     mmBecome.obj
 0003:0000ebf0       ??_C@_0BL@KJLE@objDataInTaggedSpace?$CIoop2?$CJ?$AA@ 004e4bf0     mmBecome.obj
 0003:0000ec0c       ??_C@_0BL@FNMJ@objOk?$CIoop1?$CJ?5?$CG?$CG?5objOk?$CIoop2?$CJ?$AA@ 004e4c0c     mmBecome.obj
 0003:0000ec28       ??_C@_0CD@LIJG@?$CBoopIsImm?$CIoop1?$CJ?5?$CG?$CG?5?$CBoopIsImm?$CIoop@ 004e4c28     mmBecome.obj
 0003:0000ec4c       ??_C@_0CE@DAEI@dummyObj?$CInewCopy?$CJ?5?$HM?$HM?5objOk?$CInewCo@ 004e4c4c     mmBecome.obj
 0003:0000ec70       ??_C@_0CH@JHON@objHasValidWeaknessProperties?$CIne@ 004e4c70     mmBecome.obj
 0003:0000ec98       ??_C@_0BM@KNN@?$CBobjIsNewForAssert?$CInewCopy?$CJ?$AA@ 004e4c98     mmBecome.obj
 0003:0000ecb4       ??_C@_0CP@FLOJ@?$CBoopIsImm?$CInewCopy?$CJ?5?$CG?$CG?5?$CBobjIsNewA@ 004e4cb4     mmBecome.obj
 0003:0000ece4       ??_C@_0CI@KJJF@?$CBoopIsImm?$CInewCopy?$CJ?5?$CG?$CG?5objIsOld?$CIn@ 004e4ce4     mmBecome.obj
 0003:0000ed0c       ??_C@_0BO@HDDJ@objDataInHandleSpace?$CInewCopy?$CJ?$AA@ 004e4d0c     mmBecome.obj
 0003:0000ed2c       ??_C@_0BL@OHLL@objDataInOldSpace?$CInewCopy?$CJ?$AA@ 004e4d2c     mmBecome.obj
 0003:0000ed48       ??_C@_0BP@OLEO@objBodyPtr?$CInewCopy?0?5oop?$CJ?5?$DN?$DN?5bp?$AA@ 004e4d48     mmBecome.obj
 0003:0000ed68       ??_C@_0BD@IKCA@?$CBobjIsNew?$CInewCopy?$CJ?$AA@ 004e4d68     mmBecome.obj
 0003:0000ed7c       ??_C@_0DK@GCFF@?$CIoldCopy?$CJ?5?$DN?$DN?5nonOop?5?$HM?$HM?5objDataSi@ 004e4d7c     mmBecome.obj
 0003:0000edb8       ??_C@_0O@HINK@dataSize?5?$DO?$DN?50?$AA@ 004e4db8     mmBecome.obj
 0003:0000edc8       ??_C@_0CI@EJI@objHasValidWeaknessProperties?$CIpe@ 004e4dc8     mmBecome.obj
 0003:0000edf0       ??_C@_0BN@IKAF@?$CBobjIsNewForAssert?$CIpermCopy?$CJ?$AA@ 004e4df0     mmBecome.obj
 0003:0000ee10       ??_C@_0DB@GMPF@?$CBoopIsImm?$CIpermCopy?$CJ?5?$CG?$CG?5?$CBobjIsNew@ 004e4e10     mmBecome.obj
 0003:0000ee44       ??_C@_0CK@BBJG@?$CBoopIsImm?$CIpermCopy?$CJ?5?$CG?$CG?5objIsOld?$CI@ 004e4e44     mmBecome.obj
 0003:0000ee70       ??_C@_0BK@DDLE@objDataInOldSpace?$CIoldOop?$CJ?$AA@ 004e4e70     mmBecome.obj
 0003:0000ee8c       ??_C@_0LD@LDAG@objBodyPtr?$CIoldOop?0?5oop?$CJ?5?$DN?$DN?5?$CI?$CI?$CI?$CIo@ 004e4e8c     mmBecome.obj
 0003:0000ef40       ??_C@_0DG@NDAD@?$CIcopy2?$CJ?5?$DN?$DN?5nonOop?5?$HM?$HM?5objDataSize@ 004e4f40     mmBecome.obj
 0003:0000ef78       ??_C@_0DG@EGGE@?$CIcopy1?$CJ?5?$DN?$DN?5nonOop?5?$HM?$HM?5objDataSize@ 004e4f78     mmBecome.obj
 0003:0000efb0       ??_C@_0DK@GPKE@?$CInewCopy?$CJ?5?$DN?$DN?5nonOop?5?$HM?$HM?5objDataSi@ 004e4fb0     mmBecome.obj
 0003:0000efec       ??_C@_0DM@HJGM@?$CIpermCopy?$CJ?5?$DN?$DN?5nonOop?5?$HM?$HM?5objDataS@ 004e4fec     mmBecome.obj
 0003:0000f028       ??_C@_0CF@MIIB@objDataInHandleSpace?$CIreplacement@ 004e5028     mmBecome.obj
 0003:0000f050       ??_C@_0O@PMEA@growSize?5?$DO?$DN?50?$AA@ 004e5050     mmBecome.obj
 0003:0000f060       ??_C@_0M@CIDI@objOk?$CIoop2?$CJ?$AA@ 004e5060     mmBecome.obj
 0003:0000f06c       ??_C@_0M@BDMH@objOk?$CIoop1?$CJ?$AA@ 004e506c     mmBecome.obj
 0003:0000f078       ??_C@_0GH@GNMG@?$CBoopIsImm?$CIsysOopRegistry?$FLtemp2Re@ 004e5078     mmBecome.obj
 0003:0000f0e0       ??_C@_0CP@IAF@?$CBoopIsImm?$CIsysOopRegistry?$FLtemp2Re@ 004e50e0     mmBecome.obj
 0003:0000f110       ??_C@_0CN@FEJA@?$CBoopIsImm?$CIobject?$CJ?5?$CG?$CG?5?$CBobjIsNewAs@ 004e5110     mmBecome.obj
 0003:0000f140       ??_C@_0CM@HLHI@?$CBoopIsImm?$CIobject?$CJ?5?$CG?$CG?5objIsNewAss@ 004e5140     mmBecome.obj
 0003:0000f16c       ??_C@_0BC@DCNH@?$CBoopIsImm?$CIobject?$CJ?$AA@ 004e516c     mmBecome.obj
 0003:0000f180       ??_C@_0FG@POPO@couldBeDataPtr?$CIdataPtr?$CJ?5?$HM?$HM?5?$CI?$CBobj@ 004e5180     mmBecome.obj
 0003:0000f1d8       ??_C@_0DA@FIIN@bit?5?$CFd?$CI0x?$CFx?$CJ?5byte?5?$CFd?$CI0x?$CFx?$CJ?5page?5@ 004e51d8     mmCheckMap.obj
 0003:0000f208       ??_C@_0P@LBCK@address?50x?$CFlx?6?$AA@ 004e5208     mmCheckMap.obj
 0003:0000f218       ??_C@_0CJ@PACA@failed?5to?5allocate?5memory?5for?5ch@ 004e5218     mmCheckMap.obj
 0003:0000f244       ??_C@_0BP@LFDC@?4?4?2?4?4?2?4?4?2src?2mman?2mmCheckMap?4c?$AA@ 004e5244     mmCheckMap.obj
 0003:0000f264       ??_C@_0BA@INIE@hasPtrs?5?$DN?5?5?$CFld?6?$AA@ 004e5264     mmDebug.obj
 0003:0000f274       ??_C@_0BJ@BKFO@ephemeronNotWeak?5?$DN?5?5?$CFld?6?$AA@ 004e5274     mmDebug.obj
 0003:0000f290       ??_C@_0BE@LEOA@isGCSpecial?5?$DN?5?5?$CFld?6?$AA@ 004e5290     mmDebug.obj
 0003:0000f2a4       ??_C@_0BC@MGBE@isInOldRt?5?$DN?5?5?$CFld?6?$AA@ 004e52a4     mmDebug.obj
 0003:0000f2b8       ??_C@_0BE@PDGE@isImmutable?5?$DN?5?5?$CFld?6?$AA@ 004e52b8     mmDebug.obj
 0003:0000f2cc       ??_C@_0BG@NIHJ@isCheckMarked?5?$DN?5?5?$CFld?6?$AA@ 004e52cc     mmDebug.obj
 0003:0000f2e4       ??_C@_0BB@JIBG@isMarked?5?$DN?5?5?$CFld?6?$AA@ 004e52e4     mmDebug.obj
 0003:0000f2f8       ??_C@_0N@LGHL@inRt?5?$DN?5?5?$CFld?6?$AA@ 004e52f8     mmDebug.obj
 0003:0000f308       ??_C@_0BD@LJNM@hash?5?$DN?5?5?$CFld?50x?$CFlx?6?$AA@ 004e5308     mmDebug.obj
 0003:0000f31c       ??_C@_0BK@PFGO@?7bodySize?5?$DN?5?5?$CFld?50x?$CFlx?$CFs?6?$AA@ 004e531c     mmDebug.obj
 0003:0000f338       ??_C@_0M@MCPH@?5?$CIextended?$CJ?$AA@ 004e5338     mmDebug.obj
 0003:0000f344       ??_C@_0CJ@MJMN@size?5?$DN?5?5?$CFld?50x?$CFlx?5?$CIsizeField?3?5?$CFl@ 004e5344     mmDebug.obj
 0003:0000f370       ??_C@_0BB@BLBH@flags?5?$DN?50x?$CF08lx?6?$AA@ 004e5370     mmDebug.obj
 0003:0000f384       ??_C@_0BA@BELP@class?5?$DN?5?50x?$CFlx?6?$AA@ 004e5384     mmDebug.obj
 0003:0000f394       ??_C@_0BC@DLGH@bodyPtr?5?$DN?5?50x?$CFlx?6?$AA@ 004e5394     mmDebug.obj
 0003:0000f3a8       ??_C@_0CI@MKKP@?6dataPtr?5?$DN?5?50x?$CFlx?5?$CFs?5?$CIbodyPtr?5?$DN?5@ 004e53a8     mmDebug.obj
 0003:0000f3d0       ??_C@_0M@NJKI@?$CIforwarded?$CJ?$AA@ 004e53d0     mmDebug.obj
 0003:0000f3dc       ??_C@_0CB@LPMA@?6NewSpaceDummyObject?5size?5?$DN?5?$CFld?6@ 004e53dc     mmDebug.obj
 0003:0000f400       ??_C@_0CF@NOOM@?6Immediate?5objects?5have?5no?5heade@ 004e5400     mmDebug.obj
 0003:0000f428       ??_C@_02JBML@?$CFc?$AA@    004e5428     mmDebug.obj
 0003:0000f42c       ??_C@_04GKJN@?5?$CF2x?$AA@ 004e542c     mmDebug.obj
 0003:0000f434       ??_C@_0L@GAPM@Double?5?$CFg?6?$AA@ 004e5434     mmDebug.obj
 0003:0000f440       ??_C@_09LMLC@Float?5?$CFe?6?$AA@ 004e5440     mmDebug.obj
 0003:0000f44c       ??_C@_07ELCI@?5x?$CF08lx?$AA@ 004e544c     mmDebug.obj
 0003:0000f454       ??_C@_0CB@KHKK@?6DummyObject?5has?5no?5valid?5data?4?6@ 004e5454     mmDebug.obj
 0003:0000f478       ??_C@_0BG@CLHM@?$CFs?50x?$CFlx?5has?5no?5data?6?$AA@ 004e5478     mmDebug.obj
 0003:0000f490       ??_C@_03EOHB@?$CFc?5?$AA@  004e5490     mmDebug.obj
 0003:0000f494       ??_C@_04HCHF@?$CFld?5?$AA@ 004e5494     mmDebug.obj
 0003:0000f49c       ??_C@_0CL@JCON@?6Immediate?5objects?5have?5no?5data?5@ 004e549c     mmDebug.obj
 0003:0000f4c8       ??_C@_0BC@JMGF@Bogus?5Oop?50x?$CFlx?$CFs?$AA@ 004e54c8     mmDebug.obj
 0003:0000f4dc       ??_C@_0BN@FDPL@Character?5?$CFlc?5?$CI0?$CFlo?50x?$CFlx?$CJ?$CFs?$AA@ 004e54dc     mmDebug.obj
 0003:0000f4fc       ??_C@_0BD@FIPA@SmallInteger?5?$CFld?$CFs?$AA@ 004e54fc     mmDebug.obj
 0003:0000f510       ??_C@_0CL@JPAJ@bad?5class?50x?$CFlx?5or?5class?5name?5oo@ 004e5510     mmDebug.obj
 0003:0000f53c       ??_C@_08MEHF@a?5?$CF?4?$CKs?$CFs?$AA@ 004e553c     mmDebug.obj
 0003:0000f548       ??_C@_0BO@DKEJ@an?5Obsolete?5Class?5?$CI?$CF?4?$CKs?$CJ?5?$DP?$DP?$CFs?$AA@ 004e5548     mmDebug.obj
 0003:0000f568       ??_C@_0BB@MMEA@a?5Class?5?$CI?$CF?4?$CKs?$CJ?$CFs?$AA@ 004e5568     mmDebug.obj
 0003:0000f57c       ??_C@_0BL@JDIK@a?5Metaclass?5?$CI?$CF?4?$CKs?5class?$CJ?$CFs?$AA@ 004e557c     mmDebug.obj
 0003:0000f598       ??_C@_0BC@DENJ@Hybrid?$CFsContext?$CFs?$AA@ 004e5598     mmDebug.obj
 0003:0000f5ac       ??_C@_05PJID@Block?$AA@    004e55ac     mmDebug.obj
 0003:0000f5b4       ??_C@_06LEII@Method?$AA@   004e55b4     mmDebug.obj
 0003:0000f5bc       ??_C@_0CE@LEDH@?$CFsDummyObject?5has?5no?5valid?5class@ 004e55bc     mmDebug.obj
 0003:0000f5e0       ??_C@_0CB@HJOO@Object?50x?$CFlx?5in?5futureSpace?4?4?4?$CFs@ 004e55e0     mmDebug.obj
 0003:0000f604       ??_C@_0BL@LDIF@classNameX?5uninitialized?$CB?6?$AA@ 004e5604     mmDebug.obj
 0003:0000f620       ??_C@_06CKL@?5class?$AA@   004e5620     mmDebug.obj
 0003:0000f628       ??_C@_0BD@NEBJ@HybridBlockContext?$AA@ 004e5628     mmDebug.obj
 0003:0000f63c       ??_C@_0BE@FHLB@HybridMethodContext?$AA@ 004e563c     mmDebug.obj
 0003:0000f650       ??_C@_0BF@LILD@0x?$CF07lx?5is?5named?5?$CFs?6?$AA@ 004e5650     mmDebug.obj
 0003:0000f668       ??_C@_09MFPK@Character?$AA@ 004e5668     mmDebug.obj
 0003:0000f674       ??_C@_0N@KPNF@SmallInteger?$AA@ 004e5674     mmDebug.obj
 0003:0000f684       ??_C@_0N@JLDB@?5class?5class?$AA@ 004e5684     mmDebug.obj
 0003:0000f694       ??_C@_0BK@COPI@?$CBobjHasPtrs?$CIclassNameOop?$CJ?$AA@ 004e5694     mmDebug.obj
 0003:0000f6b0       ??_C@_0BM@NIMD@?4?4?2?4?4?2?4?4?2src?2mman?2mmDebug?4c?$AA@ 004e56b0     mmDebug.obj
 0003:0000f6cc       ??_C@_08BBIO@dummyObj?$AA@ 004e56cc     mmDebug.obj
 0003:0000f6d8       ??_C@_08KHBK@0x?$CF07lx?6?$AA@ 004e56d8     mmDebug.obj
 0003:0000f6e4       ??_C@_0BJ@NHPH@?$CBobjHasPtrs?$CIselectorOop?$CJ?$AA@ 004e56e4     mmDebug.obj
 0003:0000f700       ??_C@_0CE@EPEG@?6DummyObject?5has?5no?5selector?5nam@ 004e5700     mmDebug.obj
 0003:0000f724       ??_C@_0CL@MECM@?6Immediate?5objects?5have?5no?5selec@ 004e5724     mmDebug.obj
 0003:0000f750       ??_C@_0CC@DHNG@can?8t?5determine?5data?5ptr?8s?5space@ 004e5750     mmDebug.obj
 0003:0000f774       ??_C@_0BD@IGGO@?5?5?5?5?5?5?5?$CFs?$CFs?$CFs?$CFs?$CFs?6?$AA@ 004e5774     mmDebug.obj
 0003:0000f788       ??_C@_05EEFH@inRt?0?$AA@   004e5788     mmDebug.obj
 0003:0000f790       ??_C@_0O@NDBD@actuallyInRt?0?$AA@ 004e5790     mmDebug.obj
 0003:0000f7a0       ??_C@_08MKJK@inOldRt?0?$AA@ 004e57a0     mmDebug.obj
 0003:0000f7ac       ??_C@_0P@DGID@reallyInOldRt?0?$AA@ 004e57ac     mmDebug.obj
 0003:0000f7bc       ??_C@_0M@DGHM@isEphemeron?$AA@ 004e57bc     mmDebug.obj
 0003:0000f7c8       ??_C@_0BH@OAPD@data?50x?$CFlx?5in?5?$CFsSpace?6?$AA@ 004e57c8     mmDebug.obj
 0003:0000f7e0       ??_C@_05CEAP@fixed?$AA@    004e57e0     mmDebug.obj
 0003:0000f7e8       ??_C@_05PMKF@large?$AA@    004e57e8     mmDebug.obj
 0003:0000f7f0       ??_C@_09PLPL@BOGUS?5new?$AA@ 004e57f0     mmDebug.obj
 0003:0000f7fc       ??_C@_08BBAD@no?5data?6?$AA@ 004e57fc     mmDebug.obj
 0003:0000f808       ??_C@_0CB@FHPE@object?5has?5no?5data?5?$CIzero?5sized?$CJ?6@ 004e5808     mmDebug.obj
 0003:0000f82c       ??_C@_0BD@DFPA@but?5not?5in?5any?5OT?6?$AA@ 004e582c     mmDebug.obj
 0003:0000f840       ??_C@_0L@ILKP@but?5is?5?$CFs?6?$AA@ 004e5840     mmDebug.obj
 0003:0000f84c       ??_C@_0M@EGMI@above?5nzone?$AA@ 004e584c     mmDebug.obj
 0003:0000f858       ??_C@_0M@KPAN@below?5nzone?$AA@ 004e5858     mmDebug.obj
 0003:0000f864       ??_C@_0O@EKEC@in?5stack?5zone?$AA@ 004e5864     mmDebug.obj
 0003:0000f874       ??_C@_0N@KEPC@in?5glue?5code?$AA@ 004e5874     mmDebug.obj
 0003:0000f884       ??_C@_08DBAC@in?5ncode?$AA@ 004e5884     mmDebug.obj
 0003:0000f890       ??_C@_0BE@MBNO@header?5in?5?$CFsSpace?0?5?$AA@ 004e5890     mmDebug.obj
 0003:0000f8a4       ??_C@_03NFCM@NO?5?$AA@     004e58a4     mmDebug.obj
 0003:0000f8a8       ??_C@_04ONIN@perm?$AA@     004e58a8     mmDebug.obj
 0003:0000f8b0       ??_C@_03CENO@old?$AA@      004e58b0     mmDebug.obj
 0003:0000f8b4       ??_C@_0BA@MCMD@vacant?5eden?5new?$AA@ 004e58b4     mmDebug.obj
 0003:0000f8c4       ??_C@_08FBPC@eden?5new?$AA@ 004e58c4     mmDebug.obj
 0003:0000f8d0       ??_C@_0BA@NIIK@vacant?5past?5new?$AA@ 004e58d0     mmDebug.obj
 0003:0000f8e0       ??_C@_08ELLL@past?5new?$AA@ 004e58e0     mmDebug.obj
 0003:0000f8ec       ??_C@_0BC@GMNE@vacant?5future?5new?$AA@ 004e58ec     mmDebug.obj
 0003:0000f900       ??_C@_0L@BDGP@future?5new?$AA@ 004e5900     mmDebug.obj
 0003:0000f90c       ??_C@_0BI@GBOJ@has?5invalid?5alignment?0?5?$AA@ 004e590c     mmDebug.obj
 0003:0000f924       ??_C@_0O@MDL@is?5immediate?6?$AA@ 004e5924     mmDebug.obj
 0003:0000f934       ??_C@_0O@GIBE@object?50x?$CFlx?5?$AA@ 004e5934     mmDebug.obj
 0003:0000f944       ??_C@_0BH@BBIK@?$CIinsts?3?5?$CFd?0?5refs?3?5?$CFd?$CJ?6?$AA@ 004e5944     mmDebug.obj
 0003:0000f95c       ??_C@_09MAMO@0x?$CF08x?$CFc?5?$AA@ 004e595c     mmDebug.obj
 0003:0000f968       ??_C@_0BI@DDEH@couldBeDataPtr?$CIdataPtr?$CJ?$AA@ 004e5968     mmDebug.obj
 0003:0000f980       ??_C@_0BD@DIA@at?5?$FL?$CFld?$FN?0?5at?3?5?$CFld?6?$AA@ 004e5980     mmDebug.obj
 0003:0000f994       ??_C@_0CG@FFPB@as?5yet?5implemmeted?5only?5for?5poin@ 004e5994     mmDebug.obj
 0003:0000f9bc       ??_C@_05MDCJ@Array?$AA@    004e59bc     mmDebug.obj
 0003:0000f9c4       ??_C@_0P@CMFL@?$CBobjHasPtrs?$CIf?$CJ?$AA@ 004e59c4     mmDebug.obj
 0003:0000f9d4       ??_C@_0DN@OFMB@dataPtr?5?$DN?$DN?5dataPtrForNonNewNoDat@ 004e59d4     mmEnumerate.obj
 0003:0000fa14       ??_C@_0CA@HLK@?4?4?2?4?4?2?4?4?2src?2mman?2mmEnumerate?4c?$AA@ 004e5a14     mmEnumerate.obj
 0003:0000fa34       ??_C@_0CB@PHGA@isStableContextClass?$CI?$CIclassOop?$CJ?$CJ@ 004e5a34     mmEnumerate.obj
 0003:0000fa58       __real@4@4008fa00000000000000 004e5a58     mmEnumerate.obj
 0003:0000fa5c       ??_C@_0BH@MPFA@objIsEphemeron?$CIobject?$CJ?$AA@ 004e5a5c     mmEnumerate.obj
 0003:0000fa74       ??_C@_0DL@NKDO@oopClass?$CIfinalizationSemaphore?$CJ?5@ 004e5a74     mmFinal.obj
 0003:0000fab0       ??_C@_0BM@FJDB@?4?4?2?4?4?2?4?4?2src?2mman?2mmFinal?4c?$AA@ 004e5ab0     mmFinal.obj
 0003:0000facc       ??_C@_0O@KEAB@?$CBfqOverflowed?$AA@ 004e5acc     mmFinal.obj
 0003:0000fadc       ??_C@_0BH@IHGD@objIsEphemeron?$CIobjOop?$CJ?$AA@ 004e5adc     mmFinal.obj
 0003:0000faf4       ??_C@_0DL@MIK@?$CBoopIsImm?$CIfinalQueueOop?$CJ?5?$CG?$CG?5?$CBobj@ 004e5af4     mmFinal.obj
 0003:0000fb30       ??_C@_0DK@IHIB@?$CBoopIsImm?$CIfinalQueueOop?$CJ?5?$CG?$CG?5objI@ 004e5b30     mmFinal.obj
 0003:0000fb6c       ??_C@_0BJ@IMDI@?$CBoopIsImm?$CIfinalQueueOop?$CJ?$AA@ 004e5b6c     mmFinal.obj
 0003:0000fb88       ??_C@_0CF@LLKI@Unable?5to?5create?5finalization?5qu@ 004e5b88     mmFinal.obj
 0003:0000fbb0       ??_C@_0CD@OAPC@oldSpaceObjOk?$CIfinalQueueOop?0FALS@ 004e5bb0     mmFinal.obj
 0003:0000fbd4       ??_C@_0BH@LIPK@?$CBclassIsWeak?$CIclassOop?$CJ?$AA@ 004e5bd4     mmFinal.obj
 0003:0000fbec       ??_C@_0BN@NKDM@?$CBobjIsEphemeronNotWeak?$CIooop?$CJ?$AA@ 004e5bec     mmFinal.obj
 0003:0000fc0c       ??_C@_0BG@DAGC@classIsWeak?$CIclassOop?$CJ?$AA@ 004e5c0c     mmFinal.obj
 0003:0000fc24       ??_C@_0BL@DGOE@classIsEphemeron?$CIclassOop?$CJ?$AA@ 004e5c24     mmFinal.obj
 0003:0000fc40       ??_C@_0CI@FNLC@?$CBoopIsImm?$CIclassOop?$CJ?5?$CG?$CG?5objHasPtr@ 004e5c40     mmFinal.obj
 0003:0000fc68       ??_C@_0BJ@3objIsWeak?$CIfinalQueueOop?$CJ?$AA@ 004e5c68     mmFinal.obj
 0003:0000fc84       ??_C@_0CI@FAIF@?$CB?$CIweakness?$CJ?5?$HM?$HM?5objIsIndexable?$CIre@ 004e5c84     mmFinal.obj
 0003:0000fcac       ??_C@_0CM@FMDL@?$CB?$CIisEphemeron?$CJ?5?$HM?$HM?5?$CBobjIsIndexabl@ 004e5cac     mmFinal.obj
 0003:0000fcd8       ??_C@_0BK@FMPK@?$CBobjNeedsScanning?$CIobjOop?$CJ?$AA@ 004e5cd8     mmGarbage.obj
 0003:0000fcf4       ??_C@_0BC@HKOE@?$CBoopIsImm?$CIobjOop?$CJ?$AA@ 004e5cf4     mmGarbage.obj
 0003:0000fd08       ??_C@_0BO@COKH@?4?4?2?4?4?2?4?4?2src?2mman?2mmGarbage?4c?$AA@ 004e5d08     mmGarbage.obj
 0003:0000fd28       ??_C@_0CO@ODBH@objectMemoryOk?$CIFALSE?$CJ?5?$CG?$CG?5oldSpac@ 004e5d28     mmGarbage.obj
 0003:0000fd58       ??_C@_0CM@BJKK@couldBeContext?$CIsysOop?$CItemp1Regis@ 004e5d58     mmGarbage.obj
 0003:0000fd84       ??_C@_0BK@GJOK@spaceIsEmpty?$CIfutureSpace?$CJ?$AA@ 004e5d84     mmGarbage.obj
 0003:0000fda0       ??_C@_0BC@ICDM@?$CBmarkListOverflow?$AA@ 004e5da0     mmGarbage.obj
 0003:0000fdb4       ??_C@_0CN@CLIN@markList?4firstFreeSlot?5?$DN?$DN?5markLi@ 004e5db4     mmGarbage.obj
 0003:0000fde4       ??_C@_0BI@MNGJ@noObjectsNeedScanning?$CI?$CJ?$AA@ 004e5de4     mmGarbage.obj
 0003:0000fdfc       ??_C@_0CM@PGBK@markList?4firstFreeSlot?5?$DO?5markLis@ 004e5dfc     mmGarbage.obj
 0003:0000fe28       ??_C@_0CL@LBGH@weakList?4lastFreeSlot?5?$DN?$DN?5weakLis@ 004e5e28     mmGarbage.obj
 0003:0000fe54       ??_C@_0CK@JOAC@?$CBobjNeedsScanning?$CI?$CKweakList?4last@ 004e5e54     mmGarbage.obj
 0003:0000fe80       ??_C@_0DC@HFIB@ephemeronMightBeActivated?$CI?$CKweakL@ 004e5e80     mmGarbage.obj
 0003:0000feb4       ??_C@_0CN@DBFA@markList?4firstSlot?5?$DN?$DN?5markList?4f@ 004e5eb4     mmGarbage.obj
 0003:0000fee4       ??_C@_0BG@HAEG@numAllocStacks?$CI?$CJ?5?$DN?$DN?50?$AA@ 004e5ee4     mmGarbage.obj
 0003:0000fefc       ??_C@_0CF@ELII@?$CBobjNeedsScanning?$CIsysOopRegistry@ 004e5efc     mmGarbage.obj
 0003:0000ff24       ??_C@_0BH@FLNK@?$CBobjNeedsScanning?$CIobj?$CJ?$AA@ 004e5f24     mmGarbage.obj
 0003:0000ff3c       ??_C@_0CC@LNIA@oopIsImm?$CIobj?$CJ?5?$HM?$HM?5probablyObj?$CIobj@ 004e5f3c     mmGarbage.obj
 0003:0000ff60       ??_C@_0CC@MACK@?$CBobjNeedsScanning?$CI?$CKcurrentRefPtr@ 004e5f60     mmGarbage.obj
 0003:0000ff84       ??_C@_0DI@FKHC@oopIsImm?$CI?$CKcurrentRefPtr?$CJ?5?$HM?$HM?5prob@ 004e5f84     mmGarbage.obj
 0003:0000ffbc       ??_C@_0CI@MBLL@?$CBobjNeedsScanning?$CI?$CI?$CIobjOop?$CJ?9?$DOcla@ 004e5fbc     mmGarbage.obj
 0003:0000ffe4       ??_C@_0EE@NCOF@oopIsImm?$CI?$CI?$CIobjOop?$CJ?9?$DOclassOop?$CJ?$CJ?5?$HM@ 004e5fe4     mmGarbage.obj
 0003:00010028       ??_C@_0BE@OBCN@probablyObj?$CIobjOop?$CJ?$AA@ 004e6028     mmGarbage.obj
 0003:0001003c       ??_C@_0CF@EBFG@?$CBobjNeedsScanning?$CI?$CI?$CIobj?$CJ?9?$DOclassO@ 004e603c     mmGarbage.obj
 0003:00010064       ??_C@_0DO@PIOH@oopIsImm?$CI?$CI?$CIobj?$CJ?9?$DOclassOop?$CJ?$CJ?5?$HM?$HM?5p@ 004e6064     mmGarbage.obj
 0003:000100a4       ??_C@_0BB@BOGD@objIsMarked?$CIobj?$CJ?$AA@ 004e60a4     mmGarbage.obj
 0003:000100b8       ??_C@_0CH@HAN@?$CBephemeronMightBeActivated?$CI?$CKephe@ 004e60b8     mmGarbage.obj
 0003:000100e0       ??_C@_0CG@LENH@ephemeronMightBeActivated?$CI?$CKephem@ 004e60e0     mmGarbage.obj
 0003:00010108       ??_C@_0GO@NBKF@ephemeronCount?5?$DN?$DN?5?$CIweakList?4last@ 004e6108     mmGarbage.obj
 0003:00010178       ??_C@_0BO@FGIK@?$CBobjNeedsScanning?$CI?$CKephemeron?$CJ?$AA@ 004e6178     mmGarbage.obj
 0003:00010198       ??_C@_0BL@HGFN@objIsEphemeron?$CI?$CKephemeron?$CJ?$AA@ 004e6198     mmGarbage.obj
 0003:000101b4       ??_C@_0BD@ONBJ@delayingEphemerons?$AA@ 004e61b4     mmGarbage.obj
 0003:000101c8       ??_C@_0BG@HAPC@probablyOop?$CIreferent?$CJ?$AA@ 004e61c8     mmGarbage.obj
 0003:000101e0       ??_C@_0BO@PFDG@couldBeDataPtr?$CIcurrentRefPtr?$CJ?$AA@ 004e61e0     mmGarbage.obj
 0003:00010200       ??_C@_0BF@JEFF@objIsMarked?$CIweakObj?$CJ?$AA@ 004e6200     mmGarbage.obj
 0003:00010218       ??_C@_0BD@DNGG@objIsWeak?$CIweakObj?$CJ?$AA@ 004e6218     mmGarbage.obj
 0003:0001022c       ??_C@_0BJ@CMEF@objIsCheckMarked?$CIobjOop?$CJ?$AA@ 004e622c     mmIncGC.obj
 0003:00010248       ??_C@_0BD@BGEK@?$CBobjIsPerm?$CIobjOop?$CJ?$AA@ 004e6248     mmIncGC.obj
 0003:0001025c       ??_C@_0BM@DECB@?4?4?2?4?4?2?4?4?2src?2mman?2mmIncGC?4c?$AA@ 004e625c     mmIncGC.obj
 0003:00010278       ??_C@_0BC@FNHN@objIsWeak?$CIobjOop?$CJ?$AA@ 004e6278     mmIncGC.obj
 0003:0001028c       ??_C@_0CA@DLML@rtOk?$CIrtEntriesShouldBeUnmarked?$CJ?$AA@ 004e628c     mmIncGC.obj
 0003:000102ac       ??_C@_0CP@HJDD@blowAwayIncGC?3?5incremental?5GC?5in@ 004e62ac     mmIncGC.obj
 0003:000102dc       ??_C@_0CD@IKCN@blowAwayIncGC?3?5incMarkSweep?5fail@ 004e62dc     mmIncGC.obj
 0003:00010300       ??_C@_0CC@LIMA@blowAwayIncGC?3?5undoIncMark?5faile@ 004e6300     mmIncGC.obj
 0003:00010324       ??_C@_0CA@OHFG@currentIncGCState?5?$DN?$DN?5incResting?$AA@ 004e6324     mmIncGC.obj
 0003:00010344       ??_C@_0CO@IGBP@incMarkSweep?3?5incremental?5GC?5in?5@ 004e6344     mmIncGC.obj
 0003:00010374       ??_C@_0CA@BIOF@currentIncGCState?5?$CB?$DN?5incMarking?$AA@ 004e6374     mmIncGC.obj
 0003:00010394       ??_C@_0CL@OMBG@undoIncMark?3?5incremental?5GC?5in?5w@ 004e6394     mmIncGC.obj
 0003:000103c0       ??_C@_0BB@CLHN@?$CBdummyObj?$CI_toop?$CJ?$AA@ 004e63c0     mmIncGC.obj
 0003:000103d4       ??_C@_0DL@PNPD@oopIsImm?$CI_toop?$CJ?5?$HM?$HM?5?$CBobjIsPerm?$CI_t@ 004e63d4     mmIncGC.obj
 0003:00010410       ??_C@_0BC@BFHP@probablyObj?$CIooop?$CJ?$AA@ 004e6410     mmIncGC.obj
 0003:00010424       ??_C@_0CA@MAOD@currentIncGCState?5?$DN?$DN?5incMarking?$AA@ 004e6424     mmIncGC.obj
 0003:00010444       ??_C@_0BA@DJHF@?$CBoopIsImm?$CIooop?$CJ?$AA@ 004e6444     mmIncGC.obj
 0003:00010454       ??_C@_0DK@DJDE@objDataInOldSpace?$CIobjOop?$CJ?5?$HM?$HM?5obj@ 004e6454     mmIncGC.obj
 0003:00010490       ??_C@_0CJ@CGPM@?$CBoopIsImm?$CIooop?$CJ?5?$CG?$CG?5?$CBobjIsNewAsse@ 004e6490     mmIncGC.obj
 0003:000104bc       ??_C@_0CN@LMOP@?$CBoopIsImm?$CItarget?$CJ?5?$CG?$CG?5?$CBobjIsNewAs@ 004e64bc     mmIncGC.obj
 0003:000104ec       ??_C@_0CN@FKFF@objectMemoryOk?$CITRUE?$CJ?5?$CG?$CG?5oldSpace@ 004e64ec     mmIncGC.obj
 0003:0001051c       ??_C@_0BA@NAIG@allNMethodsOK?$CI?$CJ?$AA@ 004e651c     mmIncGC.obj
 0003:0001052c       ??_C@_0M@CKHF@checkMark?$CI?$CJ?$AA@ 004e652c     mmIncGC.obj
 0003:00010538       ??_C@_0CC@IGBP@incMarkStack?5?$CB?$DN?5incEphemeronStac@ 004e6538     mmIncGC.obj
 0003:0001055c       ??_C@_0CD@NIMD@oopStackIsEmpty?$CIincEphemeronStac@ 004e655c     mmIncGC.obj
 0003:00010580       ??_C@_0BC@HKLN@?$CKaborted?5?$DN?$DN?5FALSE?$AA@ 004e6580     mmIncGC.obj
 0003:00010594       ??_C@_0BO@OMGD@oopStackIsEmpty?$CIincMarkStack?$CJ?$AA@ 004e6594     mmIncGC.obj
 0003:000105b4       ??_C@_0BC@GCOJ@newSpaceIsEmpty?$CI?$CJ?$AA@ 004e65b4     mmIncGC.obj
 0003:000105c8       ??_C@_0CE@EGGE@objIsCheckMarked?$CIsysOopRegistryO@ 004e65c8     mmIncGC.obj
 0003:000105ec       ??_C@_0BF@GOCJ@objIsCheckMarked?$CI_o?$CJ?$AA@ 004e65ec     mmIncGC.obj
 0003:00010604       ??_C@_0P@NAAK@?$CBobjIsPerm?$CI_o?$CJ?$AA@ 004e6604     mmIncGC.obj
 0003:00010614       ??_C@_0BI@HIAB@?$CBcmObjNeedsScanning?$CI_o?$CJ?$AA@ 004e6614     mmIncGC.obj
 0003:0001062c       ??_C@_0BG@NLGB@objIsCheckMarked?$CIobj?$CJ?$AA@ 004e662c     mmIncGC.obj
 0003:00010644       ??_C@_0DJ@BPEO@stopPtr?5?$DN?$DN?5currentRefPtr?5?$HM?$HM?5prob@ 004e6644     mmIncGC.obj
 0003:00010680       ??_C@_0EK@CMA@currentRefPtr?5?$DN?$DN?5dataPtrForNonNe@ 004e6680     mmIncGC.obj
 0003:000106cc       ??_C@_0GC@GKNL@objIsPerm?$CIobjOop?$CJ?5?$DP?5permSpaceObj@ 004e66cc     mmIncGC.obj
 0003:00010730       ??_C@_0BC@LHHG@?$CBdummyObj?$CIobjOop?$CJ?$AA@ 004e6730     mmIncGC.obj
 0003:00010744       ??_C@_0CC@NBGB@ephemeronMightBeActivated?$CIobjOop@ 004e6744     mmIncGC.obj
 0003:00010768       ??_C@_0CI@ELHK@weakSlotNeedsNilling?$CIweakObj?0?5re@ 004e6768     mmIncGC.obj
 0003:00010790       ??_C@_0BF@CPOK@couldBeOop?$CIreferent?$CJ?$AA@ 004e6790     mmIncGC.obj
 0003:000107a8       ??_C@_0DP@DCLH@couldBeDataPtr?$CIcurrentRefPtr?$CJ?5?$CG?$CG@ 004e67a8     mmIncGC.obj
 0003:000107e8       ??_C@_0BD@FNIC@?$CBobjIsNew?$CIweakObj?$CJ?$AA@ 004e67e8     mmIncGC.obj
 0003:000107fc       ??_C@_0CG@ELJO@getIncGCState?$CI?$CJ?5?$DN?$DN?5incNillingWea@ 004e67fc     mmIncGC.obj
 0003:00010824       _platformTenureThreshold   004e6824     mmInit.obj
 0003:00010828       ??_C@_0BL@IGNN@imageLayout?4imageType?5?$CB?$DN?50?$AA@ 004e6828     mmInit.obj
 0003:00010844       ??_C@_0BL@DKBH@?4?4?2?4?4?2?4?4?2src?2mman?2mmInit?4c?$AA@ 004e6844     mmInit.obj
 0003:00010860       ??_C@_0BF@MJBH@objectMemoryOk?$CITRUE?$CJ?$AA@ 004e6860     mmInit.obj
 0003:00010878       ??_C@_0BF@MLKE@Insufficient?5memory?4?$AA@ 004e6878     mmInit.obj
 0003:00010890       ??_C@_0BI@HKOP@rebootSystem?5returned?$CB?$CB?$AA@ 004e6890     mmInit.obj
 0003:000108a8       ??_C@_0BP@MBAA@Can?8t?5initialize?5N?9method?5zone?$AA@ 004e68a8     mmInit.obj
 0003:000108c8       ??_C@_0CG@ENGB@heap?4firstSlot?5?$DN?$DN?5start?4ofNMetho@ 004e68c8     mmInit.obj
 0003:000108f0       ??_C@_0BF@EOLA@permCtxAtStartupOk?$CI?$CJ?$AA@ 004e68f0     mmInit.obj
 0003:00010908       ??_C@_0GP@NHCC@maxSpacePtr?5?$DN?$DN?5?$CIoldAbovePerm?5?$DP?5?$CI@ 004e6908     mmInit.obj
 0003:00010978       ??_C@_0CG@HEGM@Unable?5to?5convert?5your?5image?8s?5f@ 004e6978     mmInit.obj
 0003:000109a0       ??_C@_0DE@DGLD@Unable?5to?5demote?5objects?5from?5Pe@ 004e69a0     mmInit.obj
 0003:000109d4       ??_C@_0DF@JAPA@Unable?5to?5promote?5objects?5from?5O@ 004e69d4     mmInit.obj
 0003:00010a0c       ??_C@_0BO@BKBE@No?5room?5in?5the?5sysOopRegistry?$AA@ 004e6a0c     mmInit.obj
 0003:00010a2c       ??_C@_0BF@LCKN@Can?8t?5allocate?5OldRt?$AA@ 004e6a2c     mmInit.obj
 0003:00010a44       ??_C@_0CB@EDED@Can?8t?5allocate?5OldSpace?5Headroom@ 004e6a44     mmInit.obj
 0003:00010a68       __real@4@400c9c40000000000000 004e6a68     mmInit.obj
 0003:00010a6c       ??_C@_0BCB@CLDF@imageLayout?4permSpaceBase?5?$DM?$DN?5ima@ 004e6a6c     mmInit.obj
 0003:00010b90       ??_C@_0EJ@JGCG@?$CIsizeArray?$CJ?5?$DN?$DN?5nonOop?5?$HM?$HM?5objData@ 004e6b90     mmInit.obj
 0003:00010bdc       ??_C@_0BI@DEAM@prevFirstFreeSlotX?5?$CB?$DN?50?$AA@ 004e6bdc     mmInit.obj
 0003:00010bf4       ??_C@_0CK@ENOA@The?5VM?5is?532?9bit?5but?5the?5image?5i@ 004e6bf4     mmInit.obj
 0003:00010c20       ??_C@_0BK@PIIJ@unrecognized?5image?5format?$AA@ 004e6c20     mmInit.obj
 0003:00010c3c       ??_C@_0BE@GNLH@invalid?5load?5policy?$AA@ 004e6c3c     mmInit.obj
 0003:00010c50       ??_C@_06JCDK@demote?$AA@   004e6c50     mmInit.obj
 0003:00010c58       ??_C@_07GKBO@promote?$AA@  004e6c58     mmInit.obj
 0003:00010c60       ??_C@_0DA@BMP@nonNewObjIsPerm?$CIpermSpace?4firstF@ 004e6c60     mmInit.obj
 0003:00010c90       ??_C@_0CI@LPBL@nonNewObjIsPerm?$CIpermSpace?4firstO@ 004e6c90     mmInit.obj
 0003:00010cb8       ??_C@_0DB@PCP@?$CBnonNewObjIsPerm?$CIpermSpace?4first@ 004e6cb8     mmInit.obj
 0003:00010cec       ??_C@_0CJ@PENH@?$CBnonNewObjIsPerm?$CIpermSpace?4first@ 004e6cec     mmInit.obj
 0003:00010d18       ??_C@_0BK@OJDI@Can?8t?5initialize?5OldSpace?$AA@ 004e6d18     mmInit.obj
 0003:00010d34       ??_C@_0BL@JPBF@Can?8t?5initialize?5VM?5caches?$AA@ 004e6d34     mmInit.obj
 0003:00010d50       ??_C@_0BL@IOH@Can?8t?5initialize?5PermSpace?$AA@ 004e6d50     mmInit.obj
 0003:00010d6c       ??_C@_0DG@LFOP@slots?4inPermSpace?5?$DN?$DN?50?5?$HM?$HM?5loadPo@ 004e6d6c     mmInit.obj
 0003:00010da4       ??_C@_0CB@NLKC@Order?5of?5memory?5space?5is?5invalid@ 004e6da4     mmInit.obj
 0003:00010dc8       ??_C@_0DM@FFG@cacheBase?5?$DM?$DN?5permSpaceBase?5?$CG?$CG?5pe@ 004e6dc8     mmInit.obj
 0003:00010e04       ??_C@_0EE@CEPO@profile_nzone_hipc?5?$DN?$DN?5alignPtrTo@ 004e6e04     mmInit.obj
 0003:00010e48       ??_C@_0EI@OIII@profile_nzone_lopc?5?$DN?$DN?5alignPtrDo@ 004e6e48     mmInit.obj
 0003:00010e90       ??_C@_0EN@GKBN@HEAP_BYTE_ALIGNMENT?5?$DN?$DN?50?5?$HM?$HM?50?5?$DN?$DN@ 004e6e90     mmInit.obj
 0003:00010ee0       __real@4@40118000000000000000 004e6ee0     mmInit.obj
 0003:00010ee4       __real@4@4010c800000000000000 004e6ee4     mmInit.obj
 0003:00010ee8       __real@4@400ef000000000000000 004e6ee8     mmInit.obj
 0003:00010eec       __real@4@40119600000000000000 004e6eec     mmInit.obj
 0003:00010ef0       __real@4@4012a000000000000000 004e6ef0     mmInit.obj
 0003:00010ef4       __real@4@400ea000000000000000 004e6ef4     mmInit.obj
 0003:00010ef8       ??_C@_0EL@MOFK@start?4ofNMethodZone?5?$CG?$CG?5slots?4inN@ 004e6ef8     mmInit.obj
 0003:00010f44       ??_C@_0FK@NLLO@slotsInPermSpace?5?$DN?$DN?5bytesToOops?$CI@ 004e6f44     mmInit.obj
 0003:00010fa0       ??_C@_0DK@CKOI@loadPolicy?5?$CB?$DN?5normalLoad?5?$HM?$HM?5base@ 004e6fa0     mmInit.obj
 0003:00010fdc       ??_C@_0FC@GDBD@asOopPtr?$CIlargeSpaceUpperBound?$CJ?5?$CL@ 004e6fdc     mmInit.obj
 0003:00011030       ??_C@_0KJ@DJIN@asOopPtr?$CInewSpaceUpperBound?$CJ?$CL?5?$CIo@ 004e7030     mmInit.obj
 0003:000110dc       ??_C@_0GI@FENN@heap?4firstSlot?5?$CL?5slots?4inNMethod@ 004e70dc     mmInit.obj
 0003:00011144       ??_C@_0BK@FMMC@Can?8t?5allocate?5stack?5zone?$AA@ 004e7144     mmInit.obj
 0003:00011160       ??_C@_0DJ@EHAH@heap?4firstSlot?$CLslots?4inNMethodZo@ 004e7160     mmInit.obj
 0003:000111a0       __real@8@3fff8000000000000000 004e71a0     mmInit.obj
 0003:000111a8       ??_C@_0FA@ODAG@oopsToBytes?$CIslotsInLS?$CJ?5?$DO?$DN?5imageL@ 004e71a8     mmInit.obj
 0003:000111f8       ??_C@_0JN@CHJE@baseSlot?5?$DN?$DN?5asOopPtr?$CInewSpaceUpp@ 004e71f8     mmInit.obj
 0003:00011298       ??_C@_0CD@HDBE@imageLayout?4bytesInFixedSpace?5?$DN?$DN@ 004e7298     mmInit.obj
 0003:000112bc       ??_C@_0FA@NLMH@oopsToBytes?$CIslotsInFS?$CJ?5?$DO?$DN?5imageL@ 004e72bc     mmInit.obj
 0003:0001130c       ??_C@_0EI@PJJC@baseSlot?5?$DN?$DN?5asOopPtr?$CIlargeSpaceU@ 004e730c     mmInit.obj
 0003:00011354       ??_C@_0IE@CNHK@slotsInOldSpace?5?$DO?$DN?5slotsInOldSpa@ 004e7354     mmInit.obj
 0003:000113d8       ??_C@_0DN@ICEO@loadPolicy?5?$CB?$DN?5promotingLoad?5?$HM?$HM?5b@ 004e73d8     mmInit.obj
 0003:00011418       ??_C@_0BL@JLPD@loadPolicy?5?$DN?$DN?5demotingLoad?$AA@ 004e7418     mmInit.obj
 0003:00011434       ??_C@_0IG@CGME@emptySeg?5?$CB?$DN?5nullOldSpaceSeg?5?$CG?$CG?5e@ 004e7434     mmInit.obj
 0003:000114bc       ??_C@_0BM@GKOK@loadPolicy?5?$DN?$DN?5promotingLoad?$AA@ 004e74bc     mmInit.obj
 0003:000114d8       ??_C@_0BE@BJIA@couldBeObj?$CI?$CKoopPtr?$CJ?$AA@ 004e74d8     mmInit.obj
 0003:000114ec       ??_C@_0BD@BBJC@objIsPerm?$CI?$CKoopPtr?$CJ?$AA@ 004e74ec     mmInit.obj
 0003:00011500       ??_C@_0CP@BCDJ@asOopPtr?$CI?$CKoopPtr?$CJ?5?$DO?$DN?5imageLayout@ 004e7500     mmInit.obj
 0003:00011530       ??_C@_0BC@GEJP@objIsOld?$CI?$CKoopPtr?$CJ?$AA@ 004e7530     mmInit.obj
 0003:00011544       ??_C@_0CO@DIJP@objInPastSpace?$CI?$CKoopPtr?$CJ?5?$HM?$HM?5objIn@ 004e7544     mmInit.obj
 0003:00011574       ??_C@_0BJ@HNJD@objDataInPermSpace?$CIooop?$CJ?$AA@ 004e7574     mmInit.obj
 0003:00011590       ??_C@_0BI@FKJO@objDataInOldSpace?$CIooop?$CJ?$AA@ 004e7590     mmInit.obj
 0003:000115a8       ??_C@_0O@PFDA@objInFt?$CIooop?$CJ?$AA@ 004e75a8     mmInit.obj
 0003:000115b8       ??_C@_0BL@PFLA@objDataInPermSpace?$CIobjOop?$CJ?$AA@ 004e75b8     mmInit.obj
 0003:000115d4       ??_C@_0BA@MDFP@objInFt?$CIobjOop?$CJ?$AA@ 004e75d4     mmInit.obj
 0003:000115e4       ??_C@_0BK@DBAF@objDataInNewSpace?$CIobjOop?$CJ?$AA@ 004e75e4     mmInit.obj
 0003:00011600       ??_C@_0CA@DCGL@couldBeObj?$CI?$CK?$CG?$CI?$CIftEnt?$CJ?9?$DOobjOop?$CJ?$CJ?$AA@ 004e7600     mmInit.obj
 0003:00011620       ??_C@_0BP@OPDJ@objIsPerm?$CI?$CK?$CG?$CI?$CIftEnt?$CJ?9?$DOobjOop?$CJ?$CJ?$AA@ 004e7620     mmInit.obj
 0003:00011640       ??_C@_0DL@BJHD@asOopPtr?$CI?$CK?$CG?$CI?$CIftEnt?$CJ?9?$DOobjOop?$CJ?$CJ?5?$DO?$DN@ 004e7640     mmInit.obj
 0003:0001167c       ??_C@_0BO@MDE@objIsOld?$CI?$CK?$CG?$CI?$CIftEnt?$CJ?9?$DOobjOop?$CJ?$CJ?$AA@ 004e767c     mmInit.obj
 0003:0001169c       ??_C@_0EG@BHPI@objInPastSpace?$CI?$CK?$CG?$CI?$CIftEnt?$CJ?9?$DOobjOo@ 004e769c     mmInit.obj
 0003:000116e4       ??_C@_0BG@IGOH@?$CBftEntryIsFree?$CIftEnt?$CJ?$AA@ 004e76e4     mmInit.obj
 0003:000116fc       ??_C@_0BF@LIFE@fsBlockIsFree?$CIftEnt?$CJ?$AA@ 004e76fc     mmInit.obj
 0003:00011714       ??_C@_0BO@FMJA@whereToStartNewOffset?5?$DO?5ftEnt?$AA@ 004e7714     mmInit.obj
 0003:00011734       ??_C@_0CA@HPPL@couldBeObj?$CI?$CK?$CG?$CI?$CIltEnt?$CJ?9?$DOobjOop?$CJ?$CJ?$AA@ 004e7734     mmInit.obj
 0003:00011754       ??_C@_0BP@KCKJ@objIsPerm?$CI?$CK?$CG?$CI?$CIltEnt?$CJ?9?$DOobjOop?$CJ?$CJ?$AA@ 004e7754     mmInit.obj
 0003:00011774       ??_C@_0DL@LLDK@asOopPtr?$CI?$CK?$CG?$CI?$CIltEnt?$CJ?9?$DOobjOop?$CJ?$CJ?5?$DO?$DN@ 004e7774     mmInit.obj
 0003:000117b0       ??_C@_0BO@EBKE@objIsOld?$CI?$CK?$CG?$CI?$CIltEnt?$CJ?9?$DOobjOop?$CJ?$CJ?$AA@ 004e77b0     mmInit.obj
 0003:000117d0       ??_C@_0EG@MJGI@objInPastSpace?$CI?$CK?$CG?$CI?$CIltEnt?$CJ?9?$DOobjOo@ 004e77d0     mmInit.obj
 0003:00011818       ??_C@_0BF@KGBJ@lsBlockIsFree?$CIltEnt?$CJ?$AA@ 004e7818     mmInit.obj
 0003:00011830       ??_C@_0FJ@HDFL@oldSpaceSegs?4numThreadedData?5?$DN?$DN?5@ 004e7830     mmInit.obj
 0003:0001188c       ??_C@_0CA@GFMA@couldBeObj?$CI?$CK?$CGsysOopRegistryOop?$CJ?$AA@ 004e788c     mmInit.obj
 0003:000118ac       ??_C@_0BP@LIJC@objIsPerm?$CI?$CK?$CGsysOopRegistryOop?$CJ?$AA@ 004e78ac     mmInit.obj
 0003:000118cc       ??_C@_0DL@MGDG@asOopPtr?$CI?$CK?$CGsysOopRegistryOop?$CJ?5?$DO?$DN@ 004e78cc     mmInit.obj
 0003:00011908       ??_C@_0BO@FLJP@objIsOld?$CI?$CK?$CGsysOopRegistryOop?$CJ?$AA@ 004e7908     mmInit.obj
 0003:00011928       ??_C@_0EG@PKBL@objInPastSpace?$CI?$CK?$CGsysOopRegistryO@ 004e7928     mmInit.obj
 0003:00011970       ??_C@_0BL@MOAG@?$CKdp?5?$DO?5imageLayout?4heapBase?$AA@ 004e7970     mmInit.obj
 0003:0001198c       ??_C@_0BE@NPEN@?$CBobjInOldRt?$CIobjOop?$CJ?$AA@ 004e798c     mmInit.obj
 0003:000119a0       ??_C@_0BB@BJOE@?$CBobjInRt?$CIobjOop?$CJ?$AA@ 004e79a0     mmInit.obj
 0003:000119b4       ??_C@_0BF@FCJI@?$CBobjIsMarked?$CIobjOop?$CJ?$AA@ 004e79b4     mmInit.obj
 0003:000119cc       ??_C@_0BB@HAGK@couldBeObj?$CI?$CKptr?$CJ?$AA@ 004e79cc     mmInit.obj
 0003:000119e0       ??_C@_0BA@OCKA@objIsPerm?$CI?$CKptr?$CJ?$AA@ 004e79e0     mmInit.obj
 0003:000119f0       ??_C@_0CM@NMKI@asOopPtr?$CI?$CKptr?$CJ?5?$DO?$DN?5imageLayout?4pe@ 004e79f0     mmInit.obj
 0003:00011a1c       ??_C@_0P@DLP@objIsOld?$CI?$CKptr?$CJ?$AA@ 004e7a1c     mmInit.obj
 0003:00011a2c       ??_C@_0CI@FHFC@objInPastSpace?$CI?$CKptr?$CJ?5?$HM?$HM?5objInEde@ 004e7a2c     mmInit.obj
 0003:00011a54       ??_C@_0CH@CALE@objDataPtrInFt?$CIobjDataPtr?$CIobjOop@ 004e7a54     mmInit.obj
 0003:00011a7c       ??_C@_0CB@HJIL@couldBeObj?$CI?$CK?$CG?$CIobjOop?9?$DOclassOop?$CJ?$CJ@ 004e7a7c     mmInit.obj
 0003:00011aa0       ??_C@_0CA@GDFG@objIsPerm?$CI?$CK?$CG?$CIobjOop?9?$DOclassOop?$CJ?$CJ?$AA@ 004e7aa0     mmInit.obj
 0003:00011ac0       ??_C@_0DM@CJFF@asOopPtr?$CI?$CK?$CG?$CIobjOop?9?$DOclassOop?$CJ?$CJ?5?$DO@ 004e7ac0     mmInit.obj
 0003:00011afc       ??_C@_0BP@FKLF@objIsOld?$CI?$CK?$CG?$CIobjOop?9?$DOclassOop?$CJ?$CJ?$AA@ 004e7afc     mmInit.obj
 0003:00011b1c       ??_C@_0EI@CBKO@objInPastSpace?$CI?$CK?$CG?$CIobjOop?9?$DOclassO@ 004e7b1c     mmInit.obj
 0003:00011b64       ??_C@_0CK@LCCD@isHybridContextClassTag?$CIobjOop?9?$DO@ 004e7b64     mmInit.obj
 0003:00011b90       ??_C@_0BL@FLDK@Bad?5oop?5contained?5in?5image?$AA@ 004e7b90     mmInit.obj
 0003:00011bac       ??_C@_0BN@DAOO@imageLayout?4numSandbars?5?$CB?$DN?50?$AA@ 004e7bac     mmInit.obj
 0003:00011bcc       ??_C@_0BP@LECM@oop?5not?5found?5in?5sandbar?5table?$AA@ 004e7bcc     mmInit.obj
 0003:00011bec       ??_C@_0BF@NIND@couldBeObj?$CIblockOop?$CJ?$AA@ 004e7bec     mmLargeSpace.obj
 0003:00011c04       ??_C@_0CB@CDDA@?4?4?2?4?4?2?4?4?2src?2mman?2mmLargeSpace?4c@ 004e7c04     mmLargeSpace.obj
 0003:00011c28       ??_C@_0BP@MKGK@?$CBoopIsImm?$CIobjClass?$CIsourceOop?$CJ?$CJ?$AA@ 004e7c28     mmLargeSpace.obj
 0003:00011c48       ??_C@_0BH@BNOP@?$CBobjHasPtrs?$CIsourceOop?$CJ?$AA@ 004e7c48     mmLargeSpace.obj
 0003:00011c60       ??_C@_0BO@FCLB@objSizeInOvflField?$CIsourceOop?$CJ?$AA@ 004e7c60     mmLargeSpace.obj
 0003:00011c80       ??_C@_0BG@LHOD@couldBeObj?$CIsourceOop?$CJ?$AA@ 004e7c80     mmLargeSpace.obj
 0003:00011c98       ??_C@_0CN@HPOB@largeSpace?4freeSlots?5?$DN?$DN?5slotsInL@ 004e7c98     mmLargeSpace.obj
 0003:00011cc8       ??_C@_0CA@KNGA@?$CBobjHasPtrs?$CIoopOfLsBlock?$CIdest?$CJ?$CJ?$AA@ 004e7cc8     mmLargeSpace.obj
 0003:00011ce8       ??_C@_0CM@GOJA@objSizeOvflSlots?$CIooop?$CJ?5?$DN?$DN?5sizeOv@ 004e7ce8     mmLargeSpace.obj
 0003:00011d14       ??_C@_0BK@MJMO@?$CBoopIsImm?$CIobjClass?$CIooop?$CJ?$CJ?$AA@ 004e7d14     mmLargeSpace.obj
 0003:00011d30       ??_C@_0BG@FKEC@?$CBobjIsForwarded?$CIooop?$CJ?$AA@ 004e7d30     mmLargeSpace.obj
 0003:00011d48       ??_C@_0DO@KADJ@largeSpace?4freeSlots?5?$DN?$DN?5lsDataSl@ 004e7d48     mmLargeSpace.obj
 0003:00011d88       ??_C@_0CF@GNDN@couldBeObj?$CIobjForwardingPtr?$CIobjO@ 004e7d88     mmLargeSpace.obj
 0003:00011db0       ??_C@_0BF@LMNJ@?$CBbogusSizeOvfl?$CIooop?$CJ?$AA@ 004e7db0     mmLargeSpace.obj
 0003:00011dc8       ??_C@_0CI@OGID@objSizeField?$CIooop?$CJ?5?$DN?$DN?5sizeLargeS@ 004e7dc8     mmLargeSpace.obj
 0003:00011df0       ??_C@_0BD@EIAL@slotsInObjBody?5?$DO?50?$AA@ 004e7df0     mmLargeSpace.obj
 0003:00011e04       ??_C@_0CF@JEP@?$CBobjIsPerm?$CIooop?$CJ?5?$HM?$HM?5objInOldRt?$CIo@ 004e7e04     mmLargeSpace.obj
 0003:00011e2c       ??_C@_0CB@KBGK@?$CBobjIsNew?$CIoopOfLsBlock?$CIlsBlock?$CJ?$CJ@ 004e7e2c     mmLargeSpace.obj
 0003:00011e50       ??_C@_0JA@LDOP@replacementOop?5?$DN?$DN?5nonOop?5?$HM?$HM?5?$CIori@ 004e7e50     mmLargeSpace.obj
 0003:00011ee0       ??_C@_0BG@OHAJ@originalOop?5?$CB?$DN?5nonOop?$AA@ 004e7ee0     mmLargeSpace.obj
 0003:00011ef8       ??_C@_0BG@PHEG@newSpaceObjOk?$CInewOop?$CJ?$AA@ 004e7ef8     mmLargeSpace.obj
 0003:00011f10       ??_C@_0DE@EBNF@?$CBlsBlockForObj?$CIprevNewOop?$CJ?5?$CG?$CG?5ls@ 004e7f10     mmLargeSpace.obj
 0003:00011f44       ??_C@_0BL@KLHJ@?$CBlsBlockForObj?$CIprevNewOop?$CJ?$AA@ 004e7f44     mmLargeSpace.obj
 0003:00011f60       ??_C@_0BG@OHAH@lsBlockForObj?$CInewOop?$CJ?$AA@ 004e7f60     mmLargeSpace.obj
 0003:00011f78       ??_C@_0CJ@PJOO@?$CB?$CI?$CBscavengeInProgress?5?$HM?$HM?5objIsNe@ 004e7f78     mmLargeSpace.obj
 0003:00011fa4       ??_C@_0EI@LCDC@objOopDataSlots?$CIooop?$CJ?5?$DN?$DN?5?$CIoopUIn@ 004e7fa4     mmLargeSpace.obj
 0003:00011fec       ??_C@_0DN@OOA@objDataPtr?$CIooop?0?5oop?$CJ?5?$DN?$DN?5dataPtr@ 004e7fec     mmLargeSpace.obj
 0003:0001202c       ??_C@_0CN@HKAP@usedLsSlots?5?$DN?$DN?5?$CIlsDataSlots?$CI?$CJ?5?9?5@ 004e802c     mmLargeSpace.obj
 0003:0001205c       ??_C@_0CE@LFML@freeLsSlots?5?$DN?$DN?5largeSpace?4freeSl@ 004e805c     mmLargeSpace.obj
 0003:00012080       ??_C@_0CE@BOBP@lsBlockIsFree?$CIlargeSpace?4lastBlo@ 004e8080     mmLargeSpace.obj
 0003:000120a4       ??_C@_0CK@IIOL@couldBeDataPtr?$CIdataPtrOfLsBlock?$CI@ 004e80a4     mmLargeSpace.obj
 0003:000120d0       ??_C@_0CM@EDBF@dp?5?$DN?$DN?5dataPtrOfLsBlock?$CIlsBlock?$CJ?5@ 004e80d0     mmLargeSpace.obj
 0003:000120fc       ??_C@_0BL@KPN@objByteDataSize?$CIooop?$CJ?5?$CB?$DN?50?$AA@ 004e80fc     mmLargeSpace.obj
 0003:00012118       ??_C@_0CC@HDMC@bytesInFtEntry?5?$DN?$DN?5sizeof?$CIftEntry@ 004e8118     mmFixedSpace.obj
 0003:0001213c       ??_C@_0CB@GOOH@?4?4?2?4?4?2?4?4?2src?2mman?2mmFixedSpace?4c@ 004e813c     mmFixedSpace.obj
 0003:00012160       ??_C@_0BO@LJDA@objDataInFixedSpace?$CIblockOop?$CJ?$AA@ 004e8160     mmFixedSpace.obj
 0003:00012180       ??_C@_0BM@IJDP@objSizeFixedSpace?$CIblockOop?$CJ?$AA@ 004e8180     mmFixedSpace.obj
 0003:0001219c       ??_C@_0CF@GFIN@fixedSpaceSegmentOk?$CIaSegment?0?5FA@ 004e819c     mmFixedSpace.obj
 0003:000121c4       ??_C@_0JK@JLMD@fsBlockIsFree?$CIanFtEntry?$CJ?5?$HM?$HM?5?$CIcou@ 004e81c4     mmFixedSpace.obj
 0003:00012260       ??_C@_0FD@GDDI@aSegment?9?$DOfreeSlots?5?$DN?$DN?5fsDataSlo@ 004e8260     mmFixedSpace.obj
 0003:000122b4       ??_C@_0CG@FDAB@aSegment?5?$CB?$DN?5?$CIfixedSpaceSegment?5?$CK@ 004e82b4     mmFixedSpace.obj
 0003:000122dc       ??_C@_0DA@KJAG@nextFsBlock?$CIaSegment?9?$DOlastBlock?$CJ@ 004e82dc     mmFixedSpace.obj
 0003:0001230c       ??_C@_0CD@GFIC@fsBlockIsFree?$CIaSegment?9?$DOlastBloc@ 004e830c     mmFixedSpace.obj
 0003:00012330       ??_C@_0FK@KMKF@fixedSpace?4freeSlots?5?$DN?$DN?5fsDataSl@ 004e8330     mmFixedSpace.obj
 0003:0001238c       ??_C@_0CJ@LJFG@slotsInFsBlock?$CIfreeBlock?$CJ?5?$DO?$DN?5slo@ 004e838c     mmFixedSpace.obj
 0003:000123b8       ??_C@_0BJ@KHLG@freeBlock?5?$CB?$DN?5nullFtEntry?$AA@ 004e83b8     mmFixedSpace.obj
 0003:000123d4       ??_C@_0FI@GPPG@slotsInFixedSpaceSeg?$CInewFsSeg?$CJ?5?$DN@ 004e83d4     mmFixedSpace.obj
 0003:0001242c       ??_C@_0BH@DMLC@?$CBallocatedUnusedMemory?$AA@ 004e842c     mmFixedSpace.obj
 0003:00012444       ??_C@_0EE@LIHK@?$CB?$CIcanMap?5?$CG?$CG?5?$CKwasMapped?5?$CG?$CG?5?$CBdataP@ 004e8444     mmFixedSpace.obj
 0003:00012488       ??_C@_0FD@DFDG@?$CB?$CIallocatedUnusedMemory?5?$HM?$DN?5newBa@ 004e8488     mmFixedSpace.obj
 0003:000124dc       ??_C@_0CD@KCNP@FixedSpace?5shrinkage?5unimplement@ 004e84dc     mmFixedSpace.obj
 0003:00012500       ??_C@_0GN@KAND@sizeInOops?$CIobjByteDataSize?$CIooop?$CJ@ 004e8500     mmFixedSpace.obj
 0003:00012570       ??_C@_0DN@BKOA@objDataPtr?$CIooop?0?5oop?$CJ?5?$DN?$DN?5dataPtr@ 004e8570     mmFixedSpace.obj
 0003:000125b0       ??_C@_0BO@NOEK@aSegment?5?$CB?$DN?5nullFixedSpaceSeg?$AA@ 004e85b0     mmFixedSpace.obj
 0003:000125d0       ??_C@_0DH@MNDI@usedFsSlots?5?$DN?$DN?5?$CIfsDataSlotsIn?$CIaS@ 004e85d0     mmFixedSpace.obj
 0003:00012608       ??_C@_0CD@NBIA@freeFsSlots?5?$DN?$DN?5aSegment?9?$DOfreeSlo@ 004e8608     mmFixedSpace.obj
 0003:0001262c       ??_C@_0CK@FHHH@couldBeDataPtr?$CIdataPtrOfFsBlock?$CI@ 004e862c     mmFixedSpace.obj
 0003:00012658       ??_C@_0CM@JDAJ@dp?5?$DN?$DN?5dataPtrOfFsBlock?$CIfsBlock?$CJ?5@ 004e8658     mmFixedSpace.obj
 0003:00012684       ??_C@_0BI@EPIC@objSizeFixedSpace?$CIooop?$CJ?$AA@ 004e8684     mmFixedSpace.obj
 0003:0001269c       ??_C@_0CE@HECM@fsBlock?5?$DN?$DN?5aSegment?9?$DOfirstFreeBl@ 004e869c     mmFixedSpace.obj
 0003:000126c0       ??_C@_0BI@PBE@?$CBftEntryIsFree?$CIfsBlock?$CJ?$AA@ 004e86c0     mmFixedSpace.obj
 0003:000126d8       ??_C@_0BK@EGMK@couldBeObj?$CI?$CI?$CIoop?$CJobjPtr?$CJ?$CJ?$AA@ 004e86d8     mmNewSpace.obj
 0003:000126f4       ??_C@_0BP@DGOM@?4?4?2?4?4?2?4?4?2src?2mman?2mmNewSpace?4c?$AA@ 004e86f4     mmNewSpace.obj
 0003:00012714       ??_C@_0CL@FMHA@?$CBoopIsImm?$CIobjOop?$CJ?5?$CG?$CG?5objInNewSpa@ 004e8714     mmNewSpace.obj
 0003:00012740       ??_C@_0NH@MEL@objInEden?$CI?5objOop?$CJ?5?$DP?5bogusSentin@ 004e8740     mmNewSpace.obj
 0003:00012818       ??_C@_0BB@MJAP@objIsNew?$CIobjOop?$CJ?$AA@ 004e8818     mmNewSpace.obj
 0003:0001282c       ??_C@_0BC@JPFE@newSpaceOk?$CIFALSE?$CJ?$AA@ 004e882c     mmNewSpace.obj
 0003:00012840       ??_C@_0BG@BCHM@newSpaceObjOk?$CIobjOop?$CJ?$AA@ 004e8840     mmNewSpace.obj
 0003:00012858       ??_C@_0CO@EECM@objIsNew?$CIobjOop?$CJ?5?$CG?$CG?5?$CBobjInFuture@ 004e8858     mmNewSpace.obj
 0003:00012888       ??_C@_0BK@KDHG@objOk?$CIobj?$CJ?5?$CG?$CG?5objOk?$CIcopy?$CJ?$AA@ 004e8888     mmNewSpace.obj
 0003:000128a4       ??_C@_0BB@DHGI@?$CBobjHasPtrs?$CIobj?$CJ?$AA@ 004e88a4     mmNewSpace.obj
 0003:000128b8       ??_C@_0BG@FCHB@sizeSlots?5?$DO?$DN?5newSlots?$AA@ 004e88b8     mmNewSpace.obj
 0003:000128d0       ??_C@_0L@INIF@objOk?$CIobj?$CJ?$AA@ 004e88d0     mmNewSpace.obj
 0003:000128dc       ??_C@_0CA@HGAP@?$CBoopIsImm?$CIobj?$CJ?5?$CG?$CG?5objIsNew?$CIobj?$CJ?$AA@ 004e88dc     mmNewSpace.obj
 0003:000128fc       ??_C@_0CD@JDBD@rtOk?$CIrtEntriesMayOrMayNotBeMarke@ 004e88fc     mmNewSpace.obj
 0003:00012920       ??_C@_0CA@MLMN@edenAllocPtr?$CI?$CJ?5?$DM?$DN?5eden?4boundary?$AA@ 004e8920     mmNewSpace.obj
 0003:00012940       ??_C@_0CB@OPNK@eden?4firstSlot?5?$DM?$DN?5edenAllocPtr?$CI?$CJ@ 004e8940     mmNewSpace.obj
 0003:00012964       ??_C@_0BI@BEAD@newSpaceObjOk?$CI?$CIoop?$CJptr?$CJ?$AA@ 004e8964     mmNewSpace.obj
 0003:0001297c       ??_C@_0CO@IEOG@pastSpace?4firstFreeSlot?5?$DM?$DN?5pastS@ 004e897c     mmNewSpace.obj
 0003:000129ac       ??_C@_0CP@FELP@pastSpace?4firstSlot?5?$DM?$DN?5pastSpace@ 004e89ac     mmNewSpace.obj
 0003:000129dc       ??_C@_0BM@PDII@slotsUsed?$CIfutureSpace?$CJ?5?$DN?$DN?50?$AA@ 004e89dc     mmNewSpace.obj
 0003:000129f8       ??_C@_0FC@OOKM@eden?4warningThreshold?5?$DO?$DN?5eden?4fi@ 004e89f8     mmNewSpace.obj
 0003:00012a4c       ??_C@_0BB@FLB@edenAllocPtrOk?$CI?$CJ?$AA@ 004e8a4c     mmNewSpace.obj
 0003:00012a60       ??_C@_0CE@IDBK@objHasValidWeaknessProperties?$CIoo@ 004e8a60     mmNewSpace.obj
 0003:00012a84       ??_C@_0BC@HMOL@?$CBobjInOldRt?$CIooop?$CJ?$AA@ 004e8a84     mmNewSpace.obj
 0003:00012a98       ??_C@_0P@PNBP@?$CBobjInRt?$CIooop?$CJ?$AA@ 004e8a98     mmNewSpace.obj
 0003:00012aa8       ??_C@_0BA@GLML@objDataOk?$CIooop?$CJ?$AA@ 004e8aa8     mmNewSpace.obj
 0003:00012ab8       ??_C@_0BL@HDMK@couldBeOop?$CIobjClass?$CIooop?$CJ?$CJ?$AA@ 004e8ab8     mmNewSpace.obj
 0003:00012ad4       ??_C@_0CJ@HEHD@couldBeNewDataPtr?$CIobjDataPtr?$CIooo@ 004e8ad4     mmNewSpace.obj
 0003:00012b00       ??_C@_0DH@DPJD@objDataInLargeSpace?$CIooop?$CJ?5?$HM?$HM?5obj@ 004e8b00     mmNewSpace.obj
 0003:00012b38       ??_C@_0BA@IDBN@fsBlockOk?$CIooop?$CJ?$AA@ 004e8b38     mmNewSpace.obj
 0003:00012b48       ??_C@_0BA@BDFP@lsBlockOk?$CIooop?$CJ?$AA@ 004e8b48     mmNewSpace.obj
 0003:00012b58       ??_C@_0CI@LIJM@objInEden?$CIooop?$CJ?5?$HM?$HM?5objInPastSpac@ 004e8b58     mmNewSpace.obj
 0003:00012b80       ??_C@_0CB@MJOB@ptr?5?$DN?$DN?5futureSpace?4firstFreeSlot@ 004e8b80     mmNewSpace.obj
 0003:00012ba4       ??_C@_0CA@BCNP@newSpaceObjOkScavenge?$CI?$CIoop?$CJptr?$CJ?$AA@ 004e8ba4     mmNewSpace.obj
 0003:00012bc4       ??_C@_0DL@IOGJ@?$CBobjInFutureSpace?$CInewOop?$CJ?5?$HM?$HM?5new@ 004e8bc4     mmNewSpace.obj
 0003:00012c00       ??_C@_0EC@LDDK@objInEden?$CIooop?$CJ?5?$HM?$HM?5objInPastSpac@ 004e8c00     mmNewSpace.obj
 0003:00012c44       ??_C@_0N@OPPJ@?$CFld?5objects?6?$AA@ 004e8c44     mmNewSpace.obj
 0003:00012c54       ??_C@_06FFKK@0x?$CFx?3?7?$AA@ 004e8c54     mmNewSpace.obj
 0003:00012c5c       ??_C@_0L@DNOE@pastSpace?3?$AA@ 004e8c5c     mmNewSpace.obj
 0003:00012c68       ??_C@_0N@BBGH@futureSpace?3?$AA@ 004e8c68     mmNewSpace.obj
 0003:00012c78       ??_C@_05NMKI@eden?3?$AA@   004e8c78     mmNewSpace.obj
 0003:00012c80       ??_C@_09FLGC@oldRtOk?$CI?$CJ?$AA@ 004e8c80     mmOldRt.obj
 0003:00012c8c       ??_C@_0BA@CEPK@objIsPerm?$CIooop?$CJ?$AA@ 004e8c8c     mmOldRt.obj
 0003:00012c9c       ??_C@_0BM@KAAD@?4?4?2?4?4?2?4?4?2src?2mman?2mmOldRt?4c?$AA@ 004e8c9c     mmOldRt.obj
 0003:00012cb8       ??_C@_0BL@CHIJ@?$CBobjDataInNewSpace?$CIobjOop?$CJ?$AA@ 004e8cb8     mmOldRt.obj
 0003:00012cd4       ??_C@_0BB@MPC@objInOldRt?$CIooop?$CJ?$AA@ 004e8cd4     mmOldRt.obj
 0003:00012ce8       ??_C@_0CP@LGFD@objDataInPermSpace?$CIsegOop?$CJ?5?$HM?$HM?5sl@ 004e8ce8     mmOopStack.obj
 0003:00012d18       ??_C@_0DI@CPIF@objDataInOldSpace?$CIsegOop?$CJ?5?$HM?$HM?5obj@ 004e8d18     mmOopStack.obj
 0003:00012d50       ??_C@_0BP@PNHE@?4?4?2?4?4?2?4?4?2src?2mman?2mmOopStack?4c?$AA@ 004e8d50     mmOopStack.obj
 0003:00012d70       ??_C@_0DH@PMMI@nextSeg?9?$DOused?5?$DN?$DN?50?5?$HM?$HM?5nextSeg?9?$DOu@ 004e8d70     mmOopStack.obj
 0003:00012da8       ??_C@_0CB@JPIN@thisSeg?9?$DOused?5?$DN?$DN?5oopStackSegSize@ 004e8da8     mmOopStack.obj
 0003:00012dcc       ??_C@_0BD@PFNE@thisSeg?9?$DOused?5?$DN?$DN?50?$AA@ 004e8dcc     mmOopStack.obj
 0003:00012de0       ??_C@_0GA@CAME@currentSeg?5?$CB?$DN?5?$CKoopStackPtr?5?$HM?$HM?5?$CI?5@ 004e8de0     mmOopStack.obj
 0003:00012e40       ??_C@_0BF@DNJC@n?5?$DM?$DN?5oopStackSegSize?$AA@ 004e8e40     mmOopStack.obj
 0003:00012e58       ??_C@_0BF@GAOF@Enumeration?5problem?4?$AA@ 004e8e58     mmOopStack.obj
 0003:00012e70       ??_C@_0BM@PFJN@?$CBoopIsImm?$CIsegOop?9?$DOclassOop?$CJ?$AA@ 004e8e70     mmOopStack.obj
 0003:00012e8c       ??_C@_0CJ@CKIP@?$CBoopIsImm?$CIsegOop?$CJ?5?$CG?$CG?5?$CBobjHasPtrs@ 004e8e8c     mmOopStack.obj
 0003:00012eb8       ??_C@_0CG@MBBL@objBodyPtr?$CIobjOop?0?5oop?$CJ?5?$DN?$DN?5oldBo@ 004e8eb8     mmOldSpace.obj
 0003:00012ee0       ??_C@_0BA@OGBC@minNewSlots?5?$DO?50?$AA@ 004e8ee0     mmOldSpace.obj
 0003:00012ef0       ??_C@_0BL@GFJL@minNewSlots?5?$DM?$DN?5maxNewSlots?$AA@ 004e8ef0     mmOldSpace.obj
 0003:00012f0c       ??_C@_0BP@DDLN@?4?4?2?4?4?2?4?4?2src?2mman?2mmOldSpace?4c?$AA@ 004e8f0c     mmOldSpace.obj
 0003:00012f2c       ??_C@_0BI@OMIF@?$CBobjIsNewForAssert?$CIobj?$CJ?$AA@ 004e8f2c     mmOldSpace.obj
 0003:00012f44       ??_C@_0BI@MHCL@addressInAnySegment?$CIdp?$CJ?$AA@ 004e8f44     mmOldSpace.obj
 0003:00012f5c       ??_C@_0CH@JEME@minRemovableSlots?5?$DM?$DN?5maxRemovabl@ 004e8f5c     mmOldSpace.obj
 0003:00012f84       ??_C@_0CI@IPAF@objIsOld?$CIoldSpace?4firstFreeOtEnt@ 004e8f84     mmOldSpace.obj
 0003:00012fac       ??_C@_0CA@ONOH@objIsOld?$CIoldSpace?4firstOtEntry?$CJ?$AA@ 004e8fac     mmOldSpace.obj
 0003:00012fcc       ??_C@_0BB@MODH@?$CBparent?9?$DOsmaller?$AA@ 004e8fcc     mmOldSpace.obj
 0003:00012fe0       ??_C@_0BA@NEDB@?$CBparent?9?$DOlarger?$AA@ 004e8fe0     mmOldSpace.obj
 0003:00012ff0       ??_C@_0FH@JIIN@?$CIoopUInt?$CJ?$CIparent?9?$DOblockSize?$CJ?5?$DN?$DN?5@ 004e8ff0     mmOldSpace.obj
 0003:00013048       ??_C@_0BK@JMC@dataSlots?5?$DO?$DN?5NumFreeLists?$AA@ 004e9048     mmOldSpace.obj
 0003:00013064       ??_C@_0DB@HLGA@dataSlots?5?$DM?$DN?5bytesToOops?$CIlargest@ 004e9064     mmOldSpace.obj
 0003:00013098       ??_C@_0CP@OHEG@oldSpaceSegs?4numThreadedDataSlot@ 004e9098     mmOldSpace.obj
 0003:000130c8       ??_C@_0CB@KFLK@oldSpaceSegs?4numThreadedData?5?$DO?50@ 004e90c8     mmOldSpace.obj
 0003:000130ec       ??_C@_0CF@OGNG@dataPointerInSegmentedSpace?$CIdata@ 004e90ec     mmOldSpace.obj
 0003:00013114       ??_C@_0BF@LLKG@nodeSize?5?$DO?5dataSlots?$AA@ 004e9114     mmOldSpace.obj
 0003:0001312c       ??_C@_0CH@INCG@?$CBdataPtr?5?$HM?$HM?5couldBeOldDataPtr?$CIda@ 004e912c     mmOldSpace.obj
 0003:00013154       ??_C@_0DC@EIGE@decodeBogusDataSize?$CIchild?9?$DOblock@ 004e9154     mmOldSpace.obj
 0003:00013188       ??_C@_0CI@LJOB@child?5?$HM?$HM?5?$CBoldSpaceSegs?4freeDataL@ 004e9188     mmOldSpace.obj
 0003:000131b0       ??_C@_0BI@JFAD@parent?5?$DN?$DN?5child?9?$DOparent?$AA@ 004e91b0     mmOldSpace.obj
 0003:000131c8       ??_C@_0BC@EEOF@threadedDataOk?$CI0?$CJ?$AA@ 004e91c8     mmOldSpace.obj
 0003:000131dc       ??_C@_0BI@OJN@allocOldData?5slots?5?$DN?$DN?50?$AA@ 004e91dc     mmOldSpace.obj
 0003:000131f4       ??_C@_0O@BPHN@dataSlots?5?$DO?50?$AA@ 004e91f4     mmOldSpace.obj
 0003:00013204       ??_C@_0BG@JDAC@tree?5?$CG?$CG?5tree?9?$DOsmaller?$AA@ 004e9204     mmOldSpace.obj
 0003:0001321c       ??_C@_0EE@HJAF@oldSpaceNumThreadedDataAtPrepara@ 004e921c     mmOldSpace.obj
 0003:00013260       ??_C@_0CC@LHID@oldSpaceSegs?4numThreadedData?5?$DN?$DN?5@ 004e9260     mmOldSpace.obj
 0003:00013284       ??_C@_0FJ@ENDN@decodeBogusDataSize?$CIasFreeTreePt@ 004e9284     mmOldSpace.obj
 0003:000132e0       ??_C@_0BJ@IAJK@snapshottedThreaddedData?$AA@ 004e92e0     mmOldSpace.obj
 0003:000132fc       ??_C@_0BC@JKPA@oldSpaceSegsOk?$CI0?$CJ?$AA@ 004e92fc     mmOldSpace.obj
 0003:00013310       ??_C@_0BP@CNDC@newSeg?5?$DM?5oldSpaceSegs?4firstSeg?$AA@ 004e9310     mmOldSpace.obj
 0003:00013330       ??_C@_0BD@DLA@?$CBpermSpaceAbsorbed?$AA@ 004e9330     mmOldSpace.obj
 0003:00013344       ??_C@_0CD@KGJP@oldSpaceSegs?4currentSeg?5?$CB?$DN?5permS@ 004e9344     mmOldSpace.obj
 0003:00013368       ??_C@_0DB@ELMI@oldSpaceSegs?4currentSeg?5?$CB?$DN?5oldSp@ 004e9368     mmOldSpace.obj
 0003:0001339c       ??_C@_09CE@?$CL?$CLnumSegs?$AA@ 004e939c     mmOldSpace.obj
 0003:000133a8       ??_C@_0GL@DFHO@?$CIoopUInt?$CJslotsInOldSpaceSeg?$CI?$CK?$CIol@ 004e93a8     mmOldSpace.obj
 0003:00013414       ??_C@_0BJ@PIJC@oldSpaceSegsOk?$CI?$CGnumSegs?$CJ?$AA@ 004e9414     mmOldSpace.obj
 0003:00013430       ??_C@_0EA@MCKL@?$CB?$CIcanMap?5?$CG?$CG?5?$CKwasMapped?5?$CG?$CG?5?$CBdataP@ 004e9430     mmOldSpace.obj
 0003:00013470       ??_C@_0EL@ODHJ@?$CB?$CIallocatedUnusedMemory?5?$HM?$DN?5segPt@ 004e9470     mmOldSpace.obj
 0003:000134bc       ??_C@_0M@HPNI@sp?9?$DOnextSeg?$AA@ 004e94bc     mmOldSpace.obj
 0003:000134c8       ??_C@_0DI@KCBO@oldSpaceSegs?4lastSeg?5?$HM?$HM?5?$CBoldSpac@ 004e94c8     mmOldSpace.obj
 0003:00013500       ??_C@_0BK@HMFP@aliveBefore?5?$DN?$DN?5aliveAfter?$AA@ 004e9500     mmOldSpace.obj
 0003:0001351c       ??_C@_0DK@HPJO@topSegment?5?$CB?$DN?5bottomSegment?5?$HM?$HM?5b@ 004e951c     mmOldSpace.obj
 0003:00013558       ??_C@_0BM@KEEA@topUnmarked?5?$CB?$DN?5bottomMarked?$AA@ 004e9558     mmOldSpace.obj
 0003:00013574       ??_C@_0FO@GPNL@bottomMarked?5?$DM?$DN?5bottomSegment?9?$DOf@ 004e9574     mmOldSpace.obj
 0003:000135d4       ??_C@_0BK@EAPJ@objIsMarked?$CIbottomMarked?$CJ?$AA@ 004e95d4     mmOldSpace.obj
 0003:000135f0       ??_C@_0EJ@JEJH@?$CBobjIsMarked?$CItopUnmarked?$CJ?5?$HM?$HM?5top@ 004e95f0     mmOldSpace.obj
 0003:0001363c       ??_C@_0CF@BJNP@decodeBogusDataSize?$CItopUnmarked?$CJ@ 004e963c     mmOldSpace.obj
 0003:00013664       ??_C@_0MD@MGA@?$CI?$CItopUnmarked?$CJ?5?$DO?5topSegment?9?$DOfir@ 004e9664     mmOldSpace.obj
 0003:00013728       ??_C@_0CG@DDOM@decodeBogusDataSize?$CIbottomMarked@ 004e9728     mmOldSpace.obj
 0003:00013750       ??_C@_0MH@LEEL@?$CI?$CIbottomMarked?$CJ?5?$DO?5topSegment?9?$DOfi@ 004e9750     mmOldSpace.obj
 0003:00013818       ??_C@_0CO@MLEC@bottomMarked?5?$DM?$DN?5bottomSegment?9?$DOf@ 004e9818     mmOldSpace.obj
 0003:00013848       ??_C@_0CP@FFEM@bottomMarked?5?$DO?5bottomSegment?9?$DOfi@ 004e9848     mmOldSpace.obj
 0003:00013878       ??_C@_0CM@OJJF@bottomMarked?5?$DM?$DN?5bottomSegment?9?$DOf@ 004e9878     mmOldSpace.obj
 0003:000138a4       ??_C@_0GN@JKLP@bottomMarked?5?$DM?$DN?5bottomSegment?9?$DOf@ 004e98a4     mmOldSpace.obj
 0003:00013914       ??_C@_0KA@PHOJ@topUnmarked?5?$DN?$DN?5topSegment?9?$DOfirst@ 004e9914     mmOldSpace.obj
 0003:000139b4       ??_C@_0CO@NEMJ@bottomMarked?5?$DN?$DN?5bottomSegment?9?$DOf@ 004e99b4     mmOldSpace.obj
 0003:000139e4       ??_C@_0BH@KLOF@?$CBdummyObj?$CItopUnmarked?$CJ?$AA@ 004e99e4     mmOldSpace.obj
 0003:000139fc       ??_C@_0BL@MGDM@bottomMarked?5?$DO?5topUnmarked?$AA@ 004e99fc     mmOldSpace.obj
 0003:00013a18       ??_C@_0BM@FFPC@topSegment?5?$DN?$DN?5bottomSegment?$AA@ 004e9a18     mmOldSpace.obj
 0003:00013a34       ??_C@_0CK@GPIH@bottomSegment?9?$DOprevSeg?5?$CB?$DN?5nullOl@ 004e9a34     mmOldSpace.obj
 0003:00013a60       ??_C@_0BO@JHIM@topSegment?5?$CB?$DN?5nullOldSpaceSeg?$AA@ 004e9a60     mmOldSpace.obj
 0003:00013a80       ??_C@_0CB@EHBO@bottomSegment?5?$CB?$DN?5nullOldSpaceSeg@ 004e9a80     mmOldSpace.obj
 0003:00013aa4       ??_C@_0CB@PBCK@decodeBogusDataSize?$CI?$CKsource?$CJ?5?$DO?50@ 004e9aa4     mmOldSpace.obj
 0003:00013ac8       ??_C@_0BO@OHBO@fieldIsReallyEncoded?$CI?$CKsource?$CJ?$AA@ 004e9ac8     mmOldSpace.obj
 0003:00013ae8       ??_C@_0FP@NFBL@source?5?$DO?$DN?5segPtr?9?$DOfirstFreeSlot?5@ 004e9ae8     mmOldSpace.obj
 0003:00013b48       ??_C@_0BF@DOCO@?$CBdummyObj?$CIsourceOop?$CJ?$AA@ 004e9b48     mmOldSpace.obj
 0003:00013b60       ??_C@_0BM@BPII@fieldIsReallyEncoded?$CI?$CKdest?$CJ?$AA@ 004e9b60     mmOldSpace.obj
 0003:00013b7c       ??_C@_0BH@PDBI@verifyDataWalk?$CIsegPtr?$CJ?$AA@ 004e9b7c     mmOldSpace.obj
 0003:00013b94       ??_C@_0CH@MKJK@dataSize?5?$DN?$DN?5objOopBodySlots?$CIsour@ 004e9b94     mmOldSpace.obj
 0003:00013bbc       ??_C@_0BN@LGFJ@addressInAnyNewOt?$CIsourceOop?$CJ?$AA@ 004e9bbc     mmOldSpace.obj
 0003:00013bdc       ??_C@_0BN@DBMG@fieldIsReallyEncoded?$CIobjOop?$CJ?$AA@ 004e9bdc     mmOldSpace.obj
 0003:00013bfc       ??_C@_0BD@KPEM@couldBeObj?$CIobjOop?$CJ?$AA@ 004e9bfc     mmOldSpace.obj
 0003:00013c10       ??_C@_0BC@LJBG@?$CBobjIsNew?$CIobjOop?$CJ?$AA@ 004e9c10     mmOldSpace.obj
 0003:00013c24       ??_C@_0BE@HKMN@objHeaderOk?$CIobjOop?$CJ?$AA@ 004e9c24     mmOldSpace.obj
 0003:00013c38       ??_C@_0O@EHNB@segBeingSwept?$AA@ 004e9c38     mmOldSpace.obj
 0003:00013c48       ??_C@_0CM@BDCH@objHasValidWeaknessProperties?$CIco@ 004e9c48     mmOldSpace.obj
 0003:00013c74       ??_C@_0DJ@JNOH@?$CBoopIsImm?$CIcontainerOop?$CJ?5?$CG?$CG?5?$CBobjI@ 004e9c74     mmOldSpace.obj
 0003:00013cb0       ??_C@_0DI@DHKC@?$CBoopIsImm?$CIcontainerOop?$CJ?5?$CG?$CG?5objIs@ 004e9cb0     mmOldSpace.obj
 0003:00013ce8       ??_C@_0BI@JGDJ@?$CBoopIsImm?$CIcontainerOop?$CJ?$AA@ 004e9ce8     mmOldSpace.obj
 0003:00013d00       ??_C@_0LN@JDMM@scanFunc?5?$DN?$DN?5scanObjectMemory?5?$HM?$HM?5@ 004e9d00     mmOldSpace.obj
 0003:00013dc0       ??_C@_0KD@EGAH@?$CIcontainerOop?$CJ?5?$DN?$DN?5nonOop?5?$HM?$HM?5objD@ 004e9dc0     mmOldSpace.obj
 0003:00013e64       ??_C@_0BG@JCGP@?$CBdummyObj?$CIcurrentOop?$CJ?$AA@ 004e9e64     mmOldSpace.obj
 0003:00013e7c       ??_C@_0BJ@KAFP@objHeaderOk?$CIobjOop?5?$CL?515?$CJ?$AA@ 004e9e7c     mmOldSpace.obj
 0003:00013e98       ??_C@_0BJ@LGPF@objHeaderOk?$CIobjOop?5?$CL?514?$CJ?$AA@ 004e9e98     mmOldSpace.obj
 0003:00013eb4       ??_C@_0BJ@NHKA@objHeaderOk?$CIobjOop?5?$CL?513?$CJ?$AA@ 004e9eb4     mmOldSpace.obj
 0003:00013ed0       ??_C@_0BJ@MBAK@objHeaderOk?$CIobjOop?5?$CL?512?$CJ?$AA@ 004e9ed0     mmOldSpace.obj
 0003:00013eec       ??_C@_0BJ@PKPF@objHeaderOk?$CIobjOop?5?$CL?511?$CJ?$AA@ 004e9eec     mmOldSpace.obj
 0003:00013f08       ??_C@_0BJ@OMFP@objHeaderOk?$CIobjOop?5?$CL?510?$CJ?$AA@ 004e9f08     mmOldSpace.obj
 0003:00013f24       ??_C@_0BI@HCBA@objHeaderOk?$CIobjOop?5?$CL?59?$CJ?$AA@ 004e9f24     mmOldSpace.obj
 0003:00013f3c       ??_C@_0BI@GELK@objHeaderOk?$CIobjOop?5?$CL?58?$CJ?$AA@ 004e9f3c     mmOldSpace.obj
 0003:00013f54       ??_C@_0BI@LALL@objHeaderOk?$CIobjOop?5?$CL?57?$CJ?$AA@ 004e9f54     mmOldSpace.obj
 0003:00013f6c       ??_C@_0BI@KGBB@objHeaderOk?$CIobjOop?5?$CL?56?$CJ?$AA@ 004e9f6c     mmOldSpace.obj
 0003:00013f84       ??_C@_0BI@JNOO@objHeaderOk?$CIobjOop?5?$CL?55?$CJ?$AA@ 004e9f84     mmOldSpace.obj
 0003:00013f9c       ??_C@_0BI@ILEE@objHeaderOk?$CIobjOop?5?$CL?54?$CJ?$AA@ 004e9f9c     mmOldSpace.obj
 0003:00013fb4       ??_C@_0BI@OKBB@objHeaderOk?$CIobjOop?5?$CL?53?$CJ?$AA@ 004e9fb4     mmOldSpace.obj
 0003:00013fcc       ??_C@_0BI@PMLL@objHeaderOk?$CIobjOop?5?$CL?52?$CJ?$AA@ 004e9fcc     mmOldSpace.obj
 0003:00013fe4       ??_C@_0BI@MHEE@objHeaderOk?$CIobjOop?5?$CL?51?$CJ?$AA@ 004e9fe4     mmOldSpace.obj
 0003:00013ffc       ??_C@_0BI@NBOO@objHeaderOk?$CIobjOop?5?$CL?50?$CJ?$AA@ 004e9ffc     mmOldSpace.obj
 0003:00014014       ??_C@_0BA@MPAC@nextSegToUnmark?$AA@ 004ea014     mmOldSpace.obj
 0003:00014024       ??_C@_0BC@CJEH@oldSpaceOk?$CIFALSE?$CJ?$AA@ 004ea024     mmOldSpace.obj
 0003:00014038       ??_C@_0BO@IIFK@dummyObj?$CIooop?$CJ?5?$HM?$HM?5objOk?$CIooop?$CJ?$AA@ 004ea038     mmOldSpace.obj
 0003:00014058       ??_C@_0BL@JCNG@objDataInHandleSpace?$CIooop?$CJ?$AA@ 004ea058     mmOldSpace.obj
 0003:00014074       ??_C@_0BM@KPPK@objBodyPtr?$CIooop?0?5oop?$CJ?5?$DN?$DN?5bp?$AA@ 004ea074     mmOldSpace.obj
 0003:00014090       ??_C@_0BA@CLJ@?$CBobjIsNew?$CIooop?$CJ?$AA@ 004ea090     mmOldSpace.obj
 0003:000140a0       ??_C@_0BJ@BCBH@?$CBobjIsNewForAssert?$CIooop?$CJ?$AA@ 004ea0a0     mmOldSpace.obj
 0003:000140bc       ??_C@_0CC@KDDA@?$CBoopIsImm?$CIooop?$CJ?5?$CG?$CG?5objIsOld?$CIooop@ 004ea0bc     mmOldSpace.obj
 0003:000140e0       ??_C@_0CG@CCCJ@oldSpaceSegs?4numThreadedOtEntrie@ 004ea0e0     mmOldSpace.obj
 0003:00014108       ??_C@_0CK@ODDE@numOtEntries?5?$DN?$DN?5otEntriesUsedInO@ 004ea108     mmOldSpace.obj
 0003:00014134       ??_C@_0CI@PFJL@slotsInOldData?5?$DN?$DN?5slotsUsedInOld@ 004ea134     mmOldSpace.obj
 0003:0001415c       ??_C@_0CK@OAC@threadedDataOk?$CI?$CGtotalSlotsInThre@ 004ea15c     mmOldSpace.obj
 0003:00014188       ??_C@_0BG@KGJK@threadedOtEntriesOk?$CI?$CJ?$AA@ 004ea188     mmOldSpace.obj
 0003:000141a0       ??_C@_0DD@EDKI@oldSpaceObjOk?$CIooop?0?5ifMarkedRefe@ 004ea1a0     mmOldSpace.obj
 0003:000141d4       ??_C@_0DE@JBNN@objDataInTaggedSpace?$CIooop?$CJ?5?$HM?$HM?5no@ 004ea1d4     mmOldSpace.obj
 0003:00014208       ??_C@_0EH@DMLD@oldSpaceSegs?4currentSeg?9?$DOfirstFr@ 004ea208     mmOldSpace.obj
 0003:00014250       ??_C@_0EB@BEAI@oldSpaceSegs?4currentSeg?9?$DOfirstFr@ 004ea250     mmOldSpace.obj
 0003:00014294       ??_C@_0DP@OIGK@oldSpaceSegs?4currentSeg?9?$DOfirstOt@ 004ea294     mmOldSpace.obj
 0003:000142d4       ??_C@_0DJ@NMB@oldSpaceSegs?4currentSeg?9?$DOfirstSl@ 004ea2d4     mmOldSpace.obj
 0003:00014310       ??_C@_0DD@FONK@oldSpace?4firstFreeOtEntry?5?$DM?$DN?5old@ 004ea310     mmOldSpace.obj
 0003:00014344       ??_C@_0EC@PLPL@oldSpace?4firstFreeSlot?5?$DM?$DN?5asOopP@ 004ea344     mmOldSpace.obj
 0003:00014388       ??_C@_0CN@JGDA@oldSpace?4firstSlot?5?$DM?$DN?5oldSpace?4f@ 004ea388     mmOldSpace.obj
 0003:000143b8       ??_C@_0BE@PFOJ@objReallyInRt?$CIooop?$CJ?$AA@ 004ea3b8     mmOldSpace.obj
 0003:000143cc       ??_C@_0DL@DPHO@objDataOkShouldBeMarked?$CIooop?0mar@ 004ea3cc     mmOldSpace.obj
 0003:00014408       ??_C@_0DE@DILA@objIsHybridCtx?$CIooop?$CJ?5?$HM?$HM?5probably@ 004ea408     mmOldSpace.obj
 0003:0001443c       ??_C@_0CM@PMHE@couldBeNonNewDataPtr?$CIobjDataPtr?$CI@ 004ea43c     mmOldSpace.obj
 0003:00014468       ??_C@_0BK@NPKP@rawObjBodySize?$CIooop?$CJ?5?$CB?$DN?50?$AA@ 004ea468     mmOldSpace.obj
 0003:00014484       ??_C@_0BK@DFFG@rawObjBodySize?$CIooop?$CJ?5?$DN?$DN?50?$AA@ 004ea484     mmOldSpace.obj
 0003:000144a0       ??_C@_0CM@FOBJ@objIsOld?$CIooop?$CJ?5?$CG?$CG?5addressInOldSe@ 004ea4a0     mmOldSpace.obj
 0003:000144cc       ??_C@_0CM@OEAP@oldSpaceSegs?4numThreadedDataSlot@ 004ea4cc     mmOldSpace.obj
 0003:000144f8       ??_C@_0BF@FEAO@childSize?5?$DO?5nodeSize?$AA@ 004ea4f8     mmOldSpace.obj
 0003:00014510       ??_C@_0BG@BAMF@node?5?$DN?$DN?5child?9?$DOparent?$AA@ 004ea510     mmOldSpace.obj
 0003:00014528       ??_C@_0BF@ELIK@childSize?5?$DM?5nodeSize?$AA@ 004ea528     mmOldSpace.obj
 0003:00014540       ??_C@_0CE@IBN@couldBeOldDataPtr?$CIsmallListPtr?5?$CL@ 004ea540     mmOldSpace.obj
 0003:00014564       ??_C@_0CA@NEEM@couldBeOldDataPtr?$CIsmallListPtr?$CJ?$AA@ 004ea564     mmOldSpace.obj
 0003:00014584       ??_C@_0CE@GDAD@?$CL?$CLn?5?$DM?$DN?5oldSpaceSegs?4numThreadedD@ 004ea584     mmOldSpace.obj
 0003:000145a8       ??_C@_0CK@DFMI@couldBeOldDataPtr?$CI?$CIoop?5?$CK?$CJtreeNod@ 004ea5a8     mmOldSpace.obj
 0003:000145d4       ??_C@_0DD@PPMM@?$CIsize?5?$DN?5decodeBogusDataSize?$CIsize@ 004ea5d4     mmOldSpace.obj
 0003:00014608       ??_C@_0DB@LABE@fieldIsReallyEncoded?$CIsize?5?$DN?5tree@ 004ea608     mmOldSpace.obj
 0003:0001463c       ??_C@_0BM@KLDP@couldBeOldDataPtr?$CItreeNode?$CJ?$AA@ 004ea63c     mmOldSpace.obj
 0003:00014658       ??_C@_0CN@GGPB@oldSpaceSegs?4numThreadedOtEntrie@ 004ea658     mmOldSpace.obj
 0003:00014688       ??_C@_0DN@CBGB@?$CBobjIsMarked?$CIotEnt?$CJ?5?$CG?$CG?5?$CBobjInRt?$CI@ 004ea688     mmOldSpace.obj
 0003:000146c8       ??_C@_0BA@BOCH@dummyObj?$CIotEnt?$CJ?$AA@ 004ea6c8     mmOldSpace.obj
 0003:000146d8       ??_C@_0BG@IPL@addressInAnyOt?$CIotEnt?$CJ?$AA@ 004ea6d8     mmOldSpace.obj
 0003:000146f0       ??_C@_0BB@JFGA@?$CBoopIsImm?$CIotEnt?$CJ?$AA@ 004ea6f0     mmOldSpace.obj
 0003:00014704       ??_C@_0CN@EACM@howMany?5?$DM?$DN?5oldSpaceSegs?4numThrea@ 004ea704     mmOldSpace.obj
 0003:00014734       ??_C@_0CN@KNGC@?$CBobjIsNew?$CIoldSpaceSegs?4firstThre@ 004ea734     mmOldSpace.obj
 0003:00014764       ??_C@_0CO@GIBC@couldBeObj?$CIoldSpaceSegs?4firstThr@ 004ea764     mmOldSpace.obj
 0003:00014794       ??_C@_0BA@EDKG@foundCurrentSeg?$AA@ 004ea794     mmOldSpace.obj
 0003:000147a4       ??_C@_0BH@EIE@count?5?$DN?$DN?5expectedCount?$AA@ 004ea7a4     mmOldSpace.obj
 0003:000147bc       ??_C@_0CJ@INKM@sp?9?$DOfirstFreeOtEntry?5?$DM?$DN?5sp?9?$DOfirs@ 004ea7bc     mmOldSpace.obj
 0003:000147e8       ??_C@_0DL@CCDA@sp?9?$DOfirstFreeSlot?5?9?51?5?$DM?5asOopPtr@ 004ea7e8     mmOldSpace.obj
 0003:00014824       ??_C@_0CD@IOKO@sp?9?$DOfirstSlot?5?$DM?$DN?5sp?9?$DOfirstFreeSl@ 004ea824     mmOldSpace.obj
 0003:00014848       ??_C@_0DP@IMAA@segPtr?9?$DOnextSeg?5?$DO?5segPtr?5?$CG?$CG?5segP@ 004ea848     mmOldSpace.obj
 0003:00014888       ??_C@_0BP@CGIJ@segPtr?5?$DN?$DN?5oldSpaceSegs?4lastSeg?$AA@ 004ea888     mmOldSpace.obj
 0003:000148a8       ??_C@_0GN@HFKE@oldSpace?4nextSeg?5?$DN?$DN?5oldSpaceSegs@ 004ea8a8     mmOldSpace.obj
 0003:00014918       ??_C@_0BI@JBCP@oldSpaceSegs?4currentSeg?$AA@ 004ea918     mmOldSpace.obj
 0003:00014930       ??_C@_0EC@BNPA@?$CBoldSpaceSegs?4firstSeg?9?$DOprevSeg?5@ 004ea930     mmOldSpace.obj
 0003:00014974       ??_C@_0CO@DKGJ@oldSpaceSegs?4firstSeg?5?$DM?$DN?5oldSpac@ 004ea974     mmOldSpace.obj
 0003:000149a4       ??_C@_0CO@MMJH@oldSpaceSegs?4firstSeg?5?$CG?$CG?5oldSpac@ 004ea9a4     mmOldSpace.obj
 0003:000149d4       ??_C@_0DP@OMOM@checkMarksInOt?3?5incremental?5GC?5w@ 004ea9d4     mmOldSpace.obj
 0003:00014a14       ??_C@_0DB@JHAP@checkMarksInOt?3?5oop?50x?$CFx?5has?5inc@ 004eaa14     mmOldSpace.obj
 0003:00014a48       ??_C@_0BK@KAIL@?$CBobjIsCheckMarked?$CIobjOop?$CJ?$AA@ 004eaa48     mmOldSpace.obj
 0003:00014a64       ??_C@_0EE@IIBL@checkMapIsClearFromUpto?$CIsp?9?$DOfirs@ 004eaa64     mmOldSpace.obj
 0003:00014aa8       ??_C@_0DK@HCFJ@checkMapIsClearFromUpto?$CIsp?9?$DOfirs@ 004eaaa8     mmOldSpace.obj
 0003:00014ae4       ??_C@_0DH@GKFE@checkMapIsSetFromUpto?$CIdp?0dp?5?$CL?5sl@ 004eaae4     mmOldSpace.obj
 0003:00014b1c       ??_C@_0BL@KFHM@clearThreadedDataEntries?$CI?$CJ?$AA@ 004eab1c     mmOldSpace.obj
 0003:00014b38       ??_C@_0CF@GBLI@checkMapIsSetFromUpto?$CIooop?0ooop?5@ 004eab38     mmOldSpace.obj
 0003:00014b60       ??_C@_0BO@EJBP@checkMapIsSetFromUpto?$CIp?0endp?$CJ?$AA@ 004eab60     mmOldSpace.obj
 0003:00014b80       ??_C@_0CE@HHEH@currentPtr?5?$DN?$DN?5segPtr?9?$DOfirstFreeS@ 004eab80     mmOldSpace.obj
 0003:00014ba4       ??_C@_0CF@OKBI@decodeBogusDataSize?$CI?$CKcurrentPtr?$CJ@ 004eaba4     mmOldSpace.obj
 0003:00014bcc       ??_C@_0CC@GKKK@fieldIsReallyEncoded?$CI?$CKcurrentPtr@ 004eabcc     mmOldSpace.obj
 0003:00014bf0       ??_C@_0BH@KNOG@couldBeObj?$CIcurrentOop?$CJ?$AA@ 004eabf0     mmOldSpace.obj
 0003:00014c08       ??_C@_0FH@NNGF@seg?50x?$CFlx?7prev?50x?$CFlx?5next?50x?$CFlx?6@ 004eac08     mmOldSpace.obj
 0003:00014c60       ??_C@_0CG@KJGK@current?50x?$CFlx?5first?50x?$CFlx?5last?50@ 004eac60     mmOldSpace.obj
 0003:00014c88       ??_C@_0CO@NIIM@?$CIoopUInt?$CJ?$CInumEntries?$CJ?5?$DM?$DN?5?$CIoopUIn@ 004eac88     mmOldSpace.obj
 0003:00014cb8       ??_C@_0CO@DKJD@?$CIoopUInt?$CJ?$CInFixedSegs?$CJ?5?$DM?$DN?5?$CIoopUIn@ 004eacb8     mmOldSpace.obj
 0003:00014ce8       ??_C@_0ED@JGBG@?$CIoopUInt?$CJ?$CIliveEntriesInOopStack?$CI@ 004eace8     mmOldSpace.obj
 0003:00014d2c       ??_C@_0EE@OLG@?$CIoopUInt?$CJ?$CItotalEntriesInOopStack@ 004ead2c     mmOldSpace.obj
 0003:00014d70       ??_C@_0FH@FOBA@?$CIoopUInt?$CJ?$CIpermSpace?4firstOtEntry@ 004ead70     mmOldSpace.obj
 0003:00014dc8       ??_C@_0EJ@MIIO@?$CIoopUInt?$CJ?$CI?$CI?$CIoopUInt?$CJ?$CIslots?4inNMe@ 004eadc8     mmOldSpace.obj
 0003:00014e14       ??_C@_0EI@JHMK@?$CIoopUInt?$CJ?$CI?$CI?$CIoopUInt?$CJ?$CIslots?4inSta@ 004eae14     mmOldSpace.obj
 0003:00014e5c       ??_C@_0CM@GBIG@?$CIoopUInt?$CJ?$CInOldSegs?$CJ?5?$DM?$DN?5?$CIoopUInt?$CJ@ 004eae5c     mmOldSpace.obj
 0003:00014e88       ??_C@_0CL@KKJL@?$CIoopUInt?$CJ?$CIentries?$CJ?5?$DM?$DN?5?$CIoopUInt?$CJm@ 004eae88     mmOldSpace.obj
 0003:00014eb4       ??_C@_0DK@OHED@?$CIoopUInt?$CJ?$CIincSweepReclaimedCount@ 004eaeb4     mmOldSpace.obj
 0003:00014ef0       ??_C@_0DB@PCE@?$CIoopUInt?$CJ?$CIincSweepCount?$CJ?5?$DM?$DN?5?$CIoop@ 004eaef0     mmOldSpace.obj
 0003:00014f24       ??_C@_0DG@BEAI@?$CIoopUInt?$CJ?$CIincSweepAllocCount?$CJ?5?$DM?$DN@ 004eaf24     mmOldSpace.obj
 0003:00014f5c       ??_C@_0DF@GPDE@?$CIoopUInt?$CJ?$CIincGCWeakNilCount?$CJ?5?$DM?$DN?5@ 004eaf5c     mmOldSpace.obj
 0003:00014f94       ??_C@_0DC@CGIE@?$CIoopUInt?$CJ?$CIincUnmarkCount?$CJ?5?$DM?$DN?5?$CIoo@ 004eaf94     mmOldSpace.obj
 0003:00014fc8       ??_C@_0DC@JOCN@?$CIoopUInt?$CJ?$CIincGCWeakCount?$CJ?5?$DM?$DN?5?$CIoo@ 004eafc8     mmOldSpace.obj
 0003:00014ffc       ??_C@_0DC@JFPF@?$CIoopUInt?$CJ?$CIincGCMarkCount?$CJ?5?$DM?$DN?5?$CIoo@ 004eaffc     mmOldSpace.obj
 0003:00015030       ??_C@_0FH@HEBA@?$CIoopUInt?$CJ?$CI?$CI?$CIoopUInt?$CJ?$CIoldSpaceSeg@ 004eb030     mmOldSpace.obj
 0003:00015088       ??_C@_0EA@KFHN@?$CIoopUInt?$CJ?$CIoldSpaceSegs?4numThread@ 004eb088     mmOldSpace.obj
 0003:000150c8       ??_C@_0EF@KJJF@?$CIoopUInt?$CJ?$CIoldSpaceSegs?4numThread@ 004eb0c8     mmOldSpace.obj
 0003:00015110       ??_C@_0CO@NEPM@?$CIoopUInt?$CJ?$CInumObjects?$CJ?5?$DM?$DN?5?$CIoopUIn@ 004eb110     mmOldSpace.obj
 0003:00015140       ??_C@_0EK@PAJN@?$CIoopUInt?$CJ?$CI?$CI?$CIoopUInt?$CJ?$CIgetTenureTh@ 004eb140     mmOldSpace.obj
 0003:0001518c       ??_C@_0GF@PGCL@?$CIoopUInt?$CJ?$CI?$CI?$CIoopUInt?$CJ?$CI?$CIpastSpace?4@ 004eb18c     mmOldSpace.obj
 0003:000151f4       ??_C@_0GA@IJMJ@?$CIoopUInt?$CJ?$CI?$CI?$CIoopUInt?$CJ?$CI?$CIpastSpace?4@ 004eb1f4     mmOldSpace.obj
 0003:00015254       ??_C@_0FM@JPK@?$CIoopUInt?$CJ?$CI?$CI?$CIoopUInt?$CJ?$CIeden?4warnin@ 004eb254     mmOldSpace.obj
 0003:000152b0       ??_C@_0FL@NDEB@?$CIoopUInt?$CJ?$CI?$CI?$CIoopUInt?$CJ?$CI?$CIeden?4first@ 004eb2b0     mmOldSpace.obj
 0003:0001530c       ??_C@_0FG@2?$CIoopUInt?$CJ?$CI?$CI?$CIoopUInt?$CJ?$CI?$CIeden?4bound@ 004eb30c     mmOldSpace.obj
 0003:00015364       ??_C@_0EF@NFNF@?$CIoopUInt?$CJ?$CI?$CIrt?4firstFreeSlot?5?9?5rt@ 004eb364     mmOldSpace.obj
 0003:000153ac       ??_C@_0EA@EOCC@?$CIoopUInt?$CJ?$CI?$CIrt?4boundary?5?9?5rt?4firs@ 004eb3ac     mmOldSpace.obj
 0003:000153ec       ??_C@_0FF@JCJD@?$CIresultOop?$CJ?5?$DN?$DN?5nonOop?5?$HM?$HM?5objData@ 004eb3ec     mmOldSpace.obj
 0003:00015444       ??_C@_0N@FBIH@numSegs?5?9?$DN?51?$AA@ 004eb444     mmOldSpace.obj
 0003:00015454       ??_C@_0BO@MEL@segPtr?5?$DM?5oldSpaceSegs?4lastSeg?$AA@ 004eb454     mmOldSpace.obj
 0003:00015474       ??_C@_0DD@CP@next?5?$DN?$DN?5nullOldSpaceSeg?5?$HM?$HM?5next?9@ 004eb474     mmOldSpace.obj
 0003:000154a8       ??_C@_0CA@GLMG@prev?5?$CG?$CG?5prev?9?$DOnextSeg?5?$DN?$DN?5segPtr?$AA@ 004eb4a8     mmOldSpace.obj
 0003:000154c8       ??_C@_0CI@KIA@?$CBoldSpaceSegs?4firstSeg?9?$DOmemoryWa@ 004eb4c8     mmOldSpace.obj
 0003:000154f0       ??_C@_0FG@FJC@?$CBoopIsImm?$CIbestProcess?$CJ?5?$CG?$CG?5objIsN@ 004eb4f0     mmProcess.obj
 0003:00015548       ??_C@_0BE@JOKH@couldBeContext?$CIctx?$CJ?$AA@ 004eb548     mmProcess.obj
 0003:0001555c       ??_C@_0DL@OLBF@objDataField?$CIbestProcess?0?5oop?0?5m@ 004eb55c     mmProcess.obj
 0003:00015598       ??_C@_0CB@ODHM@?$CIbestProcess?$CJ?5?$DN?$DN?5activeProcess?$CI?$CJ@ 004eb598     mmProcess.obj
 0003:000155bc       ??_C@_0CB@HBFI@?$CIbestProcess?$CJ?5?$CB?$DN?5sysOop?$CInilOopX?$CJ@ 004eb5bc     mmProcess.obj
 0003:000155e0       ??_C@_0DH@FNCN@?$CBoopIsImm?$CIbestProcess?$CJ?5?$CG?$CG?5?$CBobjIs@ 004eb5e0     mmProcess.obj
 0003:00015618       ??_C@_0BH@DPAE@?$CBoopIsImm?$CIbestProcess?$CJ?$AA@ 004eb618     mmProcess.obj
 0003:00015630       ??_C@_0EH@JILG@?$CBoopIsImm?$CIprocessSchedulerOop?$CJ?5?$CG@ 004eb630     mmProcess.obj
 0003:00015678       ??_C@_0GA@KJLB@?$CBoopIsImm?$CIprocessSchedulerOop?$CJ?5?$CG@ 004eb678     mmProcess.obj
 0003:000156d8       ??_C@_0BP@OIIM@?$CBoopIsImm?$CIprocessSchedulerOop?$CJ?$AA@ 004eb6d8     mmProcess.obj
 0003:000156f8       ??_C@_0CA@FEC@?$CBprocessIsRunnable?$CIbestProcess?$CJ?$AA@ 004eb6f8     mmProcess.obj
 0003:00015718       ??_C@_0CO@JDAK@Image?5has?5no?5processes?5ready?5to?5@ 004eb718     mmProcess.obj
 0003:00015748       ??_C@_0BO@ODC@?4?4?2?4?4?2?4?4?2src?2mman?2mmProcess?4c?$AA@ 004eb748     mmProcess.obj
 0003:00015768       ??_C@_0EC@PCMP@?$CBoopIsImm?$CIprocOop?$CJ?5?$CG?$CG?5objIsNewAs@ 004eb768     mmProcess.obj
 0003:000157ac       ??_C@_0HD@LFNE@?$CBoopIsImm?$CI?$CI?$CK?$CI?$CI?$CIoop?5?$CK?$CJ?$CI?$CIpList?$CJ?9?$DOp@ 004eb7ac     mmProcess.obj
 0003:00015820       ??_C@_0II@HGFO@?$CBoopIsImm?$CI?$CI?$CK?$CI?$CI?$CIoop?5?$CK?$CJ?$CI?$CIpList?$CJ?9?$DOp@ 004eb820     mmProcess.obj
 0003:000158a8       ??_C@_0DF@NEIP@?$CBoopIsImm?$CI?$CI?$CK?$CI?$CI?$CIoop?5?$CK?$CJ?$CI?$CIpList?$CJ?9?$DOp@ 004eb8a8     mmProcess.obj
 0003:000158e0       ??_C@_0BL@FAGI@lastLink?$CIpList?$CJ?5?$CB?$DN?5procOop?$AA@ 004eb8e0     mmProcess.obj
 0003:000158fc       ??_C@_0CP@GIBK@?$CBoopIsImm?$CIprocOop?$CJ?5?$CG?$CG?5?$CBobjIsNewA@ 004eb8fc     mmProcess.obj
 0003:0001592c       ??_C@_0BD@PGIA@?$CBoopIsImm?$CIprocOop?$CJ?$AA@ 004eb92c     mmProcess.obj
 0003:00015940       ??_C@_0CL@IJFF@?$CBoopIsImm?$CIpList?$CJ?5?$CG?$CG?5?$CBobjIsNewAss@ 004eb940     mmProcess.obj
 0003:0001596c       ??_C@_0EA@MELO@?$CBoopIsImm?$CIpList?$CJ?5?$CG?$CG?5objIsNewAsse@ 004eb96c     mmProcess.obj
 0003:000159ac       ??_C@_0BB@DDNP@?$CBoopIsImm?$CIpList?$CJ?$AA@ 004eb9ac     mmProcess.obj
 0003:000159c0       ??_C@_0CF@IKGL@nextLink?$CIprocOop?$CJ?5?$DN?$DN?5sysOop?$CInilO@ 004eb9c0     mmProcess.obj
 0003:000159e8       ??_C@_0BM@BAPN@?$CBprocessIsRunnable?$CIprocOop?$CJ?$AA@ 004eb9e8     mmProcess.obj
 0003:00015a04       ??_C@_0CF@NLJA@excessSignals?$CIsemOop?$CJ?5?$DN?$DN?5zeroSig@ 004eba04     mmProcess.obj
 0003:00015a2c       ??_C@_0CO@ICGB@fastIsKindOf?$CIsemOop?0?5sysOop?$CIsema@ 004eba2c     mmProcess.obj
 0003:00015a5c       ??_C@_0BE@EOBG@probablyObj?$CIsemOop?$CJ?$AA@ 004eba5c     mmProcess.obj
 0003:00015a70       ??_C@_0EL@ILFP@?$CBoopIsImm?$CIactiveProc?$CJ?5?$CG?$CG?5objIsNe@ 004eba70     mmProcess.obj
 0003:00015abc       ??_C@_0HJ@PFNA@?$CBoopIsImm?$CI?$CI?$CK?$CI?$CI?$CIoop?5?$CK?$CJ?$CI?$CIprocList?$CJ@ 004ebabc     mmProcess.obj
 0003:00015b38       ??_C@_0DI@IMNG@?$CBoopIsImm?$CI?$CI?$CK?$CI?$CI?$CIoop?5?$CK?$CJ?$CI?$CIprocList?$CJ@ 004ebb38     mmProcess.obj
 0003:00015b70       ??_C@_0GP@DEBE@?$CBoopIsImm?$CIactiveProc?$CJ?5?$CG?$CG?5objIsNe@ 004ebb70     mmProcess.obj
 0003:00015be0       ??_C@_0CC@BCMM@firstLink?$CIprocList?$CJ?5?$CB?$DN?5activePro@ 004ebbe0     mmProcess.obj
 0003:00015c04       ??_C@_0DB@MHBN@?$CBoopIsImm?$CIprocList?$CJ?5?$CG?$CG?5?$CBobjIsNew@ 004ebc04     mmProcess.obj
 0003:00015c38       ??_C@_0EJ@KGID@?$CBoopIsImm?$CIprocList?$CJ?5?$CG?$CG?5objIsNewA@ 004ebc38     mmProcess.obj
 0003:00015c84       ??_C@_0BE@FKNJ@?$CBoopIsImm?$CIprocList?$CJ?$AA@ 004ebc84     mmProcess.obj
 0003:00015c98       ??_C@_0BG@OGHC@probablyObj?$CIprocList?$CJ?$AA@ 004ebc98     mmProcess.obj
 0003:00015cb0       ??_C@_0EA@HHNC@activeProc?5?$CB?$DN?5sysOop?$CInilOopX?$CJ?5?$CG?$CG@ 004ebcb0     mmProcess.obj
 0003:00015cf0       ??_C@_0EM@NGGM@?$CBoopIsImm?$CIscheduler?$CJ?5?$CG?$CG?5objIsNew@ 004ebcf0     mmProcess.obj
 0003:00015d3c       ??_C@_0EE@BHFP@callbackSemaphoreX?5?$DM?$DN?50?5?$HM?$HM?5?$CBlist@ 004ebd3c     mmProcess.obj
 0003:00015d80       ??_C@_0P@ELCD@allHybridsOK?$CI?$CJ?$AA@ 004ebd80     mmProcess.obj
 0003:00015d90       ??_C@_0DJ@OHEI@?$CBoopIsImm?$CIsuspendedCtx?$CJ?5?$CG?$CG?5?$CBobjI@ 004ebd90     mmProcess.obj
 0003:00015dcc       ??_C@_0BI@DOHI@?$CBoopIsImm?$CIsuspendedCtx?$CJ?$AA@ 004ebdcc     mmProcess.obj
 0003:00015de4       ??_C@_0EP@GIAH@?$CBoopIsImm?$CIactiveProc?$CJ?5?$CG?$CG?5objIsNe@ 004ebde4     mmProcess.obj
 0003:00015e34       ??_C@_0EL@MGGA@couldBeNPC?$CIcurrentStack?9?$DOsp?$FL0?$FN?$CJ?5@ 004ebe34     mmProcess.obj
 0003:00015e80       ??_C@_0BN@HPHC@couldBeContext?$CIsuspendedCtx?$CJ?$AA@ 004ebe80     mmProcess.obj
 0003:00015ea0       ??_C@_0BI@PIAJ@preemptActiveProcessEnd?$AA@ 004ebea0     mmProcess.obj
 0003:00015eb8       ??_C@_0DL@IHGN@?$CBoopIsImm?$CI_firstLinkOop?$CJ?5?$CG?$CG?5?$CBobj@ 004ebeb8     mmProcess.obj
 0003:00015ef4       ??_C@_0EP@HGMA@?$CBoopIsImm?$CI_firstLinkOop?$CJ?5?$CG?$CG?5objI@ 004ebef4     mmProcess.obj
 0003:00015f44       ??_C@_0BJ@ONNG@?$CBoopIsImm?$CI_firstLinkOop?$CJ?$AA@ 004ebf44     mmProcess.obj
 0003:00015f60       ??_C@_0DN@HDFH@?$CBoopIsImm?$CI_secondLinkOop?$CJ?5?$CG?$CG?5?$CBob@ 004ebf60     mmProcess.obj
 0003:00015fa0       ??_C@_0BK@HBEO@?$CBoopIsImm?$CI_secondLinkOop?$CJ?$AA@ 004ebfa0     mmProcess.obj
 0003:00015fbc       ??_C@_0EH@LAEP@?$CBoopIsImm?$CIpList?$CJ?5?$CG?$CG?5objIsNewAsse@ 004ebfbc     mmProcess.obj
 0003:00016004       ??_C@_0DP@LJNA@?$CBoopIsImm?$CIpList?$CJ?5?$CG?$CG?5objIsNewAsse@ 004ec004     mmProcess.obj
 0003:00016044       ??_C@_0BI@KLNM@_firstLinkOop?5?$CB?$DN?5nilOop?$AA@ 004ec044     mmProcess.obj
 0003:0001605c       ??_C@_0BD@PKPD@probablyObj?$CIpList?$CJ?$AA@ 004ec05c     mmProcess.obj
 0003:00016070       ??_C@_0EH@IPDB@probablyObj?$CIpListArray?$CJ?5?$CG?$CG?5oopCl@ 004ec070     mmProcess.obj
 0003:000160b8       ??_C@_0ED@MGBH@?$CBoopIsImm?$CIhiPriorityProcess?$CJ?5?$CG?$CG?5@ 004ec0b8     mmProcess.obj
 0003:000160fc       ??_C@_0FH@IKMA@?$CBoopIsImm?$CIhiPriorityProcess?$CJ?5?$CG?$CG?5@ 004ec0fc     mmProcess.obj
 0003:00016154       ??_C@_0BN@PDPI@?$CBoopIsImm?$CIhiPriorityProcess?$CJ?$AA@ 004ec154     mmProcess.obj
 0003:00016174       ??_C@_0FB@NKCI@probablyObj?$CIsemaphoreOop?$CJ?5?$CG?$CG?5fas@ 004ec174     mmProcess.obj
 0003:000161c8       ??_C@_0CP@CEPJ@?$CBoopIsImm?$CIlinkOop?$CJ?5?$CG?$CG?5?$CBobjIsNewA@ 004ec1c8     mmProcess.obj
 0003:000161f8       ??_C@_0ED@GIAN@?$CBoopIsImm?$CIlinkOop?$CJ?5?$CG?$CG?5objIsNewAs@ 004ec1f8     mmProcess.obj
 0003:0001623c       ??_C@_0BD@GPGE@?$CBoopIsImm?$CIlinkOop?$CJ?$AA@ 004ec23c     mmProcess.obj
 0003:00016250       ??_C@_0HH@FBKJ@?$CBoopIsImm?$CI?$CI?$CK?$CI?$CI?$CIoop?5?$CK?$CJ?$CI?$CIlinkOop?$CJ?9@ 004ec250     mmProcess.obj
 0003:000162c8       ??_C@_0DH@KOHF@?$CBoopIsImm?$CI?$CI?$CK?$CI?$CI?$CIoop?5?$CK?$CJ?$CI?$CIlinkOop?$CJ?9@ 004ec2c8     mmProcess.obj
 0003:00016300       ??_C@_0HG@CADN@?$CBoopIsImm?$CIcurrentLinkOop?$CJ?5?$CG?$CG?5obj@ 004ec300     mmProcess.obj
 0003:00016378       ??_C@_0CE@MHCA@currentLinkOop?5?$CB?$DN?5nextLink?$CIlinkO@ 004ec378     mmProcess.obj
 0003:0001639c       ??_C@_0DN@DOLI@?$CBoopIsImm?$CIcurrentLinkOop?$CJ?5?$CG?$CG?5?$CBob@ 004ec39c     mmProcess.obj
 0003:000163dc       ??_C@_0BK@GHFL@?$CBoopIsImm?$CIcurrentLinkOop?$CJ?$AA@ 004ec3dc     mmProcess.obj
 0003:000163f8       ??_C@_0EL@HCPD@?$CBoopIsImm?$CIlistOop?$CJ?5?$CG?$CG?5objIsNewAs@ 004ec3f8     mmProcess.obj
 0003:00016444       ??_C@_0EL@GEOG@?$CBoopIsImm?$CIlistOop?$CJ?5?$CG?$CG?5objIsNewAs@ 004ec444     mmProcess.obj
 0003:00016490       ??_C@_0CP@CGGG@?$CBoopIsImm?$CIlistOop?$CJ?5?$CG?$CG?5?$CBobjIsNewA@ 004ec490     mmProcess.obj
 0003:000164c0       ??_C@_0ED@GGPF@?$CBoopIsImm?$CIlistOop?$CJ?5?$CG?$CG?5objIsNewAs@ 004ec4c0     mmProcess.obj
 0003:00016504       ??_C@_0BD@DIMC@?$CBoopIsImm?$CIlistOop?$CJ?$AA@ 004ec504     mmProcess.obj
 0003:00016518       ??_C@_0EM@EEHJ@?$CBoopIsImm?$CIactiveProc?$CJ?5?$CG?$CG?5objIsNe@ 004ec518     mmProcess.obj
 0003:00016564       ??_C@_0HL@FCBE@?$CBoopIsImm?$CI?$CI?$CK?$CI?$CI?$CIoop?5?$CK?$CJ?$CI?$CIsemaphore@ 004ec564     mmProcess.obj
 0003:000165e0       ??_C@_0JD@LCGG@?$CBoopIsImm?$CI?$CI?$CK?$CI?$CI?$CIoop?5?$CK?$CJ?$CI?$CIsemaphore@ 004ec5e0     mmProcess.obj
 0003:00016674       ??_C@_0DJ@LFGA@?$CBoopIsImm?$CI?$CI?$CK?$CI?$CI?$CIoop?5?$CK?$CJ?$CI?$CIsemaphore@ 004ec674     mmProcess.obj
 0003:000166b0       ??_C@_0CC@DFLI@lastLink?$CIsemaphore?$CJ?5?$CB?$DN?5activePro@ 004ec6b0     mmProcess.obj
 0003:000166d4       ??_C@_0DD@DAEL@?$CBoopIsImm?$CIsemaphore?$CJ?5?$CG?$CG?5?$CBobjIsNe@ 004ec6d4     mmProcess.obj
 0003:00016708       ??_C@_0EL@MIMJ@?$CBoopIsImm?$CIsemaphore?$CJ?5?$CG?$CG?5objIsNew@ 004ec708     mmProcess.obj
 0003:00016754       ??_C@_0BF@CPKI@?$CBoopIsImm?$CIsemaphore?$CJ?$AA@ 004ec754     mmProcess.obj
 0003:0001676c       ??_C@_0CC@OFM@?$CBobjOnList?$CIsemaphore?0?5activeProc@ 004ec76c     mmProcess.obj
 0003:00016790       ??_C@_0BH@NGMB@listIsEmpty?$CIsemaphore?$CJ?$AA@ 004ec790     mmProcess.obj
 0003:000167a8       ??_C@_0DB@OBIK@fastIsKindOf?$CIsemaphore?0?5sysOop?$CIs@ 004ec7a8     mmProcess.obj
 0003:000167dc       ??_C@_0BP@CPLJ@?$CBobjOnList?$CIsemaphore?0?5process?$CJ?$AA@ 004ec7dc     mmProcess.obj
 0003:000167fc       ??_C@_0EC@NOFO@?$CBoopIsImm?$CIprocess?$CJ?5?$CG?$CG?5objIsNewAs@ 004ec7fc     mmProcess.obj
 0003:00016840       ??_C@_0II@HOFC@?$CBoopIsImm?$CI?$CI?$CK?$CI?$CI?$CIoop?5?$CK?$CJ?$CI?$CIpList?$CJ?9?$DOp@ 004ec840     mmProcess.obj
 0003:000168c8       ??_C@_0BL@FMML@lastLink?$CIpList?$CJ?5?$CB?$DN?5process?$AA@ 004ec8c8     mmProcess.obj
 0003:000168e4       ??_C@_0EA@MMLC@?$CBoopIsImm?$CIpList?$CJ?5?$CG?$CG?5objIsNewAsse@ 004ec8e4     mmProcess.obj
 0003:00016924       ??_C@_0CF@IPFL@nextLink?$CIprocess?$CJ?5?$DN?$DN?5sysOop?$CInilO@ 004ec924     mmProcess.obj
 0003:0001694c       ??_C@_0BM@BIPB@?$CBprocessIsRunnable?$CIprocess?$CJ?$AA@ 004ec94c     mmProcess.obj
 0003:00016968       ??_C@_0CI@DDB@excessSignals?$CIsemaphore?$CJ?5?$DN?$DN?5zero@ 004ec968     mmProcess.obj
 0003:00016990       ??_C@_0EL@KPMK@probablyObj?$CIsemaphore?$CJ?5?$CG?$CG?5fastIs@ 004ec990     mmProcess.obj
 0003:000169dc       ??_C@_0BM@IFFI@?$CBobjOnList?$CImyList?0?5process?$CJ?$AA@ 004ec9dc     mmProcess.obj
 0003:000169f8       ??_C@_0BL@NAEO@objOnList?$CImyList?0?5process?$CJ?$AA@ 004ec9f8     mmProcess.obj
 0003:00016a14       ??_C@_0BL@ENOH@processIsRunnable?$CIprocess?$CJ?$AA@ 004eca14     mmProcess.obj
 0003:00016a30       ??_C@_0EJ@KNDN@?$CBoopIsImm?$CIactiveProc?$CJ?5?$CG?$CG?5objIsNe@ 004eca30     mmProcess.obj
 0003:00016a7c       ??_C@_0HF@FED@?$CBoopIsImm?$CI?$CI?$CK?$CI?$CI?$CIoop?5?$CK?$CJ?$CI?$CImyList?$CJ?9?$DO@ 004eca7c     mmProcess.obj
 0003:00016af4       ??_C@_0IK@MHEB@?$CBoopIsImm?$CI?$CI?$CK?$CI?$CI?$CIoop?5?$CK?$CJ?$CI?$CImyList?$CJ?9?$DO@ 004ecaf4     mmProcess.obj
 0003:00016b80       ??_C@_0DG@BFCC@?$CBoopIsImm?$CI?$CI?$CK?$CI?$CI?$CIoop?5?$CK?$CJ?$CI?$CImyList?$CJ?9?$DO@ 004ecb80     mmProcess.obj
 0003:00016bb8       ??_C@_0BM@FLCD@lastLink?$CImyList?$CJ?5?$CB?$DN?5process?$AA@ 004ecbb8     mmProcess.obj
 0003:00016bd4       ??_C@_0CN@EBEL@?$CBoopIsImm?$CImyList?$CJ?5?$CG?$CG?5?$CBobjIsNewAs@ 004ecbd4     mmProcess.obj
 0003:00016c04       ??_C@_0EC@NEMC@?$CBoopIsImm?$CImyList?$CJ?5?$CG?$CG?5objIsNewAss@ 004ecc04     mmProcess.obj
 0003:00016c48       ??_C@_0BC@HMNI@?$CBoopIsImm?$CImyList?$CJ?$AA@ 004ecc48     mmProcess.obj
 0003:00016c5c       ??_C@_0DH@CHIC@sysOop?$CInilOopX?$CJ?5?$DN?$DN?5objDataField?$CI@ 004ecc5c     mmProcess.obj
 0003:00016c94       ??_C@_0BA@CPKB@numListsOn?5?$DN?$DN?50?$AA@ 004ecc94     mmProcess.obj
 0003:00016ca4       ??_C@_0BA@IFDG@numListsOn?5?$DN?$DN?51?$AA@ 004ecca4     mmProcess.obj
 0003:00016cb4       ??_C@_0CM@POGB@oopClass?$CIpListArray?$CJ?5?$DN?$DN?5sysOop?$CIa@ 004eccb4     mmProcess.obj
 0003:00016ce0       ??_C@_0BK@IJHD@objOnList?$CIpList?0?5process?$CJ?$AA@ 004ecce0     mmProcess.obj
 0003:00016cfc       ??_C@_0BP@KBEF@pList?5?$DN?$DN?5processList?$CIpriority?$CJ?$AA@ 004eccfc     mmProcess.obj
 0003:00016d1c       ??_C@_0BF@FFBH@probablyObj?$CIprocess?$CJ?$AA@ 004ecd1c     mmProcess.obj
 0003:00016d34       ??_C@_0EF@DPOF@?$CBoopIsImm?$CIsysOopRegistry?$FL24?$FN?$CJ?5?$CG?$CG@ 004ecd34     mmPermSpace.obj
 0003:00016d7c       ??_C@_0BO@HMAH@?$CBoopIsImm?$CIsysOopRegistry?$FL24?$FN?$CJ?$AA@ 004ecd7c     mmPermSpace.obj
 0003:00016d9c       ??_C@_0CL@GAMF@?$CBoopIsImm?$CIotEnt?$CJ?5?$CG?$CG?5?$CBobjIsNewAss@ 004ecd9c     mmPermSpace.obj
 0003:00016dc8       ??_C@_0CE@CLMP@?$CBoopIsImm?$CIotEnt?$CJ?5?$CG?$CG?5objIsOld?$CIotE@ 004ecdc8     mmPermSpace.obj
 0003:00016dec       ??_C@_0CA@BGBG@?4?4?2?4?4?2?4?4?2src?2mman?2mmPermSpace?4c?$AA@ 004ecdec     mmPermSpace.obj
 0003:00016e0c       ??_C@_0BM@NIAF@objBodyPtr?$CIooop?0?5oop?$CJ?5?$DN?$DN?5dp?$AA@ 004ece0c     mmPermSpace.obj
 0003:00016e28       ??_C@_0BC@LNDK@objIsPerm?$CIobjOop?$CJ?$AA@ 004ece28     mmPermSpace.obj
 0003:00016e3c       ??_C@_0DH@LAJN@?$CBobjDataInNewSpace?$CIooop?$CJ?5?$CG?$CG?5?$CBobj@ 004ece3c     mmPermSpace.obj
 0003:00016e74       ??_C@_0CB@JGNE@objBodyPtr?$CIooop?0?5oop?$CJ?5?$DN?$DN?5dataPtr@ 004ece74     mmPermSpace.obj
 0003:00016e98       ??_C@_0FE@PPEN@oopIsInt?$CIobjDataPtr?$CIooop?0context@ 004ece98     mmPermSpace.obj
 0003:00016eec       ??_C@_0BA@OIGP@?$CBdummyObj?$CIooop?$CJ?$AA@ 004eceec     mmPermSpace.obj
 0003:00016efc       ??_C@_0BH@HHHM@objReallyInOldRt?$CIooop?$CJ?$AA@ 004ecefc     mmPermSpace.obj
 0003:00016f14       ??_C@_0BH@EFLK@objDataSize?$CIooop?$CJ?5?$CB?$DN?50?$AA@ 004ecf14     mmPermSpace.obj
 0003:00016f2c       ??_C@_0BG@MONA@addressInPermOt?$CIooop?$CJ?$AA@ 004ecf2c     mmPermSpace.obj
 0003:00016f44       ??_C@_0EB@EJDL@slotsInPermData?5?$DN?$DN?5permSpace?4fir@ 004ecf44     mmPermSpace.obj
 0003:00016f88       ??_C@_0BF@EPFF@permSpaceObjOk?$CIooop?$CJ?$AA@ 004ecf88     mmPermSpace.obj
 0003:00016fa0       ??_C@_0GL@MKHK@objDataInLargeSpace?$CIooop?$CJ?5?$HM?$HM?5obj@ 004ecfa0     mmPermSpace.obj
 0003:0001700c       ??_C@_0DF@PHHH@permSpace?4firstFreeOtEntry?5?$DM?$DN?5pe@ 004ed00c     mmPermSpace.obj
 0003:00017044       ??_C@_0EC@LINF@permSpace?4firstFreeSlot?5?$DM?$DN?5asOop@ 004ed044     mmPermSpace.obj
 0003:00017088       ??_C@_0CP@JMDL@permSpace?4firstSlot?5?$DM?$DN?5permSpace@ 004ed088     mmPermSpace.obj
 0003:000170b8       ??_C@_0DF@LIIC@isKindOf?$CIlowSpaceSemaphore?0?5sysO@ 004ed0b8     mmResources.obj
 0003:000170f0       ??_C@_0CA@NNCO@?4?4?2?4?4?2?4?4?2src?2mman?2mmResources?4c?$AA@ 004ed0f0     mmResources.obj
 0003:00017110       ??_C@_0ED@JNHA@?$CBoopIsImm?$CIfixedSpaceSizeOop?$CJ?5?$CG?$CG?5@ 004ed110     mmResources.obj
 0003:00017154       ??_C@_0BN@CDII@?$CBoopIsImm?$CIfixedSpaceSizeOop?$CJ?$AA@ 004ed154     mmResources.obj
 0003:00017174       ??_C@_0FC@MGEM@?$CBoopIsImm?$CIsizeArray?$CJ?5?$CG?$CG?5objIsNew@ 004ed174     mmResources.obj
 0003:000171c8       ??_C@_0DP@EDCL@?$CBoopIsImm?$CIheadroomSizeOop?$CJ?5?$CG?$CG?5?$CBo@ 004ed1c8     mmResources.obj
 0003:00017208       ??_C@_0BL@HNLL@?$CBoopIsImm?$CIheadroomSizeOop?$CJ?$AA@ 004ed208     mmResources.obj
 0003:00017224       ??_C@_0FA@BCDB@?$CBoopIsImm?$CIsizeArray?$CJ?5?$CG?$CG?5objIsNew@ 004ed224     mmResources.obj
 0003:00017274       ??_C@_0EF@GCNM@?$CBoopIsImm?$CInMethodZoneSizeOop?$CJ?5?$CG?$CG@ 004ed274     mmResources.obj
 0003:000172bc       ??_C@_0BO@PCLF@?$CBoopIsImm?$CInMethodZoneSizeOop?$CJ?$AA@ 004ed2bc     mmResources.obj
 0003:000172dc       ??_C@_0FD@MEFA@?$CBoopIsImm?$CIsizeArray?$CJ?5?$CG?$CG?5objIsNew@ 004ed2dc     mmResources.obj
 0003:00017330       ??_C@_0ED@OKIA@?$CBoopIsImm?$CIstackSpaceSizeOop?$CJ?5?$CG?$CG?5@ 004ed330     mmResources.obj
 0003:00017374       ??_C@_0BN@CGFL@?$CBoopIsImm?$CIstackSpaceSizeOop?$CJ?$AA@ 004ed374     mmResources.obj
 0003:00017394       ??_C@_0FC@MDJP@?$CBoopIsImm?$CIsizeArray?$CJ?5?$CG?$CG?5objIsNew@ 004ed394     mmResources.obj
 0003:000173e8       ??_C@_0ED@IHJC@?$CBoopIsImm?$CIlargeSpaceSizeOop?$CJ?5?$CG?$CG?5@ 004ed3e8     mmResources.obj
 0003:0001742c       ??_C@_0BN@GOEO@?$CBoopIsImm?$CIlargeSpaceSizeOop?$CJ?$AA@ 004ed42c     mmResources.obj
 0003:0001744c       ??_C@_0FC@ILIK@?$CBoopIsImm?$CIsizeArray?$CJ?5?$CG?$CG?5objIsNew@ 004ed44c     mmResources.obj
 0003:000174a0       ??_C@_0EJ@CGJC@?$CBoopIsImm?$CIsurvivorSpaceSizeOop?$CJ?5@ 004ed4a0     mmResources.obj
 0003:000174ec       ??_C@_0CA@PFKD@?$CBoopIsImm?$CIsurvivorSpaceSizeOop?$CJ?$AA@ 004ed4ec     mmResources.obj
 0003:0001750c       ??_C@_0FF@FICG@?$CBoopIsImm?$CIsizeArray?$CJ?5?$CG?$CG?5objIsNew@ 004ed50c     mmResources.obj
 0003:00017564       ??_C@_0DH@PENH@?$CBoopIsImm?$CIedenSizeOop?$CJ?5?$CG?$CG?5?$CBobjIs@ 004ed564     mmResources.obj
 0003:0001759c       ??_C@_0BH@NNCP@?$CBoopIsImm?$CIedenSizeOop?$CJ?$AA@ 004ed59c     mmResources.obj
 0003:000175b4       ??_C@_0DD@MJJB@?$CBoopIsImm?$CIsizeArray?$CJ?5?$CG?$CG?5?$CBobjIsNe@ 004ed5b4     mmResources.obj
 0003:000175e8       ??_C@_0EM@ELDJ@?$CBoopIsImm?$CIsizeArray?$CJ?5?$CG?$CG?5objIsNew@ 004ed5e8     mmResources.obj
 0003:00017634       ??_C@_0BF@FBIB@?$CBoopIsImm?$CIsizeArray?$CJ?$AA@ 004ed634     mmResources.obj
 0003:0001764c       ??_C@_0EH@PAIJ@?$CIfixedSpaceSizeOop?$CJ?5?$DN?$DN?5nonOop?5?$HM?$HM@ 004ed64c     mmResources.obj
 0003:00017694       ??_C@_0ED@NBAB@?$CIheadroomSizeOop?$CJ?5?$DN?$DN?5nonOop?5?$HM?$HM?5o@ 004ed694     mmResources.obj
 0003:000176d8       ??_C@_0EJ@CPEP@?$CInMethodZoneSizeOop?$CJ?5?$DN?$DN?5nonOop?5?$HM@ 004ed6d8     mmResources.obj
 0003:00017724       ??_C@_0EH@NJMJ@?$CIstackSpaceSizeOop?$CJ?5?$DN?$DN?5nonOop?5?$HM?$HM@ 004ed724     mmResources.obj
 0003:0001776c       ??_C@_0EH@GABM@?$CIlargeSpaceSizeOop?$CJ?5?$DN?$DN?5nonOop?5?$HM?$HM@ 004ed76c     mmResources.obj
 0003:000177b4       ??_C@_0EN@CPHL@?$CIsurvivorSpaceSizeOop?$CJ?5?$DN?$DN?5nonOop@ 004ed7b4     mmResources.obj
 0003:00017804       ??_C@_0DL@LDKM@?$CIedenSizeOop?$CJ?5?$DN?$DN?5nonOop?5?$HM?$HM?5objDa@ 004ed804     mmResources.obj
 0003:00017840       ??_C@_0BF@MJNF@?$CBobjReallyInRt?$CIooop?$CJ?$AA@ 004ed840     mmRt.obj
 0003:00017858       ??_C@_0BJ@NCKA@?4?4?2?4?4?2?4?4?2src?2mman?2mmRt?4c?$AA@ 004ed858     mmRt.obj
 0003:00017874       ??_C@_0BE@MGHJ@?$CBrt?4firstStrongSlot?$AA@ 004ed874     mmRt.obj
 0003:00017888       ??_C@_0BD@MBL@?$CBobjHasPtrs?$CIrtOop?$CJ?$AA@ 004ed888     mmRt.obj
 0003:0001789c       ??_C@_0O@JBDJ@objInRt?$CI?$CKptr?$CJ?$AA@ 004ed89c     mmRt.obj
 0003:000178ac       ??_C@_0CH@KIJI@?$CBoopIsImm?$CIrtOop?$CJ?5?$CG?$CG?5?$CBobjHasPtrs?$CI@ 004ed8ac     mmRt.obj
 0003:000178d4       ??_C@_0DM@JJN@oldSpaceObjOk?$CI?$CKcurrentEntry?0?5ifM@ 004ed8d4     mmRt.obj
 0003:00017910       ??_C@_0BM@NJGL@?$CBobjIsMarked?$CI?$CKcurrentEntry?$CJ?$AA@ 004ed910     mmRt.obj
 0003:0001792c       ??_C@_0BO@HNPF@permSpaceObjOk?$CI?$CKcurrentEntry?$CJ?$AA@ 004ed92c     mmRt.obj
 0003:0001794c       ??_C@_0BH@MHI@objInRt?$CI?$CKcurrentEntry?$CJ?$AA@ 004ed94c     mmRt.obj
 0003:00017964       ??_C@_0EE@LFCN@rt?4firstSlot?5?$DM?$DN?5rt?4firstFreeSlot@ 004ed964     mmRt.obj
 0003:000179a8       ??_C@_0FP@GJDN@rt?4firstSlot?5?$DN?$DN?5objDataPtr?$CIrtOop@ 004ed9a8     mmRt.obj
 0003:00017a08       ??_C@_0DG@HELO@objDataInOldSpace?$CIrtOop?$CJ?5?$HM?$HM?5objD@ 004eda08     mmRt.obj
 0003:00017a40       ??_C@_0M@KNLC@foundNewRef?$AA@ 004eda40     mmRt.obj
 0003:00017a4c       ??_C@_0BF@BCGI@objIsAlive?$CIreferent?$CJ?$AA@ 004eda4c     mmRt.obj
 0003:00017a64       ??_C@_0CM@POHE@?$CB?$CIobjMiscFlagWord?$CIreferent?$CJ?5?$CG?5re@ 004eda64     mmRt.obj
 0003:00017a90       ??_C@_0BK@OKHP@?$CBobjIsForwarded?$CIreferent?$CJ?$AA@ 004eda90     mmRt.obj
 0003:00017aac       ??_C@_0HE@POLO@objIsForwarded?$CIreferent?$CJ?5?$HM?$HM?5newO@ 004edaac     mmRt.obj
 0003:00017b20       ??_C@_0BF@LDGD@couldBeObj?$CIreferent?$CJ?$AA@ 004edb20     mmRt.obj
 0003:00017b38       ??_C@_0EH@EIBI@objHasPtrs?$CIobj?$CJ?5?$HM?$HM?5?$CBoopIsImm?$CIobj@ 004edb38     mmRt.obj
 0003:00017b80       ??_C@_0BA@GFGF@objIsAlive?$CIobj?$CJ?$AA@ 004edb80     mmRt.obj
 0003:00017b90       ??_C@_0CA@EJMB@objIsPerm?$CIobj?$CJ?5?$HM?$HM?5objIsOld?$CIobj?$CJ?$AA@ 004edb90     mmRt.obj
 0003:00017bb0       ??_C@_0CA@IEOH@couldBeObj?$CIobj?$CJ?5?$CG?$CG?5objInRt?$CIobj?$CJ?$AA@ 004edbb0     mmRt.obj
 0003:00017bd0       ??_C@_0DA@IGLG@objInPastSpace?$CIreferent?$CJ?5?$HM?$HM?5objI@ 004edbd0     mmRt.obj
 0003:00017c00       ??_C@_0BL@PCNG@objInFutureSpace?$CIreferent?$CJ?$AA@ 004edc00     mmRt.obj
 0003:00017c1c       ??_C@_0EL@DKM@stopPtr?5?$DO?5dataPtr?5?$HM?$HM?5?$CI?$CBoopIsImm?$CI@ 004edc1c     mmRt.obj
 0003:00017c68       ??_C@_0EB@NMBM@currentEntry?5?$DO?$DN?5rt?4firstStrongSl@ 004edc68     mmRt.obj
 0003:00017cac       ??_C@_0CD@KEKB@currentEntry?5?$DO?$DN?5rt?4firstStrongSl@ 004edcac     mmRt.obj
 0003:00017cd0       ??_C@_0CC@KHGH@currentEntry?5?$DM?5rt?4firstStrongSlo@ 004edcd0     mmRt.obj
 0003:00017cf4       ??_C@_0BD@BLGI@scavengeInProgress?$AA@ 004edcf4     mmScavenge.obj
 0003:00017d08       ??_C@_0HE@KCGH@rtLooksOk?$CIscavengePurpose?5?$DN?$DN?5spe@ 004edd08     mmScavenge.obj
 0003:00017d7c       ??_C@_0HC@OOBD@rtLooksOk?$CIscavengePurpose?5?$DN?$DN?5spe@ 004edd7c     mmScavenge.obj
 0003:00017df0       ??_C@_0CF@LFI@rtFirstUnscavengedX?5?$DN?$DN?5slotsUsed@ 004eddf0     mmScavenge.obj
 0003:00017e18       ??_C@_0DE@FAJN@fsFirstUnscavengedSlot?5?$DN?$DN?5future@ 004ede18     mmScavenge.obj
 0003:00017e4c       ??_C@_0HI@BLCL@rtLooksOk?$CIscavengePurpose?5?$DN?$DN?5spe@ 004ede4c     mmScavenge.obj
 0003:00017ec4       ??_C@_0BD@FJPG@?$CBoldSpaceTooFull?$CI?$CJ?$AA@ 004edec4     mmScavenge.obj
 0003:00017ed8       ??_C@_0CP@PGNH@rtLooksOk?$CIrtLooksOkPreScavenge?0?5@ 004eded8     mmScavenge.obj
 0003:00017f08       ??_C@_0O@LEPD@stackObjsOK?$CI?$CJ?$AA@ 004edf08     mmScavenge.obj
 0003:00017f18       ??_C@_0BP@JAGC@?4?4?2?4?4?2?4?4?2src?2mman?2mmScavenge?4c?$AA@ 004edf18     mmScavenge.obj
 0003:00017f38       ??_C@_0CJ@HDKE@finalQueueOop?5?$DN?$DN?5?$CK?$CIrt?4firstFreeS@ 004edf38     mmScavenge.obj
 0003:00017f64       ??_C@_0BE@NNHD@checkWeakObjsInRt?$CI?$CJ?$AA@ 004edf64     mmScavenge.obj
 0003:00017f78       ??_C@_0EN@GGNA@rt?4firstSlot?5?$DM?$DN?5rt?4firstStrongSl@ 004edf78     mmScavenge.obj
 0003:00017fc8       ??_C@_0GF@FNEJ@objIsPerm?$CIrtEntry?$CJ?5?$DP?5permSpaceOb@ 004edfc8     mmScavenge.obj
 0003:00018030       ??_C@_0BB@LEGN@objInRt?$CIrtEntry?$CJ?$AA@ 004ee030     mmScavenge.obj
 0003:00018044       ??_C@_0CI@HBAM@objIsOld?$CIrtEntry?$CJ?5?$HM?$HM?5objIsPerm?$CIr@ 004ee044     mmScavenge.obj
 0003:0001806c       ??_C@_0BP@BOAG@rt?4firstSlot?5?$DM?$DN?5currentRtEntry?$AA@ 004ee06c     mmScavenge.obj
 0003:0001808c       ??_C@_0DK@EJMN@rtOk?$CIrtEntriesMayOrMayNotBeMarke@ 004ee08c     mmScavenge.obj
 0003:000180c8       ??_C@_0DB@IAKF@?$CBobjInFutureSpace?$CIobjDataField?$CIr@ 004ee0c8     mmScavenge.obj
 0003:000180fc       ??_C@_0EL@FAOB@objIsEphemeron?$CIrtEntry?$CJ?5?$CG?$CG?5?$CIobjI@ 004ee0fc     mmScavenge.obj
 0003:00018148       ??_C@_0DB@KOEN@currentRtEntry?5?$DN?$DN?5rt?4firstSlot?5?$CL@ 004ee148     mmScavenge.obj
 0003:0001817c       ??_C@_0BM@IIPE@non?9zero?5ref?5count?5expected?$AA@ 004ee17c     mmScavenge.obj
 0003:00018198       ??_C@_0BH@JCPG@couldBeDataPtr?$CIrefPtr?$CJ?$AA@ 004ee198     mmScavenge.obj
 0003:000181b0       ??_C@_0BE@JDMC@couldBeObj?$CIrtEntry?$CJ?$AA@ 004ee1b0     mmScavenge.obj
 0003:000181c4       ??_C@_0BF@LLKB@objInRt?$CI?$CKrtEntryPtr?$CJ?$AA@ 004ee1c4     mmScavenge.obj
 0003:000181dc       ??_C@_0DA@IHPI@objIsOld?$CI?$CKrtEntryPtr?$CJ?5?$HM?$HM?5objIsPe@ 004ee1dc     mmScavenge.obj
 0003:0001820c       ??_C@_0BO@DLNF@objDataInNewSpace?$CIcurrentOop?$CJ?$AA@ 004ee20c     mmScavenge.obj
 0003:0001822c       ??_C@_0BF@NLJK@lastOop?5?$DN?5currentOop?$AA@ 004ee22c     mmScavenge.obj
 0003:00018244       ??_C@_0CI@LEIL@forwardedObjOnEphemeronList?$CIcurr@ 004ee244     mmScavenge.obj
 0003:0001826c       ??_C@_0DE@DOBI@?$CBobjInFutureSpace?$CIobjDataField?$CIc@ 004ee26c     mmScavenge.obj
 0003:000182a0       ??_C@_0FE@FADI@objIsEphemeron?$CIcurrentOop?$CJ?5?$CG?$CG?5?$CIo@ 004ee2a0     mmScavenge.obj
 0003:000182f4       ??_C@_0DC@EBKO@?$CBtagBits?$CIclassOop?$CJ?5?$CG?$CG?5couldBeInN@ 004ee2f4     mmScavenge.obj
 0003:00018328       ??_C@_0FN@PAH@objDataInTaggedSpace?$CIcurrentOop?$CJ@ 004ee328     mmScavenge.obj
 0003:00018388       ??_C@_0CO@LOBF@futureSpace?4firstSlot?5?$DM?$DN?5asOopPt@ 004ee388     mmScavenge.obj
 0003:000183b8       ??_C@_0CB@CGIB@listEntry?5?$DN?$DN?5tailOfEphemeronList@ 004ee3b8     mmScavenge.obj
 0003:000183dc       ??_C@_0CB@DHON@listEntry?5?$DN?$DN?5headOfEphemeronList@ 004ee3dc     mmScavenge.obj
 0003:00018400       ??_C@_0FK@NNAF@objIsEphemeron?$CInewEphemeron?$CJ?5?$CG?$CG?5@ 004ee400     mmScavenge.obj
 0003:0001845c       ??_C@_0EE@HPCP@objIsEphemeron?$CInewEphemeron?$CJ?5?$HM?$HM?5@ 004ee45c     mmScavenge.obj
 0003:000184a0       ??_C@_0BP@EMFA@objInFutureSpace?$CInewEphemeron?$CJ?$AA@ 004ee4a0     mmScavenge.obj
 0003:000184c0       ??_C@_0BM@BJAI@headOnTailOfEphemeronList?$CI?$CJ?$AA@ 004ee4c0     mmScavenge.obj
 0003:000184dc       ??_C@_0BK@IGIM@objIsForwarded?$CIlistEntry?$CJ?$AA@ 004ee4dc     mmScavenge.obj
 0003:000184f8       ??_C@_0BJ@HNPL@objInNewSpace?$CIlistEntry?$CJ?$AA@ 004ee4f8     mmScavenge.obj
 0003:00018514       ??_C@_0BE@COIJ@ephemeronListIsOk?$CI?$CJ?$AA@ 004ee514     mmScavenge.obj
 0003:00018528       ??_C@_0BD@JKDA@objIsWeak?$CIrtEntry?$CJ?$AA@ 004ee528     mmScavenge.obj
 0003:0001853c       ??_C@_0DC@OGGN@lastScannedOnEphemeronList?5?$DN?$DN?5ta@ 004ee53c     mmScavenge.obj
 0003:00018570       ??_C@_0DA@NNFI@objDataField?$CIanEphemeron?0?5oop?0?50@ 004ee570     mmScavenge.obj
 0003:000185a0       ??_C@_0FH@LBHC@objIsEphemeron?$CIanEphemeron?$CJ?5?$CG?$CG?5?$CI@ 004ee5a0     mmScavenge.obj
 0003:000185f8       ??_C@_0CE@JLOL@?$CBobjReallyInFinalQueue?$CIanEphemer@ 004ee5f8     mmScavenge.obj
 0003:0001861c       ??_C@_0CC@EIFK@?$CBobjReallyInFinalQueue?$CIlistEntry@ 004ee61c     mmScavenge.obj
 0003:00018640       ??_C@_0BM@OFE@objIsEphemeron?$CIanEphemeron?$CJ?$AA@ 004ee640     mmScavenge.obj
 0003:0001865c       ??_C@_0BK@GPPM@objIsEphemeron?$CIlistEntry?$CJ?$AA@ 004ee65c     mmScavenge.obj
 0003:00018678       ??_C@_0BO@EKKH@objInFutureSpace?$CIanEphemeron?$CJ?$AA@ 004ee678     mmScavenge.obj
 0003:00018698       ??_C@_0CA@KPH@objInRt?$CIsysOop?$CIfinalQueueOopX?$CJ?$CJ?$AA@ 004ee698     mmScavenge.obj
 0003:000186b8       ??_C@_0CK@HNAD@?$CBoopIsImm?$CIkeyField?$CJ?5?$CG?$CG?5objIsNew?$CI@ 004ee6b8     mmScavenge.obj
 0003:000186e4       ??_C@_0BI@FCLC@objIsGCSpecial?$CIrtEntry?$CJ?$AA@ 004ee6e4     mmScavenge.obj
 0003:000186fc       ??_C@_0DB@ICPO@currentEntryX?5?$DN?$DN?5rt?4firstFreeSlo@ 004ee6fc     mmScavenge.obj
 0003:00018730       ??_C@_0CM@NBIG@objDataField?$CIrtEntry?0?5oop?0?50?$CJ?5?$DN?$DN@ 004ee730     mmScavenge.obj
 0003:0001875c       ??_C@_0BI@NPOK@objIsEphemeron?$CIrtEntry?$CJ?$AA@ 004ee75c     mmScavenge.obj
 0003:00018774       ??_C@_0DD@HCCF@rt?4firstSlot?5?$CL?5currentEntryX?5?$DO?$DN?5@ 004ee774     mmScavenge.obj
 0003:000187a8       ??_C@_0CN@KLJD@?$CBnoWeakPtrs?5?$HM?$HM?5headOfEphemeronLi@ 004ee7a8     mmScavenge.obj
 0003:000187d8       ??_C@_0CB@DPBE@triggeredCount?5?$DM?$DN?5ephemeronCount@ 004ee7d8     mmScavenge.obj
 0003:000187fc       ??_C@_0EI@GNMN@?$CBephemeronIsActivated?$CIobj?0?5keyFi@ 004ee7fc     mmScavenge.obj
 0003:00018844       ??_C@_0CI@KOFP@objDataField?$CIobj?0?5oop?0?50?$CJ?5?$DN?$DN?5?$CIke@ 004ee844     mmScavenge.obj
 0003:0001886c       ??_C@_0DP@JDF@objIsEphemeron?$CIobj?$CJ?5?$CG?$CG?5?$CIobjInFut@ 004ee86c     mmScavenge.obj
 0003:000188ac       ??_C@_0BE@OOFI@objIsEphemeron?$CIobj?$CJ?$AA@ 004ee8ac     mmScavenge.obj
 0003:000188c0       ??_C@_0BB@JGDG@objOk?$CIephemeron?$CJ?$AA@ 004ee8c0     mmScavenge.obj
 0003:000188d4       ??_C@_0BK@FAML@objIsGCSpecial?$CIephemeron?$CJ?$AA@ 004ee8d4     mmScavenge.obj
 0003:000188f0       ??_C@_0CD@FMKE@?$CL?$CLtriggeredCount?5?$DM?$DN?5ephemeronCou@ 004ee8f0     mmScavenge.obj
 0003:00018914       ??_C@_0CO@OCKK@objDataField?$CIephemeron?0?5oop?0?50?$CJ?5@ 004ee914     mmScavenge.obj
 0003:00018944       ??_C@_0FB@JOAH@objIsEphemeron?$CIephemeron?$CJ?5?$CG?$CG?5?$CIob@ 004ee944     mmScavenge.obj
 0003:00018998       ??_C@_0EH@NHEB@objIsNew?$CIkeyField?$CJ?5?$DP?5newSpaceObj@ 004ee998     mmScavenge.obj
 0003:000189e0       ??_C@_0EL@NFMD@?$CBoopIsImm?$CIkeyField?$CJ?5?$CG?$CG?5?$CIobjInFut@ 004ee9e0     mmScavenge.obj
 0003:00018a2c       ??_C@_0BK@DBEF@objIsEphemeron?$CIephemeron?$CJ?$AA@ 004eea2c     mmScavenge.obj
 0003:00018a48       ??_C@_0CB@PDBO@newSpaceObjOkScavenge?$CIephemeron?$CJ@ 004eea48     mmScavenge.obj
 0003:00018a6c       ??_C@_0DF@FHHG@headOfEphemeronList?5?$DN?$DN?5nonOop?5?$CG?$CG@ 004eea6c     mmScavenge.obj
 0003:00018aa4       ??_C@_0DB@JDGG@objInFutureSpace?$CIreferent?$CJ?5?$HM?$HM?5ob@ 004eeaa4     mmScavenge.obj
 0003:00018ad8       ??_C@_0HC@FJBG@?$CBobjIsForwarded?$CIreferent?$CJ?5?$HM?$HM?5obj@ 004eead8     mmScavenge.obj
 0003:00018b4c       ??_C@_0BF@NIN@couldBeObj?$CIreferrer?$CJ?$AA@ 004eeb4c     mmScavenge.obj
 0003:00018b64       ??_C@_0DN@JDKL@objInFutureSpace?$CI?$CKcurrentRefPtr?$CJ@ 004eeb64     mmScavenge.obj
 0003:00018ba4       ??_C@_0EB@FEEP@couldBeDataPtr?$CIcurrentRefPtr?$CJ?5?$HM?$HM@ 004eeba4     mmScavenge.obj
 0003:00018be8       ??_C@_0DN@GOGL@objIsForwarded?$CIoldOop?$CJ?5?$CG?$CG?5objFor@ 004eebe8     mmScavenge.obj
 0003:00018c28       ??_C@_0BC@CIFK@objDataOk?$CInewOop?$CJ?$AA@ 004eec28     mmScavenge.obj
 0003:00018c3c       ??_C@_0BD@EKHG@couldBeObj?$CInewOop?$CJ?$AA@ 004eec3c     mmScavenge.obj
 0003:00018c50       ??_C@_0CN@MF@objInFutureSpace?$CInewOop?$CJ?5?$HM?$HM?5objI@ 004eec50     mmScavenge.obj
 0003:00018c80       ??_C@_0BC@NMFE@objDataOk?$CIoldOop?$CJ?$AA@ 004eec80     mmScavenge.obj
 0003:00018c94       ??_C@_0BI@CLEC@?$CBobjIsForwarded?$CIoldOop?$CJ?$AA@ 004eec94     mmScavenge.obj
 0003:00018cac       ??_C@_0CM@LCNH@objInPastSpace?$CIoldOop?$CJ?5?$HM?$HM?5objInE@ 004eecac     mmScavenge.obj
 0003:00018cd8       ??_C@_0BD@LOHI@couldBeObj?$CIoldOop?$CJ?$AA@ 004eecd8     mmScavenge.obj
 0003:00018cec       ??_C@_0ED@CDOM@?$CIheadOfEphemeronList?5?$DN?$DN?5nonOop?$CJ?5@ 004eecec     mmScavenge.obj
 0003:00018d30       ??_C@_0DA@DCEM@?$CBobjInFutureSpace?$CIobjDataField?$CIo@ 004eed30     mmScavenge.obj
 0003:00018d60       ??_C@_0DA@CBMJ@?$CBobjInFutureSpace?$CIobjDataField?$CIn@ 004eed60     mmScavenge.obj
 0003:00018d90       ??_C@_0EI@EOPC@objIsEphemeron?$CInewOop?$CJ?5?$CG?$CG?5?$CIobjIn@ 004eed90     mmScavenge.obj
 0003:00018dd8       ??_C@_0FH@GFDE@ephemeronMightBeActivatedNoAsser@ 004eedd8     mmScavenge.obj
 0003:00018e30       ??_C@_0CI@OHMO@couldBeDataPtr?$CIobjDataPtr?$CIoldOop@ 004eee30     mmScavenge.obj
 0003:00018e58       ??_C@_0EA@EEFC@?$CBobjInRt?$CIoldOop?$CJ?5?$CG?$CG?5?$CBobjInOldRt?$CI@ 004eee58     mmScavenge.obj
 0003:00018e98       ??_C@_0BB@NEIJ@?$CBtagBits?$CIoldOop?$CJ?$AA@ 004eee98     mmScavenge.obj
 0003:00018eac       ??_C@_0BF@LHKC@?$CBobjIsMarked?$CInewOop?$CJ?$AA@ 004eeeac     mmScavenge.obj
 0003:00018ec4       ??_C@_0BB@FFDA@objIsOld?$CInewOop?$CJ?$AA@ 004eeec4     mmScavenge.obj
 0003:00018ed8       ??_C@_0BF@EDKM@?$CBobjIsMarked?$CIoldOop?$CJ?$AA@ 004eeed8     mmScavenge.obj
 0003:00018ef0       ??_C@_0DF@KHOB@oldSpaceObjOk?$CInewOop?0?5ifMarkedRe@ 004eeef0     mmScavenge.obj
 0003:00018f28       ??_C@_0BF@JPLN@?$CBobjSizeOvfl?$CInewOop?$CJ?$AA@ 004eef28     mmScavenge.obj
 0003:00018f40       ??_C@_0BJ@HOOM@?$CBobjSizeInHeader?$CIoldOop?$CJ?$AA@ 004eef40     mmScavenge.obj
 0003:00018f5c       ??_C@_0BE@DOBF@?$CBobjHasPtrs?$CIoldOop?$CJ?$AA@ 004eef5c     mmScavenge.obj
 0003:00018f70       ??_C@_0BN@BIAJ@objDataInTaggedSpace?$CIoldOop?$CJ?$AA@ 004eef70     mmScavenge.obj
 0003:00018f90       ??_C@_0CC@DBPA@dummyObj?$CInewOop?$CJ?5?$HM?$HM?5objOk?$CInewOop@ 004eef90     mmScavenge.obj
 0003:00018fb4       ??_C@_0BL@KBPG@?$CBobjIsNewForAssert?$CInewOop?$CJ?$AA@ 004eefb4     mmScavenge.obj
 0003:00018fd0       ??_C@_0CG@PACA@?$CBoopIsImm?$CInewOop?$CJ?5?$CG?$CG?5objIsOld?$CIne@ 004eefd0     mmScavenge.obj
 0003:00018ff8       ??_C@_0BN@EFDL@objDataInHandleSpace?$CInewOop?$CJ?$AA@ 004eeff8     mmScavenge.obj
 0003:00019018       ??_C@_0BK@MHLK@objDataInOldSpace?$CInewOop?$CJ?$AA@ 004ef018     mmScavenge.obj
 0003:00019034       ??_C@_0BO@EGMJ@objBodyPtr?$CInewOop?0?5oop?$CJ?5?$DN?$DN?5bp?$AA@ 004ef034     mmScavenge.obj
 0003:00019054       ??_C@_0BC@FMCM@?$CBobjIsNew?$CInewOop?$CJ?$AA@ 004ef054     mmScavenge.obj
 0003:00019068       ??_C@_0EC@LMJJ@?$CBtagBits?$CIoldOop?$CJ?5?$CG?$CG?5?$CIobjInPastSp@ 004ef068     mmScavenge.obj
 0003:000190ac       ??_C@_0GM@KMHO@?$CBobjIsForwarded?$CIobjOop?$CJ?5?$HM?$HM?5objIs@ 004ef0ac     mmScavenge.obj
 0003:00019118       ??_C@_0BG@NHOF@objInNewSpace?$CIobjOop?$CJ?$AA@ 004ef118     mmScavenge.obj
 0003:00019130       ??_C@_0CG@KPAF@objIsWeak?$CIforwardedHeadOfWeakPtr@ 004ef130     mmScavenge.obj
 0003:00019158       ??_C@_0CN@GFAP@objInFutureSpace?$CIforwardedHeadOf@ 004ef158     mmScavenge.obj
 0003:00019188       ??_C@_0CC@KPIP@objIsForwarded?$CIheadOfWeakPtrList@ 004ef188     mmScavenge.obj
 0003:000191ac       ??_C@_0CB@IPML@objInNewSpace?$CIheadOfWeakPtrList?$CJ@ 004ef1ac     mmScavenge.obj
 0003:000191d0       ??_C@_0DG@JEDN@rtOk?$CIrtEntriesMayOrMayNotBeMarke@ 004ef1d0     mmScavenge.obj
 0003:00019208       ??_C@_0BD@BDNI@?$CBtagBits?$CIreferent?$CJ?$AA@ 004ef208     mmScavenge.obj
 0003:0001921c       ??_C@_0DL@CIJF@couldBeDataPtr?$CIcurrentRefPtr?$CJ?5?$HM?$HM@ 004ef21c     mmScavenge.obj
 0003:00019258       ??_C@_0DF@BLIE@isKindOf?$CIscavengeSemaphore?0?5sysO@ 004ef258     mmScavenge.obj
 0003:00019290       ??_C@_0BM@LNNH@?$CBobjHasPtrs?$CIthresholdArray?$CJ?$AA@ 004ef290     mmScavenge.obj
 0003:000192ac       ??_C@_0DN@LNCF@?$CBoopIsImm?$CIlsThresholdOop?$CJ?5?$CG?$CG?5?$CBob@ 004ef2ac     mmScavenge.obj
 0003:000192ec       ??_C@_0BK@EKFN@?$CBoopIsImm?$CIlsThresholdOop?$CJ?$AA@ 004ef2ec     mmScavenge.obj
 0003:00019308       ??_C@_0FJ@MHP@?$CBoopIsImm?$CIthresholdArray?$CJ?5?$CG?$CG?5obj@ 004ef308     mmScavenge.obj
 0003:00019364       ??_C@_0EF@KEFJ@?$CBoopIsImm?$CItenureThresholdOop?$CJ?5?$CG?$CG@ 004ef364     mmScavenge.obj
 0003:000193ac       ??_C@_0BO@GMDG@?$CBoopIsImm?$CItenureThresholdOop?$CJ?$AA@ 004ef3ac     mmScavenge.obj
 0003:000193cc       ??_C@_0FN@NDDB@?$CBoopIsImm?$CIthresholdArray?$CJ?5?$CG?$CG?5obj@ 004ef3cc     mmScavenge.obj
 0003:0001942c       ??_C@_0EB@ENME@?$CBoopIsImm?$CIscavThresholdOop?$CJ?5?$CG?$CG?5?$CB@ 004ef42c     mmScavenge.obj
 0003:00019470       ??_C@_0BM@CDGP@?$CBoopIsImm?$CIscavThresholdOop?$CJ?$AA@ 004ef470     mmScavenge.obj
 0003:0001948c       ??_C@_0DN@LKID@?$CBoopIsImm?$CIthresholdArray?$CJ?5?$CG?$CG?5?$CBob@ 004ef48c     mmScavenge.obj
 0003:000194cc       ??_C@_0FL@FFAO@?$CBoopIsImm?$CIthresholdArray?$CJ?5?$CG?$CG?5obj@ 004ef4cc     mmScavenge.obj
 0003:00019528       ??_C@_0BK@HDJH@?$CBoopIsImm?$CIthresholdArray?$CJ?$AA@ 004ef528     mmScavenge.obj
 0003:00019544       ??_C@_0EB@ICDJ@?$CIlsThresholdOop?$CJ?5?$DN?$DN?5nonOop?5?$HM?$HM?5ob@ 004ef544     mmScavenge.obj
 0003:00019588       ??_C@_0EJ@KANN@?$CItenureThresholdOop?$CJ?5?$DN?$DN?5nonOop?5?$HM@ 004ef588     mmScavenge.obj
 0003:000195d4       ??_C@_0EF@KJDH@?$CIscavThresholdOop?$CJ?5?$DN?$DN?5nonOop?5?$HM?$HM?5@ 004ef5d4     mmScavenge.obj
 0003:0001961c       ??_C@_0FD@HDHF@?$CIthresholdArray?$CJ?5?$DN?$DN?5nonOop?5?$HM?$HM?5ob@ 004ef61c     mmScavenge.obj
 0003:00019670       ??_C@_0CB@HOJO@prevEntry?5?$DN?$DN?5tailOfEphemeronList@ 004ef670     mmScavenge.obj
 0003:00019694       ??_C@_0GC@GMLH@objInFutureSpace?$CIobjForwardingPt@ 004ef694     mmScavenge.obj
 0003:000196f8       ??_C@_0GA@ILAA@objIsNew?$CIephemeronEntry?$CJ?5?$CG?$CG?5?$CBobj@ 004ef6f8     mmScavenge.obj
 0003:00019758       ??_C@_0IN@GELE@objIsOld?$CIobjDataField?$CI?$CKrtEntryPt@ 004ef758     mmScavenge.obj
 0003:000197e8       ??_C@_0BI@ENDL@?$CBobjIsWeak?$CI?$CKrtEntryPtr?$CJ?$AA@ 004ef7e8     mmScavenge.obj
 0003:00019800       ??_C@_0HN@PGFB@objIsEphemeron?$CI?$CKrtEntryPtr?$CJ?5?$CG?$CG?5c@ 004ef800     mmScavenge.obj
 0003:00019880       ??_C@_0BM@FHIB@objIsGCSpecial?$CI?$CKrtEntryPtr?$CJ?$AA@ 004ef880     mmScavenge.obj
 0003:0001989c       ??_C@_0EK@LAAA@?$CIoopIsImm?$CIreferent?$CJ?5?$HM?$HM?5?$CBobjIsNew@ 004ef89c     mmScavenge.obj
 0003:000198e8       ??_C@_0BP@BAMH@?4?4?2?4?4?2?4?4?2src?2mman?2mmSnapshot?4c?$AA@ 004ef8e8     mmSnapshot.obj
 0003:00019908       ??_C@_0BO@EKHI@?$CIvpc?5?$DN?5mapNToVPC?$CIvmeth?0?5npc?$CJ?$CJ?$AA@ 004ef908     mmSnapshot.obj
 0003:00019928       ??_C@_0FJ@MAFG@Unmappable?5n?9PC?5encountered?3?6?7?7?7@ 004ef928     mmSnapshot.obj
 0003:00019984       ??_C@_0BO@EOFB@activeProc?5?$DN?$DN?5activeProcess?$CI?$CJ?$AA@ 004ef984     mmSnapshot.obj
 0003:000199a4       ??_C@_0BK@BDBM@nilOop?5?$DN?$DN?5sysOop?$CInilOopX?$CJ?$AA@ 004ef9a4     mmSnapshot.obj
 0003:000199c0       ??_C@_0EJ@FGKK@?$CBoopIsImm?$CIactiveProc?$CJ?5?$CG?$CG?5objIsNe@ 004ef9c0     mmSnapshot.obj
 0003:00019a0c       ??_C@_0EF@COCK@oldSpaceSegs?4numThreadedData?5?$DN?$DN?5@ 004efa0c     mmSnapshot.obj
 0003:00019a54       ??_C@_0CA@NKHF@?4?4?2?4?4?2?4?4?2src?2mman?2mmSubscript?4c?$AA@ 004efa54     mmSubscript.obj
 0003:00019a74       ??_C@_0BI@PIHK@?$CBobjHasPtrs?$CIcollection?$CJ?$AA@ 004efa74     mmSubscript.obj
 0003:00019a8c       ??_C@_0BH@FBLB@?$CBobjIsHybridCtx?$CIarray?$CJ?$AA@ 004efa8c     mmSubscript.obj
 0003:00019aa4       ??_C@_0BK@PBMC@?$CBobjHasPtrs?$CIsourceString?$CJ?$AA@ 004efaa4     mmSubscript.obj
 0003:00019ac0       ??_C@_0BF@IJMN@?$CBobjHasPtrs?$CIstring2?$CJ?$AA@ 004efac0     mmSubscript.obj
 0003:00019ad8       ??_C@_0BJ@GALI@?$CBobjHasPtrs?$CIasciiString?$CJ?$AA@ 004efad8     mmSubscript.obj
 0003:00019af4       ??_C@_0BD@JCPD@?$CBobjHasPtrs?$CIarray?$CJ?$AA@ 004efaf4     mmSubscript.obj
 0003:00019b08       ??_C@_0DN@HMFH@?$CBoopIsImm?$CIreplacementOop?$CJ?5?$CG?$CG?5?$CBob@ 004efb08     mmSubscript.obj
 0003:00019b48       ??_C@_0DB@NJHO@?$CBoopIsImm?$CIarrayOop?$CJ?5?$CG?$CG?5?$CBobjIsNew@ 004efb48     mmSubscript.obj
 0003:00019b7c       ??_C@_0DA@LAMM@?$CBoopIsImm?$CIarrayOop?$CJ?5?$CG?$CG?5objIsNewA@ 004efb7c     mmSubscript.obj
 0003:00019bac       ??_C@_0BE@GOKJ@?$CBoopIsImm?$CIarrayOop?$CJ?$AA@ 004efbac     mmSubscript.obj
 0003:00019bc0       ??_C@_0BC@MCDB@?$CBobjHasPtrs?$CIcOop?$CJ?$AA@ 004efbc0     mmSubscript.obj
 0003:00019bd4       ??_C@_0BE@JCBH@?$CBobjHasPtrs?$CItarget?$CJ?$AA@ 004efbd4     mmSubscript.obj
 0003:00019be8       ??_C@_0DA@DJMA@?$CBoopIsImm?$CIreceiver?$CJ?5?$CG?$CG?5objIsNewA@ 004efbe8     mmSubscript.obj
 0003:00019c18       ??_C@_0BE@MKF@?$CBoopIsImm?$CIreceiver?$CJ?$AA@ 004efc18     mmSubscript.obj
 0003:00019c2c       ??_C@_0DB@MLKO@?$CIresult?$CJ?5?$DN?$DN?5nonOop?5?$HM?$HM?5objDataSiz@ 004efc2c     mmSubscript.obj
 0003:00019c60       ??_C@_0BG@BABF@?$CBobjHasPtrs?$CIvalueArg?$CJ?$AA@ 004efc60     mmSubscript.obj
 0003:00019c78       ??_C@_0DB@CEFA@?$CIresult?$CJ?5?$DN?$DN?5nonOop?5?$HM?$HM?5objDataSiz@ 004efc78     mmSubscript.obj
 0003:00019cac       ??_C@_0ED@JMJE@?$CBoopIsImm?$CIsysOopRegistryOop?$CJ?5?$CG?$CG?5@ 004efcac     mmSysOop.obj
 0003:00019cf0       ??_C@_0NK@CAJC@slotIndex?5?$DN?$DN?5errorCodeTableX?5?$HM?$HM?5@ 004efcf0     mmSysOop.obj
 0003:00019dcc       ??_C@_0BN@OJO@?4?4?2?4?4?2?4?4?2src?2mman?2mmSysOop?4c?$AA@ 004efdcc     mmSysOop.obj
 0003:00019dec       ??_C@_0BL@MDHL@slotIndex?5?$DM?5firstFreeSlotX?$AA@ 004efdec     mmSysOop.obj
 0003:00019e08       ??_C@_0FH@MHLI@?$CBoopIsImm?$CIsysOopRegistryOop?$CJ?5?$CG?$CG?5@ 004efe08     mmSysOop.obj
 0003:00019e60       ??_C@_0BN@CCEF@?$CBoopIsImm?$CIsysOopRegistryOop?$CJ?$AA@ 004efe60     mmSysOop.obj
 0003:00019e80       ??_C@_0DL@BBPB@Not?5enough?5space?5to?5initialize?5t@ 004efe80     mmSysOop.obj
 0003:00019ebc       ??_C@_0M@GGCH@bailing?5out?$AA@ 004efebc     assertFail.obj
 0003:00019ec8       ??_C@_0CA@EEEC@?4?4?2?4?4?2?4?4?2src?2stack?2assertFail?4c?$AA@ 004efec8     assertFail.obj
 0003:00019ee8       ??_C@_0BL@CDAA@Assert?5fail?5?$EA?5?$CFd?5in?5?$CFs?7?$CFs?6?$AA@ 004efee8     assertFail.obj
 0003:00019f04       ??_C@_0BG@KMOE@Allocation?5failure?5?$CFs?$AA@ 004eff04     checks.obj
 0003:00019f1c       ??_C@_0BG@PIKC@in?5module?5?$CFs?0?5line?5?$CFd?$AA@ 004eff1c     checks.obj
 0003:00019f34       ??_C@_06FGMP@for?5?$CFs?$AA@ 004eff34     checks.obj
 0003:00019f3c       ??_C@_0BE@EDIO@in?5file?5?$CFs?0?5line?5?$CFd?$AA@ 004eff3c     checks.obj
 0003:00019f50       ??_C@_0BH@DHPF@npcInNMethodMap?$CIpc?0nm?$CJ?$AA@ 004eff50     checks.obj
 0003:00019f68       ??_C@_0CM@KCDI@mapNToVPC?$CInmVMethod?$CInm?$CJ?0pc?5?9?5?$CIma@ 004eff68     checks.obj
 0003:00019f94       ??_C@_0CF@GFJF@nm?5?$CG?$CG?5?$CB?$CInmIsPIC?$CInm?$CJ?5?$HM?$HM?5nmIsFree?$CI@ 004eff94     checks.obj
 0003:00019fbc       ??_C@_0P@FOFN@couldBeNPC?$CIpc?$CJ?$AA@ 004effbc     checks.obj
 0003:00019fcc       ??_C@_0BD@GCKA@isNPCWithin?$CIpc?0nm?$CJ?$AA@ 004effcc     checks.obj
 0003:00019fe0       ??_C@_0BD@HKEC@couldBeNMethod?$CInm?$CJ?$AA@ 004effe0     checks.obj
 0003:00019ff4       ??_C@_0BI@KHKG@stk?9?$DOprimRcvr?5?$DN?$DN?5nonOop?$AA@ 004efff4     checks.obj
 0003:0001a00c       ??_C@_0CA@HLGJ@isStack?$CIstk?$CJ?5?$CG?$CG?5stackInUse?$CIstk?$CJ?$AA@ 004f000c     checks.obj
 0003:0001a02c       ??_C@_0BM@EGNC@?4?4?2?4?4?2?4?4?2src?2stack?2checks?4c?$AA@ 004f002c     checks.obj
 0003:0001a048       ??_C@_0DO@KPIF@objDataPtr?$CIframeReceiver?$CIfrm?$CJ?0bl@ 004f0048     checks.obj
 0003:0001a088       ??_C@_0FM@GGHI@?$CBoopIsImm?$CIframeReceiver?$CIfrm?$CJ?$CJ?5?$CG?$CG@ 004f0088     checks.obj
 0003:0001a0e4       ??_C@_0BM@OENI@cd?9?$DOmethod?5?$DN?$DN?5nmVMethod?$CInm?$CJ?$AA@ 004f00e4     checks.obj
 0003:0001a100       ??_C@_0BE@ICNE@stackHybridsOK?$CIstk?$CJ?$AA@ 004f0100     checks.obj
 0003:0001a114       ??_C@_0BD@FFNF@stackBlocksOK?$CIstk?$CJ?$AA@ 004f0114     checks.obj
 0003:0001a128       ??_C@_0BG@IHKG@stackPCsOK?$CIstk?0FALSE?$CJ?$AA@ 004f0128     checks.obj
 0003:0001a140       ??_C@_0BF@PLBD@?$CBisAllocatedStack?$CIs?$CJ?$AA@ 004f0140     checks.obj
 0003:0001a158       ??_C@_0BE@MHCP@isAllocatedStack?$CIs?$CJ?$AA@ 004f0158     checks.obj
 0003:0001a16c       ??_C@_0BF@EPGG@objOk?$CIstk?9?$DOprimRcvr?$CJ?$AA@ 004f016c     checks.obj
 0003:0001a184       ??_C@_0DE@CAAI@?$CBobjHasData?$CIo?$CJ?5?$HM?$HM?5couldBeDataPtr@ 004f0184     checks.obj
 0003:0001a1b8       ??_C@_0P@PHA@probablyObj?$CIo?$CJ?$AA@ 004f01b8     checks.obj
 0003:0001a1c8       ??_C@_0M@DHMM@oopIsImm?$CIo?$CJ?$AA@ 004f01c8     checks.obj
 0003:0001a1d4       ??_C@_08MBAN@objOk?$CIo?$CJ?$AA@ 004f01d4     checks.obj
 0003:0001a1e0       ??_C@_0DM@IBBI@?9?9?9?9?9?9?9?9?9?9?9?9?9?9?9?9?9?9?9?9?9?9?9?9?9?9?9?9?9?9?9?9@ 004f01e0     checks.obj
 0003:0001a21c       ??_C@_0BD@KIAA@?5?9?$DOprevious?50x?$CFlx?6?$AA@ 004f021c     checks.obj
 0003:0001a230       ??_C@_0BD@MBHB@?5?9?$DOnext?5?5?5?5?50x?$CFlx?7?$AA@ 004f0230     checks.obj
 0003:0001a244       ??_C@_0BD@OCJI@?5?9?$DOprimErr?5?50x?$CFlx?6?$AA@ 004f0244     checks.obj
 0003:0001a258       ??_C@_0BD@PGFP@?5?9?$DOfailAddr?50x?$CFlx?7?$AA@ 004f0258     checks.obj
 0003:0001a26c       ??_C@_0BD@ICHO@?5?9?$DOarg?$FL1?$FN?5?5?50x?$CFlx?6?$AA@ 004f026c     checks.obj
 0003:0001a280       ??_C@_0BD@JHEI@?5?9?$DOarg?$FL0?$FN?5?5?50x?$CFlx?7?$AA@ 004f0280     checks.obj
 0003:0001a294       ??_C@_0BD@KHED@?5?9?$DOreceiver?50x?$CFlx?6?$AA@ 004f0294     checks.obj
 0003:0001a2a8       ??_C@_0BE@LGCB@?5?9?$DOnumArgs?5?50x?$CFlx?7?7?$AA@ 004f02a8     checks.obj
 0003:0001a2bc       ??_C@_0BD@DAEH@?5?9?$DOrealLim?5?50x?$CFlx?6?$AA@ 004f02bc     checks.obj
 0003:0001a2d0       ??_C@_0BD@PHE@?5?9?$DOlimit?5?5?5?50x?$CFlx?7?$AA@ 004f02d0     checks.obj
 0003:0001a2e4       ??_C@_0BD@DIIG@?5?9?$DOsp?5?5?5?5?5?5?50x?$CFlx?6?$AA@ 004f02e4     checks.obj
 0003:0001a2f8       ??_C@_0BD@CFBL@?5?9?$DOfp?5?5?5?5?5?5?50x?$CFlx?7?$AA@ 004f02f8     checks.obj
 0003:0001a30c       ??_C@_0BB@PHCG@Stack?5at?50x?$CFlx?3?6?$AA@ 004f030c     checks.obj
 0003:0001a320       ??_C@_0BK@LBEF@Arg?50x?$CFlx?5isn?8t?5a?5stack?4?6?$AA@ 004f0320     checks.obj
 0003:0001a33c       ??_C@_0BD@EHED@0x?$CFlx?5?$CFs?5selector?6?$AA@ 004f033c     checks.obj
 0003:0001a350       ??_C@_02ELCB@no?$AA@       004f0350     checks.obj
 0003:0001a354       ??_C@_07KLCM@invalid?$AA@  004f0354     checks.obj
 0003:0001a35c       ??_C@_0BL@KAHN@0x?$CFx?5has?5invalid?5dataPtr?$AH?6?$AA@ 004f035c     checks.obj
 0003:0001a378       ??_C@_05CCFO@?$CF?4?$CKs?6?$AA@ 004f0378     checks.obj
 0003:0001a380       ??_C@_0BD@JLLB@?$CBobjHasPtrs?$CIselec?$CJ?$AA@ 004f0380     checks.obj
 0003:0001a394       ??_C@_0BI@IBAH@Immediate?5selector?5?$CFlx?6?$AA@ 004f0394     checks.obj
 0003:0001a3ac       ??_C@_0O@JNNF@?$DMBogus?5Class?$DO?$AA@ 004f03ac     checks.obj
 0003:0001a3bc       ??_C@_04MIPF@?$CF?4?$CKs?$AA@ 004f03bc     checks.obj
 0003:0001a3c4       ??_C@_0L@KFBO@?$CF?4?$CKs?5class?$AA@ 004f03c4     checks.obj
 0003:0001a3d0       ??_C@_0BC@CCIF@?$DMBogus?5Immediate?$DO?$AA@ 004f03d0     checks.obj
 0003:0001a3e4       ??_C@_0BB@HGLM@Character?5?$FL?5?$CFc?5?$FN?$AA@ 004f03e4     checks.obj
 0003:0001a3f8       ??_C@_0BE@OGCG@SmallInteger?5?$FL?5?$CFd?5?$FN?$AA@ 004f03f8     checks.obj
 0003:0001a40c       ??_C@_09PJBG@a?$CIn?$CJ?5?$CF?4?$CKs?$AA@ 004f040c     checks.obj
 0003:0001a418       ??_C@_0P@HNFJ@a?5Class?5?$CI?$CF?4?$CKs?$CJ?$AA@ 004f0418     checks.obj
 0003:0001a428       ??_C@_0BJ@LIOO@a?5Metaclass?5?$CI?$CF?4?$CKs?5class?$CJ?$AA@ 004f0428     checks.obj
 0003:0001a444       ??_C@_07MLJP@?$DMfalse?$DO?$AA@ 004f0444     checks.obj
 0003:0001a44c       ??_C@_06OEAP@?$DMtrue?$DO?$AA@ 004f044c     checks.obj
 0003:0001a454       ??_C@_05EJHE@?$DMnil?$DO?$AA@ 004f0454     checks.obj
 0003:0001a45c       ??_C@_0BE@IJPO@?$DMHybrid?5?$CFs?5Context?$DO?$AA@ 004f045c     checks.obj
 0003:0001a470       ??_C@_0P@IALL@?$DMBogus?5Object?$DO?$AA@ 004f0470     checks.obj
 0003:0001a480       ??_C@_0N@GJFE@?$DMNMethod?5PC?$DO?$AA@ 004f0480     checks.obj
 0003:0001a490       ??_C@_09JLEO@?$DMGlue?5PC?$DO?$AA@ 004f0490     checks.obj
 0003:0001a49c       ??_C@_02PJJB@?$CC?6?$AA@   004f049c     checks.obj
 0003:0001a4a0       ??_C@_0BB@JMLF@?5Receiver?50x?$CFlx?$CC?$AA@ 004f04a0     checks.obj
 0003:0001a4b4       ??_C@_0N@MIPD@?5a?$CFd?50x?$CFlx?7?5?$AA@ 004f04b4     checks.obj
 0003:0001a4c4       ??_C@_0P@OEIN@Context?50x?$CFlx?6?$AA@ 004f04c4     checks.obj
 0003:0001a4d4       ??_C@_0L@LHB@?5PC?50x?$CFlx?6?$AA@ 004f04d4     checks.obj
 0003:0001a4e0       ??_C@_0P@EDMB@nMethod?50x?$CFlx?7?$AA@ 004f04e0     checks.obj
 0003:0001a4f0       ??_C@_0P@CIAL@?5Caller?50x?$CFlx?7?$AA@ 004f04f0     checks.obj
 0003:0001a500       ??_C@_0DI@JDJB@?6NumArgs?5?$DP?5NumTemps?5?$DP?7Selector?5?$DP@ 004f0500     checks.obj
 0003:0001a538       ??_C@_0BA@OFMC@?5VMethod?50x?$CFlx?6?$AA@ 004f0538     checks.obj
 0003:0001a548       ??_C@_0BN@PKMB@?$CFs?6?5NumArgs?5?$CFd?5?5NumTemps?5?$CFd?7?$AA@ 004f0548     checks.obj
 0003:0001a568       ??_C@_0BD@NHCA@?5marked?5bizarrely?$CB?$AA@ 004f0568     checks.obj
 0003:0001a57c       ??_C@_0BD@GNIP@?5marked?5for?5handle?$AA@ 004f057c     checks.obj
 0003:0001a590       ??_C@_0BD@GPKE@?5marked?5for?5unwind?$AA@ 004f0590     checks.obj
 0003:0001a5a4       ??_C@_0BN@GPKB@?$DOFrame?5at?50x?$CFlx?5is?5?$CFs?5and?5?$CFs?$AA@ 004f05a4     checks.obj
 0003:0001a5c4       ??_C@_07JOIO@NonRoot?$AA@  004f05c4     checks.obj
 0003:0001a5cc       ??_C@_04PNFB@Root?$AA@     004f05cc     checks.obj
 0003:0001a5d4       ??_C@_08CFPF@Volatile?$AA@ 004f05d4     checks.obj
 0003:0001a5e0       ??_C@_06BMIC@Hybrid?$AA@   004f05e0     checks.obj
 0003:0001a5e8       ??_C@_0L@INPI@?$DMnm?$EA?$CF03lx?$DO?$AA@ 004f05e8     checks.obj
 0003:0001a5f4       ??_C@_09GNEH@?50x?$CF08lx?5?$AA@ 004f05f4     checks.obj
 0003:0001a600       ??_C@_0M@DEEE@?6?50x?$CF08lx?3?5?$AA@ 004f0600     checks.obj
 0003:0001a60c       ??_C@_0CK@DLIJ@Arg?50x?$CFlx?5isn?8t?5a?5frame?5pointer?0@ 004f060c     checks.obj
 0003:0001a638       ??_C@_0CD@EMMI@Abort?5because?5?$CFlx?5isn?8t?5sp?5of?5fp@ 004f0638     checks.obj
 0003:0001a65c       ??_C@_0CB@HCOP@sp?9?$DO?5?5?5?5?5?5?5?5?5?5?5?50x?$CF08lx?7?7?$EA0x?$CFlx?6@ 004f065c     checks.obj
 0003:0001a680       ??_C@_0CB@DPGP@?5?5?5?5?5?5?5?5?5?5?5?5?5?5?5?50x?$CF08lx?7?7?$EA0x?$CFlx?6@ 004f0680     checks.obj
 0003:0001a6a4       ??_C@_0CB@PALM@temp?3?5?5?5?5?5?5?5?5?5?5?50x?$CF08lx?7?7?$EA0x?$CFlx?6@ 004f06a4     checks.obj
 0003:0001a6c8       ??_C@_0CB@ILDG@receiver?3?5?5?5?5?5?5?50x?$CF08lx?7?7?$EA0x?$CFlx?6@ 004f06c8     checks.obj
 0003:0001a6ec       ??_C@_0CB@POOB@nMethod?3?5?5?5?5?5?5?5?50x?$CF08lx?7?7?$EA0x?$CFlx?6@ 004f06ec     checks.obj
 0003:0001a710       ??_C@_0CB@KLAJ@thisContext?3?5?5?5?50x?$CF08lx?7?7?$EA0x?$CFlx?6@ 004f0710     checks.obj
 0003:0001a734       ??_C@_0CB@HANH@saved?5fp?3?5?5?5?5?5?5?50x?$CF08lx?7?7?$EA0x?$CFlx?6@ 004f0734     checks.obj
 0003:0001a758       ??_C@_0CB@BMGF@retpc?3?5?5?5?5?5?5?5?5?5?50x?$CF08lx?7?7?$EA0x?$CFlx?6@ 004f0758     checks.obj
 0003:0001a77c       ??_C@_0CB@MCDD@pushed?5arg?3?5?5?5?5?50x?$CF08lx?7?7?$EA0x?$CFlx?6@ 004f077c     checks.obj
 0003:0001a7a0       ??_C@_0CB@ICDO@pushed?5receiver?30x?$CF08lx?7?7?$EA0x?$CFlx?6@ 004f07a0     checks.obj
 0003:0001a7c4       ??_C@_0FE@OCK@?$CBnmIsPIC?$CI?$CI?$CInMethod?5?$CK?$CJ?$CI?$CI?$CK?$CIoopUInt@ 004f07c4     checks.obj
 0003:0001a818       ??_C@_0BI@BMHM@frame?50x?$CF08lx?5is?5bogus?6?$AA@ 004f0818     checks.obj
 0003:0001a830       ??_C@_0CE@CMFO@?$CIcontext?50x?$CF08lx?5is?5a?5dead?5hybri@ 004f0830     checks.obj
 0003:0001a854       ??_C@_0BB@MDPL@context?50x?$CF08lx?5?$AA@ 004f0854     checks.obj
 0003:0001a868       ??_C@_0BI@NPO@?5?$CInMethod?50x?$CFlx?5bogus?$CJ?6?$AA@ 004f0868     checks.obj
 0003:0001a880       ??_C@_0P@IENK@frame?50x?$CF08lx?5?$AA@ 004f0880     checks.obj
 0003:0001a890       ??_C@_02JJJH@?6?6?$AA@     004f0890     checks.obj
 0003:0001a894       ??_C@_0CJ@PJEB@currentStack?5?$CG?$CG?5stackInUse?$CIcurre@ 004f0894     checks.obj
 0003:0001a8c0       ??_C@_0BG@FHJJ@looksLikeHybrid?$CInext?$CJ?$AA@ 004f08c0     checks.obj
 0003:0001a8d8       ??_C@_0CL@OGAB@next?5?$DN?$DN?5sysOop?$CInilOopX?$CJ?5?$HM?$HM?5isCon@ 004f08d8     checks.obj
 0003:0001a904       ??_C@_0HA@LLA@?$CBoopIsImm?$CIctx?$CJ?5?$CG?$CG?5?$CIobjClass?$CIctx?$CJ@ 004f0904     checks.obj
 0003:0001a974       ??_C@_09LDFG@isFP?$CInfp?$CJ?$AA@ 004f0974     checks.obj
 0003:0001a980       ??_C@_0BG@LPGE@looksLikeHybrid?$CInctx?$CJ?$AA@ 004f0980     checks.obj
 0003:0001a998       ??_C@_0O@CAAC@ctx?5?$DN?$DN?5nonOop?$AA@ 004f0998     checks.obj
 0003:0001a9a8       ??_C@_0CD@FKOD@currentStack?50x?$CFlx?5isn?8t?5a?5stack@ 004f09a8     checks.obj
 0003:0001a9cc       ??_C@_0BP@DPMJ@?$CBprobablyObj?$CIscheduler?30x?$CFlx?$CJ?6?$AA@ 004f09cc     checks.obj
 0003:0001a9ec       ??_C@_0BN@FFKJ@?$CBprobablyObj?$CIprocess?30x?$CFlx?$CJ?6?$AA@ 004f09ec     checks.obj
 0003:0001aa0c       ??_C@_0BK@DBCG@?$CBprobablyObj?$CIctxt?30x?$CFlx?$CJ?6?$AA@ 004f0a0c     checks.obj
 0003:0001aa28       ??_C@_0DA@KJCF@?$CB?$CIobjOopDataSlots?$CIctxt?$CJ?5?$DO?$DN?5oopsi@ 004f0a28     checks.obj
 0003:0001aa58       ??_C@_0BD@EPCL@?$CBobjHasPtrs?$CIctxt?$CJ?6?$AA@ 004f0a58     checks.obj
 0003:0001aa6c       ??_C@_0BM@LMPG@?$CB?$CIctxt?5?$CB?$DN?5sysOop?$CInilOopX?$CJ?$CJ?6?$AA@ 004f0a6c     checks.obj
 0003:0001aa88       ??_C@_0CO@CDPN@?$CB?$CIobjOopDataSlots?$CIprocess?$CJ?5?$DO?$DN?5su@ 004f0a88     checks.obj
 0003:0001aab8       ??_C@_0BG@LBMF@?$CBobjHasPtrs?$CIprocess?$CJ?6?$AA@ 004f0ab8     checks.obj
 0003:0001aad0       ??_C@_0BP@PMOA@?$CB?$CIprocess?5?$CB?$DN?5sysOop?$CInilOopX?$CJ?$CJ?6?$AA@ 004f0ad0     checks.obj
 0003:0001aaf0       ??_C@_0BI@GJCN@?$CBobjHasPtrs?$CIscheduler?$CJ?6?$AA@ 004f0af0     checks.obj
 0003:0001ab08       ??_C@_0BP@JBHA@Could?5not?5find?5any?5processes?$CB?6?$AA@ 004f0b08     checks.obj
 0003:0001ab28       ??_C@_07EOBJ@Process?$AA@  004f0b28     checks.obj
 0003:0001ab30       ??_C@_0BE@HPHM@?$CBprobablyObj?$CIctxt?$CJ?6?$AA@ 004f0b30     checks.obj
 0003:0001ab44       ??_C@_0CG@POHA@activeProcess?8s?5currentStack?5is?5@ 004f0b44     checks.obj
 0003:0001ab6c       ??_C@_0BJ@GCIE@suspendedContext?5is?5nil?6?$AA@ 004f0b6c     checks.obj
 0003:0001ab88       ??_C@_0BC@IDDN@?6process?50x?$CFlx?$CFs?6?$AA@ 004f0b88     checks.obj
 0003:0001ab9c       ??_C@_0BB@IGJG@?5?$CIactiveProcess?$CJ?$AA@ 004f0b9c     checks.obj
 0003:0001abb0       ??_C@_0O@PFPP@processes?4txt?$AA@ 004f0bb0     checks.obj
 0003:0001abc0       ??_C@_03KNAP@?6?6?6?$AA@   004f0bc0     checks.obj
 0003:0001abc4       ??_C@_09GHBI@stack?4txt?$AA@ 004f0bc4     checks.obj
 0003:0001abd0       ??_C@_06PBLE@?$CF?4?$CKs?6?6?$AA@ 004f0bd0     checks.obj
 0003:0001abd8       ??_C@_0BM@NODH@?$CBobjHasPtrs?$CI?$CIoop?$CJstringOop?$CJ?$AA@ 004f0bd8     checks.obj
 0003:0001abf4       ??_C@_0BM@LIGG@?7Newest?50x?$CFlx?7Oldest?50x?$CFlx?6?$AA@ 004f0bf4     checks.obj
 0003:0001ac10       ??_C@_0BH@MFOA@currentStack?5at?50x?$CFlx?7?$AA@ 004f0c10     checks.obj
 0003:0001ac28       ??_C@_0BC@PEDN@Allocated?5chain?3?5?$AA@ 004f0c28     checks.obj
 0003:0001ac3c       ??_C@_0BD@MMPK@?5?$CInull?$CJ?5?5?$CFd?5total?6?$AA@ 004f0c3c     checks.obj
 0003:0001ac50       ??_C@_0M@DHGI@0x?$CF0lx?5?9?9?$DO?5?$AA@ 004f0c50     checks.obj
 0003:0001ac5c       ??_C@_0BA@IKAF@0x?$CF0lx?5?4?4?4?6?7?9?$DO?5?$AA@ 004f0c5c     checks.obj
 0003:0001ac6c       ??_C@_0N@NDIE@Free?5chain?3?5?$AA@ 004f0c6c     checks.obj
 0003:0001ac7c       ??_C@_0BI@FBGE@Current?5stack?5at?50x?$CFlx?6?$AA@ 004f0c7c     checks.obj
 0003:0001ac94       ??_C@_0M@IGFO@?$DMBogus?5Oop?$DO?$AA@ 004f0c94     checks.obj
 0003:0001aca0       ??_C@_0O@BGHN@HybridContext?$AA@ 004f0ca0     checks.obj
 0003:0001acb0       ??_C@_0O@NBIK@?$DMno?5selector?$DO?$AA@ 004f0cb0     checks.obj
 0003:0001acc0       ??_C@_0CN@EGLL@?7receiver?50x?$CFlx?5?$CI?$CFs?5?$CFs?$CJ?5selector@ 004f0cc0     checks.obj
 0003:0001acf0       ??_C@_02DFLH@an?$AA@       004f0cf0     checks.obj
 0003:0001acf4       ??_C@_0N@BNEP@aeiouyAEIOUY?$AA@ 004f0cf4     checks.obj
 0003:0001ad04       ??_C@_05LGKP@class?$AA@    004f0d04     checks.obj
 0003:0001ad0c       ??_C@_0BP@CGJ@Send?5log?5?$CImost?5recent?5first?$CJ?3?6?$AA@ 004f0d0c     checks.obj
 0003:0001ad2c       ??_C@_02CNAK@?$DO?$DO?$AA@ 004f0d2c     checks.obj
 0003:0001ad30       ??_C@_0N@OGFB@unknownClass?$AA@ 004f0d30     checks.obj
 0003:0001ad40       ??_C@_07ILOC@?5class?5?$AA@ 004f0d40     checks.obj
 0003:0001ad48       ??_C@_0M@LLKF@?6break?5for?5?$AA@ 004f0d48     checks.obj
 0003:0001ad54       ??_C@_0O@CGND@selectors?4txt?$AA@ 004f0d54     checks.obj
 0003:0001ad64       ??_C@_0M@HBFF@classes?4txt?$AA@ 004f0d64     checks.obj
 0003:0001ad70       ??_C@_0BE@HNMP@?$CBobjHasPtrs?$CItheSel?$CJ?$AA@ 004f0d70     checks.obj
 0003:0001ad84       ??_C@_0CG@FNBN@frameContext?$CIframeCaller?$CIfrm?$CJ?$CJ?5?$DN@ 004f0d84     contexts.obj
 0003:0001adac       ??_C@_0BC@MMGJ@oopIsChar?$CIcd?9?$DOpc?$CJ?$AA@ 004f0dac     contexts.obj
 0003:0001adc0       ??_C@_0BG@NJFF@oopIsChar?$CIcd?9?$DOsender?$CJ?$AA@ 004f0dc0     contexts.obj
 0003:0001add8       ??_C@_0BF@OHCH@looksLikeHybrid?$CIctx?$CJ?$AA@ 004f0dd8     contexts.obj
 0003:0001adf0       ??_C@_0BG@PPE@?$CBoopIsImm?$CIcd?9?$DOsender?$CJ?$AA@ 004f0df0     contexts.obj
 0003:0001ae08       ??_C@_0L@LILM@objOk?$CIctx?$CJ?$AA@ 004f0e08     contexts.obj
 0003:0001ae14       ??_C@_0BO@MAJ@?4?4?2?4?4?2?4?4?2src?2stack?2contexts?4c?$AA@ 004f0e14     contexts.obj
 0003:0001ae34       ??_C@_0DC@HDBK@couldBeNMethod?$CInm?$CJ?5?$CG?$CG?5nmVMethod?$CI@ 004f0e34     contexts.obj
 0003:0001ae68       ??_C@_0CD@NKDM@frameReceiver?$CIfrm?$CJ?5?$DN?$DN?5cd?9?$DOreceiv@ 004f0e68     contexts.obj
 0003:0001ae8c       ??_C@_0N@HFOP@isStack?$CIstk?$CJ?$AA@ 004f0e8c     contexts.obj
 0003:0001ae9c       ??_C@_0HF@OAMA@objDataField?$CIobj?0oop?0index?$CJ?5?$DN?$DN?5?$CI@ 004f0e9c     contexts.obj
 0003:0001af14       ??_C@_0CH@PCO@?$CImachinePC?$CJframeMethod?$CIctxFp?$CJ?5?9?5@ 004f0f14     contexts.obj
 0003:0001af3c       ??_C@_0CD@EJJE@isNPCWithin?$CIpc?0frameMethod?$CIctxFp@ 004f0f3c     contexts.obj
 0003:0001af60       ??_C@_0BD@EMFB@fetch?5hybrid?5stack?$AA@ 004f0f60     contexts.obj
 0003:0001af74       ??_C@_0CA@DIJI@couldBeNPC?$CIframePC?$CIframeAbove?$CJ?$CJ?$AA@ 004f0f74     contexts.obj
 0003:0001af94       ??_C@_0O@DPH@?$CBnmIsPIC?$CI_nm?$CJ?$AA@ 004f0f94     contexts.obj
 0003:0001afa4       ??_C@_0CK@PLHA@isFP?$CIctxFp?$CJ?5?$CG?$CG?5isAllocatedStack?$CI@ 004f0fa4     contexts.obj
 0003:0001afd0       ??_C@_0BK@MDDG@frameIsConsistent?$CIcaller?$CJ?$AA@ 004f0fd0     contexts.obj
 0003:0001afec       ??_C@_0M@KEEH@isFP?$CIctxFp?$CJ?$AA@ 004f0fec     contexts.obj
 0003:0001aff8       ??_C@_0BF@NCBO@looksLikeHybrid?$CIobj?$CJ?$AA@ 004f0ff8     contexts.obj
 0003:0001b010       ??_C@_0CN@EN@looksLikeHybrid?$CIobj?$CJ?5?$HM?$HM?5isStable@ 004f1010     contexts.obj
 0003:0001b040       ??_C@_0CK@CLIF@access?5to?5invalid?5hybrid?5context@ 004f1040     contexts.obj
 0003:0001b06c       ??_C@_0DM@KJOA@looksLikeHybrid?$CIobj?$CJ?5?$HM?$HM?5isStable@ 004f106c     contexts.obj
 0003:0001b0a8       ??_C@_0DC@EACL@frameOfHybrid?$CIcurrentContext?$CJ?5?$DN?$DN@ 004f10a8     contexts.obj
 0003:0001b0dc       ??_C@_0CA@OBDA@looksLikeHybrid?$CIcurrentContext?$CJ?$AA@ 004f10dc     contexts.obj
 0003:0001b0fc       ??_C@_0CE@HBMG@frameIsConsistent?$CIcurrentStack?9?$DO@ 004f10fc     contexts.obj
 0003:0001b120       ??_C@_0BP@MONK@?$CBframeIsRoot?$CIcurrentStack?9?$DOfp?$CJ?$AA@ 004f1120     contexts.obj
 0003:0001b140       ??_C@_0CL@KBFC@?$CBoopIsImm?$CIvalue?$CJ?5?$CG?$CG?5?$CBobjIsNewAss@ 004f1140     contexts.obj
 0003:0001b16c       ??_C@_0CH@HPAE@?$CBoopIsImm?$CIctx?$CJ?5?$CG?$CG?5?$CBobjIsNewAsser@ 004f116c     contexts.obj
 0003:0001b194       ??_C@_0CG@IBFE@?$CBoopIsImm?$CIctx?$CJ?5?$CG?$CG?5objIsNewAssert@ 004f1194     contexts.obj
 0003:0001b1bc       ??_C@_0BE@JDCN@frameIsRoot?$CIcaller?$CJ?$AA@ 004f11bc     contexts.obj
 0003:0001b1d0       ??_C@_0BP@GHCF@bad?5inst?5var?5offset?5in?5context?$AA@ 004f11d0     contexts.obj
 0003:0001b1f0       ??_C@_0CH@PGFP@oopClass?$CIvalue?$CJ?5?$DN?$DN?5sysOop?$CIarrayC@ 004f11f0     contexts.obj
 0003:0001b218       ??_C@_0CN@ILLG@value?5?$DN?$DN?5sysOop?$CInilOopX?$CJ?5?$HM?$HM?5isCo@ 004f1218     contexts.obj
 0003:0001b248       ??_C@_0BA@JPLM@oopIsInt?$CIvalue?$CJ?$AA@ 004f1248     contexts.obj
 0003:0001b258       ??_C@_0MP@EHPH@?$CBoopIsImm?$CIvalue?$CJ?5?$CG?$CG?5objClassTag?$CI@ 004f1258     contexts.obj
 0003:0001b328       ??_C@_0CF@KELO@index?5?$DM?5?$CIoopInt?$CJobjOopDataSlots?$CI@ 004f1328     contexts.obj
 0003:0001b350       ??_C@_0BF@HJCG@?$CBobjIsImmutable?$CIctx?$CJ?$AA@ 004f1350     contexts.obj
 0003:0001b368       ??_C@_0P@LLFO@?$CBoopIsImm?$CIctx?$CJ?$AA@ 004f1368     contexts.obj
 0003:0001b378       ??_C@_0CB@GDIB@ivIndex?5?$DN?$DN?5contextReceiverOffset@ 004f1378     contexts.obj
 0003:0001b39c       ??_C@_0BG@DAIG@frameIsConsistent?$CIfp?$CJ?$AA@ 004f139c     contexts.obj
 0003:0001b3b4       ??_C@_0BB@LJPI@?$CBframeIsRoot?$CIfp?$CJ?$AA@ 004f13b4     contexts.obj
 0003:0001b3c8       ??_C@_0BK@JNND@looksLikeHybrid?$CIreceiver?$CJ?$AA@ 004f13c8     contexts.obj
 0003:0001b3e4       ??_C@_0DG@HDLJ@isContext?$CItheContext?$CJ?5?$CG?$CG?5?$CBcontex@ 004f13e4     contexts.obj
 0003:0001b41c       ??_C@_0BG@DIGE@isContext?$CItheContext?$CJ?$AA@ 004f141c     contexts.obj
 0003:0001b434       ??_C@_0BM@BJHN@looksLikeHybrid?$CItheContext?$CJ?$AA@ 004f1434     contexts.obj
 0003:0001b450       ??_C@_0BN@PJHL@?$CInmAny?5?$CB?$DN?50?$CJ?5?$DN?$DN?5?$CIvmAny?5?$CB?$DN?50?$CJ?$AA@ 004f1450     contexts.obj
 0003:0001b470       ??_C@_0BN@MNNE@shouldBeLiveHybrid?$CIreceiver?$CJ?$AA@ 004f1470     contexts.obj
 0003:0001b490       ??_C@_0CJ@FOIP@ctx?5?$DN?$DN?5nonOop?5?$HM?$HM?5ctx?5?$DN?$DN?5frameCon@ 004f1490     contexts.obj
 0003:0001b4bc       ??_C@_0L@LJGH@isFP?$CInext?$CJ?$AA@ 004f14bc     contexts.obj
 0003:0001b4c8       ??_C@_0L@FLEA@stacksOK?$CI?$CJ?$AA@ 004f14c8     contexts.obj
 0003:0001b4d4       ??_C@_0GM@CMPA@?$CBcontextIsHybrid?$CIreceiver?$CJ?5?$HM?$HM?5?$CIf@ 004f14d4     contexts.obj
 0003:0001b540       ??_C@_0DL@HNAO@?$CBcontextIsHybrid?$CIaContext?$CJ?5?$HM?$HM?5sh@ 004f1540     contexts.obj
 0003:0001b57c       ??_C@_0DL@CLFO@?$CBcontextIsHybrid?$CIreceiver?$CJ?5?$HM?$HM?5sh@ 004f157c     contexts.obj
 0003:0001b5b8       ??_C@_0CD@JHKP@isFP?$CIfrm?$CJ?5?$CG?$CG?5isAllocatedStack?$CIst@ 004f15b8     contexts.obj
 0003:0001b5dc       ??_C@_0DB@EKKJ@?$CBoopIsImm?$CIstackObj?$CJ?5?$CG?$CG?5?$CBobjIsNew@ 004f15dc     contexts.obj
 0003:0001b610       ??_C@_0DA@ODBK@?$CBoopIsImm?$CIstackObj?$CJ?5?$CG?$CG?5objIsNewA@ 004f1610     contexts.obj
 0003:0001b640       ??_C@_0BE@PFLG@?$CBoopIsImm?$CIstackObj?$CJ?$AA@ 004f1640     contexts.obj
 0003:0001b654       ??_C@_0EB@LNGD@?$CBoopIsImm?$CIstackObj?$CJ?5?$CG?$CG?5objClass?$CI@ 004f1654     contexts.obj
 0003:0001b698       ??_C@_0BL@KPPD@?$CBcontextIsHybrid?$CIreceiver?$CJ?$AA@ 004f1698     contexts.obj
 0003:0001b6b4       ??_C@_0DB@JCCK@?$CBoopIsImm?$CIvalueArg?$CJ?5?$CG?$CG?5?$CBobjIsNew@ 004f16b4     contexts.obj
 0003:0001b6e8       ??_C@_0BF@HLDE@objHasPtrs?$CIreceiver?$CJ?$AA@ 004f16e8     contexts.obj
 0003:0001b700       ??_C@_0DL@BIEE@Three?9argument?5doesNotUnderstand@ 004f1700     dnu.obj
 0003:0001b73c       ??_C@_0CN@DODI@?$CBoopIsImm?$CImclass?$CJ?5?$CG?$CG?5?$CBobjIsNewAs@ 004f173c     dnu.obj
 0003:0001b76c       ??_C@_0DF@HGGH@?$CBoopIsImm?$CImo?$CJ?5?$CG?$CG?5objIsNewAssert?$CI@ 004f176c     dnu.obj
 0003:0001b7a4       ??_C@_0DB@CDBP@?$CBoopIsImm?$CIselector?$CJ?5?$CG?$CG?5?$CBobjIsNew@ 004f17a4     dnu.obj
 0003:0001b7d8       ??_C@_0CF@GOIE@?$CBoopIsImm?$CImo?$CJ?5?$CG?$CG?5?$CBobjIsNewAssert@ 004f17d8     dnu.obj
 0003:0001b800       ??_C@_0CE@GKEK@?$CBoopIsImm?$CImo?$CJ?5?$CG?$CG?5objIsNewAssert?$CI@ 004f1800     dnu.obj
 0003:0001b824       ??_C@_0O@KPFP@?$CBoopIsImm?$CImo?$CJ?$AA@ 004f1824     dnu.obj
 0003:0001b834       ??_C@_0BK@FHP@doesNotUnderstand?5message?$AA@ 004f1834     dnu.obj
 0003:0001b850       ??_C@_0DD@NBMJ@?$CImo?$CJ?5?$DN?$DN?5nonOop?5?$HM?$HM?5objDataSize?$CImo@ 004f1850     dnu.obj
 0003:0001b884       ??_C@_0CO@BHN@?$CB?$CIdontRoundUpSize?$CImessageSize?$CJ?5?$CG@ 004f1884     dnu.obj
 0003:0001b8b4       ??_C@_0CL@DNLK@?$CBoopIsImm?$CIva?$FLi?$FN?$CJ?5?$CG?$CG?5?$CBobjIsNewAss@ 004f18b4     dnu.obj
 0003:0001b8e0       ??_C@_0BB@LNLG@?$CBoopIsImm?$CIva?$FLi?$FN?$CJ?$AA@ 004f18e0     dnu.obj
 0003:0001b8f4       ??_C@_0CF@KJOF@?$CBoopIsImm?$CIao?$CJ?5?$CG?$CG?5?$CBobjIsNewAssert@ 004f18f4     dnu.obj
 0003:0001b91c       ??_C@_0CE@DMHJ@?$CBoopIsImm?$CIao?$CJ?5?$CG?$CG?5objIsNewAssert?$CI@ 004f191c     dnu.obj
 0003:0001b940       ??_C@_0O@HHLA@?$CBoopIsImm?$CIao?$CJ?$AA@ 004f1940     dnu.obj
 0003:0001b950       ??_C@_0BM@LGAI@doesNotUnderstand?5arguments?$AA@ 004f1950     dnu.obj
 0003:0001b96c       ??_C@_0CJ@MHAB@?$CIao?$CJ?5?$DN?$DN?5nonOop?5?$HM?$HM?5objDataSize?$CIao@ 004f196c     dnu.obj
 0003:0001b998       ??_C@_0EC@BLEJ@mnuMethNumArgs?5?$DN?$DN?51?5?$HM?$HM?5mnuMethNu@ 004f1998     dnu.obj
 0003:0001b9dc       ??_C@_0CH@JHE@No?5method?5found?5for?5doesNotUnder@ 004f19dc     dnu.obj
 0003:0001ba04       ??_C@_0BJ@EPBE@?4?4?2?4?4?2?4?4?2src?2stack?2dnu?4c?$AA@ 004f1a04     dnu.obj
 0003:0001ba20       ??_C@_0BE@EEKJ@?$CBnmIsPIC?$CIdnuMethod?$CJ?$AA@ 004f1a20     dnu.obj
 0003:0001ba34       ??_C@_0EP@LELG@?$CBoopIsImm?$CIcsp?$FLnumStackedArgs?5?9?5i@ 004f1a34     dnu.obj
 0003:0001ba84       ??_C@_0CD@EHLE@?$CBoopIsImm?$CIcsp?$FLnumStackedArgs?5?9?5i@ 004f1a84     dnu.obj
 0003:0001baa8       ??_C@_0CP@FIAD@?$CBoopIsImm?$CIrArgTwo?$CJ?5?$CG?$CG?5?$CBobjIsNewA@ 004f1aa8     dnu.obj
 0003:0001bad8       ??_C@_0BF@KHOM@probablyOop?$CIrArgTwo?$CJ?$AA@ 004f1ad8     dnu.obj
 0003:0001baf0       ??_C@_0CP@FOCC@?$CBoopIsImm?$CIrArgOne?$CJ?5?$CG?$CG?5?$CBobjIsNewA@ 004f1af0     dnu.obj
 0003:0001bb20       ??_C@_0BF@MMGD@probablyOop?$CIrArgOne?$CJ?$AA@ 004f1b20     dnu.obj
 0003:0001bb38       ??_C@_0O@OAMJ@nmIsPIC?$CInpic?$CJ?$AA@ 004f1b38     dnu.obj
 0003:0001bb48       ??_C@_0BG@GMNG@probablyOop?$CIselector?$CJ?$AA@ 004f1b48     dnu.obj
 0003:0001bb60       ??_C@_0BG@CMIH@probablyOop?$CIreceiver?$CJ?$AA@ 004f1b60     dnu.obj
 0003:0001bb78       ??_C@_0DI@DICA@isNMethod?$CInpic?$CJ?5?$CG?$CG?5?$CI?$CBdnuMethod?5?$HM@ 004f1b78     dnu.obj
 0003:0001bbb0       ??_C@_0CI@HHAM@?$CBdnuMethod?5?$HM?$HM?5couldBeNMethod?$CIdnu@ 004f1bb0     dnu.obj
 0003:0001bbd8       ??_C@_0CG@HHDN@couldBeNMethod?$CInpic?$CJ?5?$CG?$CG?5nmIsPIC?$CI@ 004f1bd8     dnu.obj
 0003:0001bc00       ??_C@_0BA@IAMA@couldBeNPC?$CIrpc?$CJ?$AA@ 004f1c00     dnu.obj
 0003:0001bc10       ??_C@_0BM@KOJH@couldBeSP?$CIcurrentStack?9?$DOsp?$CJ?$AA@ 004f1c10     dnu.obj
 0003:0001bc2c       ??_C@_0CH@IKOJ@numArgs?5?$DO?5numRegArgs?5?$CG?$CG?5numArgs?5@ 004f1c2c     dnu.obj
 0003:0001bc54       ??_C@_0BD@PIHF@nmNumArgs?$CInm?$CJ?5?$DN?$DN?51?$AA@ 004f1c54     dnu.obj
 0003:0001bc68       ??_C@_0P@LCMI@isContext?$CIcot?$CJ?$AA@ 004f1c68     dnu.obj
 0003:0001bc78       ??_C@_0BD@FCOC@nmNumArgs?$CInm?$CJ?5?$DN?$DN?50?$AA@ 004f1c78     dnu.obj
 0003:0001bc8c       ??_C@_0BG@DHJM@frameIsConsistent?$CIcf?$CJ?$AA@ 004f1c8c     dnu.obj
 0003:0001bca4       ??_C@_0BB@LOOC@?$CBframeIsRoot?$CIcf?$CJ?$AA@ 004f1ca4     dnu.obj
 0003:0001bcb8       ??_C@_04HDEJ@OPIC?$AA@     004f1cb8     hist.obj
 0003:0001bcc0       ??_C@_04MMJB@CPIC?$AA@     004f1cc0     hist.obj
 0003:0001bcc8       ??_C@_03LMDI@Lnk?$AA@      004f1cc8     hist.obj
 0003:0001bccc       ??_C@_0M@HFJO@ExtCallFail?$AA@ 004f1ccc     hist.obj
 0003:0001bcd8       ??_C@_07KCEM@ExtCall?$AA@  004f1cd8     hist.obj
 0003:0001bce0       ??_C@_05JKEL@Build?$AA@    004f1ce0     hist.obj
 0003:0001bce8       ??_C@_04OMMO@Perf?$AA@     004f1ce8     hist.obj
 0003:0001bcf0       ??_C@_04EEJL@Miss?$AA@     004f1cf0     hist.obj
 0003:0001bcf8       ??_C@_03FKAH@Noc?$AA@      004f1cf8     hist.obj
 0003:0001bcfc       ??_C@_03GCPJ@Imm?$AA@      004f1cfc     hist.obj
 0003:0001bd00       ??_C@_03FFPF@Sup?$AA@      004f1d00     hist.obj
 0003:0001bd04       ??_C@_03MOAJ@Ord?$AA@      004f1d04     hist.obj
 0003:0001bd08       ??_C@_0L@IPDH@?$DO?$DO?$CF?4?$CKs?5?$CFd?6?$AA@ 004f1d08     hist.obj
 0003:0001bd14       ??_C@_04BAK@NULL?$AA@      004f1d14     hist.obj
 0003:0001bd1c       ??_C@_0BG@KDFJ@?$CBobjHasPtrs?$CIselector?$CJ?$AA@ 004f1d1c     hist.obj
 0003:0001bd34       ??_C@_0N@CJN@?9?9?9From?$CFs?9?9?9?$AA@ 004f1d34     hist.obj
 0003:0001bd44       ??_C@_0BK@PMOI@?4?4?2?4?4?2?4?4?2src?2stack?2hist?4c?$AA@ 004f1d44     hist.obj
 0003:0001bd60       ??_C@_0BB@BIHO@couldBeNPC?$CIxrpc?$CJ?$AA@ 004f1d60     nlreturn.obj
 0003:0001bd74       ??_C@_0BA@IHJH@?$CBnmIsPIC?$CIthenm?$CJ?$AA@ 004f1d74     nlreturn.obj
 0003:0001bd84       ??_C@_0BF@JIHH@couldBeNPC?$CI?$CKstk?9?$DOsp?$CJ?$AA@ 004f1d84     nlreturn.obj
 0003:0001bd9c       ??_C@_0BG@JIAB@?$CBframeIsRoot?$CIstk?9?$DOfp?$CJ?$AA@ 004f1d9c     nlreturn.obj
 0003:0001bdb4       ??_C@_0BI@EKGM@shouldBeLiveHybrid?$CIctx?$CJ?$AA@ 004f1db4     nlreturn.obj
 0003:0001bdcc       ??_C@_0DB@EPPH@?$CBcontextIsHybrid?$CIctx?$CJ?5?$HM?$HM?5shouldB@ 004f1dcc     nlreturn.obj
 0003:0001be00       ??_C@_0P@BKNC@isContext?$CIctx?$CJ?$AA@ 004f1e00     nlreturn.obj
 0003:0001be10       ??_C@_0BO@DKKH@?4?4?2?4?4?2?4?4?2src?2stack?2nlreturn?4c?$AA@ 004f1e10     nlreturn.obj
 0003:0001be30       ??_C@_0BL@OFGN@frameIsConsistent?$CIstk?9?$DOfp?$CJ?$AA@ 004f1e30     nlreturn.obj
 0003:0001be4c       ??_C@_0BA@BDIK@isContext?$CIdest?$CJ?$AA@ 004f1e4c     nlreturn.obj
 0003:0001be5c       ??_C@_0BM@MIBC@couldBeNPC?$CI?$CImachinePC?$CJ?$CKcsp?$CJ?$AA@ 004f1e5c     nlreturn.obj
 0003:0001be78       ??_C@_0BH@DAGI@isFP?$CIcurrentStack?9?$DOfp?$CJ?$AA@ 004f1e78     nlreturn.obj
 0003:0001be90       ??_C@_0FD@FNHI@?$CBnmIsPIC?$CI?$CI?$CInMethod?5?$CK?$CJ?$CI?$CI?$CK?$CIoopUInt@ 004f1e90     nlreturn.obj
 0003:0001bee4       ??_C@_0CJ@MEEJ@couldBeNPC?$CI?$CImachinePC?$CJ?$CKcurrentSt@ 004f1ee4     nlreturn.obj
 0003:0001bf10       ??_C@_0BG@LAFH@looksLikeHybrid?$CIhome?$CJ?$AA@ 004f1f10     nlreturn.obj
 0003:0001bf28       ??_C@_0BA@NDKK@isContext?$CIhome?$CJ?$AA@ 004f1f28     nlreturn.obj
 0003:0001bf38       ??_C@_0FN@ELEB@?$CBoopIsImm?$CIclosureO?$CJ?5?$CG?$CG?5objHasPtr@ 004f1f38     nlreturn.obj
 0003:0001bf98       ??_C@_0EN@GFAJ@npcInNMethodMap?$CI?$CImachinePC?$CJ?$CKcurr@ 004f1f98     nlreturn.obj
 0003:0001bfe8       ??_C@_0EK@EL@callerCtx?5?$CB?$DN?5nonOop?5?$CG?$CG?5callerFrm@ 004f1fe8     nlreturn.obj
 0003:0001c034       ??_C@_0BL@HMHK@looksLikeHybrid?$CIcallerCtx?$CJ?$AA@ 004f2034     nlreturn.obj
 0003:0001c050       ??_C@_0BF@GFLC@isContext?$CIcallerCtx?$CJ?$AA@ 004f2050     nlreturn.obj
 0003:0001c068       ??_C@_0BN@DDHN@frameIsConsistent?$CIcallerFrm?$CJ?$AA@ 004f2068     nlreturn.obj
 0003:0001c088       ??_C@_0BI@GLEJ@?$CBframeIsRoot?$CIcallerFrm?$CJ?$AA@ 004f2088     nlreturn.obj
 0003:0001c0a0       ??_C@_0BE@MNOF@callerCtx?5?$DN?$DN?5nonOop?$AA@ 004f20a0     nlreturn.obj
 0003:0001c0b4       ??_C@_0EL@FAN@home?5?$CB?$DN?5?$CIframeIsHybridNoAssert?$CIc@ 004f20b4     nlreturn.obj
 0003:0001c100       ??_C@_0DD@FJIL@?$CBcontextIsHybrid?$CIhome?$CJ?5?$HM?$HM?5should@ 004f2100     nlreturn.obj
 0003:0001c134       ??_C@_0O@DCML@nmHasPrim?$CInm?$CJ?$AA@ 004f2134     nsupport.obj
 0003:0001c144       ??_C@_0BO@MGIL@?4?4?2?4?4?2?4?4?2src?2stack?2nsupport?4c?$AA@ 004f2144     nsupport.obj
 0003:0001c164       ??_C@_0P@JILH@?$CBnmHasPrim?$CInm?$CJ?$AA@ 004f2164     nsupport.obj
 0003:0001c174       ??_C@_0BP@LLB@isAllocatedStack?$CIcurrentStack?$CJ?$AA@ 004f2174     nsupport.obj
 0003:0001c194       ??_C@_0BK@LJFK@result?5?$CB?$DN?5primFailedValue?$AA@ 004f2194     nsupport.obj
 0003:0001c1b0       ??_C@_0CD@HKLG@numArgs?5?$DM?$DN?5MaxNonVarArgPrimNumAr@ 004f21b0     nsupport.obj
 0003:0001c1d4       ??_C@_0CP@NMDB@nMethodForPC?$CIcurrentStack?9?$DOprimF@ 004f21d4     nsupport.obj
 0003:0001c204       ??_C@_0KG@EPEO@ptType?$CIpte?$CJ?5?$DN?$DN?5primTypeTranslate@ 004f2204     nsupport.obj
 0003:0001c2ac       ??_C@_0ML@NLNP@?$CIcurrentStack?9?$DOsp?5?$DN?$DN?5?$CIoopSized?5?$CK@ 004f22ac     nsupport.obj
 0003:0001c378       ??_C@_0BP@IOL@numArgs?5?$DO?$DN?50?5?$CG?$CG?5numArgs?5?$DM?$DN?5255?$AA@ 004f2378     nsupport.obj
 0003:0001c398       ??_C@_0BH@MOEG@isCommittedPrimitive?$CI?$CJ?$AA@ 004f2398     nsupport.obj
 0003:0001c3b0       ??_C@_0O@PHC@isNMethod?$CInm?$CJ?$AA@ 004f23b0     nsupport.obj
 0003:0001c3c0       ??_C@_0CB@JLBC@?$CBframeIsHybrid?$CIcurrentStack?9?$DOfp?$CJ@ 004f23c0     nsupport.obj
 0003:0001c3e4       ??_C@_0DB@JLGI@?$CBoopIsImm?$CInewValue?$CJ?5?$CG?$CG?5?$CBobjIsNew@ 004f23e4     nsupport.obj
 0003:0001c418       ??_C@_0BE@COAF@?$CBoopIsImm?$CInewValue?$CJ?$AA@ 004f2418     nsupport.obj
 0003:0001c42c       ??_C@_0EC@KHFA@probablyObj?$CItarget?$CJ?5?$CG?$CG?5?$CBobjIsNew@ 004f242c     nsupport.obj
 0003:0001c470       ??_C@_0O@BBDG@?$CBoopIsImm?$CIca?$CJ?$AA@ 004f2470     nsupport.obj
 0003:0001c480       ??_C@_0DH@LPN@?$CBoopIsImm?$CIblockMethod?$CJ?5?$CG?$CG?5?$CBobjIs@ 004f2480     nsupport.obj
 0003:0001c4b8       ??_C@_0BH@EDDK@?$CBoopIsImm?$CIblockMethod?$CJ?$AA@ 004f24b8     nsupport.obj
 0003:0001c4d0       ??_C@_0CF@PJBP@?$CBoopIsImm?$CIbc?$CJ?5?$CG?$CG?5?$CBobjIsNewAssert@ 004f24d0     nsupport.obj
 0003:0001c4f8       ??_C@_0DF@KKDL@?$CBoopIsImm?$CIbc?$CJ?5?$CG?$CG?5objIsNewAssert?$CI@ 004f24f8     nsupport.obj
 0003:0001c530       ??_C@_0CE@BKJK@?$CBoopIsImm?$CIbc?$CJ?5?$CG?$CG?5objIsNewAssert?$CI@ 004f2530     nsupport.obj
 0003:0001c554       ??_C@_0CH@JMAI@?$CBoopIsImm?$CI?$CKsp?$CJ?5?$CG?$CG?5?$CBobjIsNewAsser@ 004f2554     nsupport.obj
 0003:0001c57c       ??_C@_0P@OLCM@?$CBoopIsImm?$CI?$CKsp?$CJ?$AA@ 004f257c     nsupport.obj
 0003:0001c58c       ??_C@_0CF@IGCH@?$CBoopIsImm?$CIca?$CJ?5?$CG?$CG?5?$CBobjIsNewAssert@ 004f258c     nsupport.obj
 0003:0001c5b4       ??_C@_0CE@BOIM@?$CBoopIsImm?$CIca?$CJ?5?$CG?$CG?5objIsNewAssert?$CI@ 004f25b4     nsupport.obj
 0003:0001c5d8       ??_C@_0BE@PFDC@block?5copied?5values?$AA@ 004f25d8     nsupport.obj
 0003:0001c5ec       ??_C@_0CJ@LNNK@?$CIca?$CJ?5?$DN?$DN?5nonOop?5?$HM?$HM?5objDataSize?$CIca@ 004f25ec     nsupport.obj
 0003:0001c618       ??_C@_0O@KOBK@numValues?5?$DO?51?$AA@ 004f2618     nsupport.obj
 0003:0001c628       ??_C@_0O@HAGD@copying?5block?$AA@ 004f2628     nsupport.obj
 0003:0001c638       ??_C@_0DF@JCOJ@?$CIbc?$CJ?5?$DN?$DN?5nonOop?5?$HM?$HM?5objDataSize?$CIbc@ 004f2638     nsupport.obj
 0003:0001c670       ??_C@_03HMFC@?$CFd?6?$AA@  004f2670     nsupport.obj
 0003:0001c674       ??_C@_0CK@MKLI@absdiff?$CIspval?0?$CIchar?5?$CK?$CJ?$CGblockMeth@ 004f2674     nsupport.obj
 0003:0001c6a0       ??_C@_0BB@OCJJ@copying?5block?$CI1?$CJ?$AA@ 004f26a0     nsupport.obj
 0003:0001c6b4       ??_C@_0CF@FCLB@?$CBoopIsImm?$CIos?$CJ?5?$CG?$CG?5?$CBobjIsNewAssert@ 004f26b4     nsupport.obj
 0003:0001c6dc       ??_C@_0O@IOCF@?$CBoopIsImm?$CIos?$CJ?$AA@ 004f26dc     nsupport.obj
 0003:0001c6ec       ??_C@_0DF@DFCI@?$CBoopIsImm?$CIbc?$CJ?5?$CG?$CG?5objIsNewAssert?$CI@ 004f26ec     nsupport.obj
 0003:0001c724       ??_C@_0L@IDAB@full?5block?$AA@ 004f2724     nsupport.obj
 0003:0001c730       ??_C@_0P@BOKO@numValues?5?$DO?$DN?50?$AA@ 004f2730     nsupport.obj
 0003:0001c740       ??_C@_0BD@NHG@full?5copying?5block?$AA@ 004f2740     nsupport.obj
 0003:0001c754       ??_C@_0L@HPHB@cons?5array?$AA@ 004f2754     nsupport.obj
 0003:0001c760       ??_C@_0N@GDMM@create?5array?$AA@ 004f2760     nsupport.obj
 0003:0001c770       ??_C@_0BI@FBFE@oldSpaceObjOk?$CIca?0FALSE?$CJ?$AA@ 004f2770     nsupport.obj
 0003:0001c788       ??_C@_0DH@GMBD@?$CIca?$CJ?5?$DN?$DN?5nonOop?5?$HM?$HM?5objDataSize?$CIca@ 004f2788     nsupport.obj
 0003:0001c7c0       ??_C@_0DC@CPFF@?$CB?$CIdontRoundUpSize?$CInumValuesQuant@ 004f27c0     nsupport.obj
 0003:0001c7f4       ??_C@_0DM@EFOG@numValuesQuanta?5?$DO?50?5?$CG?$CG?5?$CB?$CInumValu@ 004f27f4     nsupport.obj
 0003:0001c830       ??_C@_0CN@PELJ@couldBeNPC?$CI?$CK?$CI?$CImachinePC?5?$CK?$CJcurren@ 004f2830     nsupport.obj
 0003:0001c860       ??_C@_0BD@IIE@probablyOop?$CIvalue?$CJ?$AA@ 004f2860     nsupport.obj
 0003:0001c874       ??_C@_0FC@CAPG@zeroRelativeInstVarIndex?5?$DO?$DN?50?5?$CG?$CG@ 004f2874     nsupport.obj
 0003:0001c8c8       ??_C@_0BG@LAAO@probablyObj?$CIreceiver?$CJ?$AA@ 004f28c8     nsupport.obj
 0003:0001c8e0       ??_C@_0CD@JOCK@No?5method?5found?5for?5badBytecodeA@ 004f28e0     nsupport.obj
 0003:0001c904       ??_C@_0CK@PLJO@Bad?5bytecode?5?$CIno?5badBytecodeAt?3?5@ 004f2904     nsupport.obj
 0003:0001c930       ??_C@_0BE@LEOG@badBytecodeAt?3?5?$CFld?6?$AA@ 004f2930     nsupport.obj
 0003:0001c944       ??_C@_0BP@JN@?4?4?2?4?4?2?4?4?2src?2stack?2primSends?4c?$AA@ 004f2944     primSends.obj
 0003:0001c964       ??_C@_0CF@LBLK@?$CB?$CI?$CIoopUInt?$CJnm?5?$CG?5frameMethodFlagB@ 004f2964     primSends.obj
 0003:0001c98c       ??_C@_0EO@ODGB@?$CInumPrimArgs?5?$DN?$DN?52?5?$HM?$HM?5numPrimArgs@ 004f298c     primSends.obj
 0003:0001c9dc       ??_C@_0DJ@LGIA@numPrimArgs?5?$DN?$DN?52?5?$HM?$HM?5numPrimArgs?5@ 004f29dc     primSends.obj
 0003:0001ca18       ??_C@_0CJ@BMMK@nm?5?$DN?$DN?5tranNotUnderstood?5?$HM?$HM?5isNMe@ 004f2a18     send.obj
 0003:0001ca44       ??_C@_0BK@NKHF@?4?4?2?4?4?2?4?4?2src?2stack?2send?4c?$AA@ 004f2a44     send.obj
 0003:0001ca60       ??_C@_0DL@FAFM@unexpected?5translation?5failure?5?$CI@ 004f2a60     send.obj
 0003:0001ca9c       ??_C@_09OOJM@?$DMunknown?$DO?$AA@ 004f2a9c     send.obj
 0003:0001caa8       ??_C@_0BD@CPGP@isTranFailCode?$CInm?$CJ?$AA@ 004f2aa8     send.obj
 0003:0001cabc       ??_C@_0BC@IDPB@couldBeNPC?$CInewpc?$CJ?$AA@ 004f2abc     send.obj
 0003:0001cad0       ??_C@_0EE@PJNE@?$CInmIsPIC?$CIcnm?$CJ?5?$DP?5npicNumArgs?$CIcnm?$CJ@ 004f2ad0     send.obj
 0003:0001cb14       ??_C@_0O@EDEM@?$CBnmIsPIC?$CIcnm?$CJ?$AA@ 004f2b14     send.obj
 0003:0001cb24       ??_C@_0CM@PFLF@oopIsImm?$CIlkpClass?$CJ?5?$HM?$HM?5probablyOb@ 004f2b24     send.obj
 0003:0001cb50       ??_C@_0CM@JEGD@oopIsImm?$CIreceiver?$CJ?5?$HM?$HM?5probablyOb@ 004f2b50     send.obj
 0003:0001cb7c       ??_C@_0BE@MBPH@index?5?$DM?5MaxRequests?$AA@ 004f2b7c     services.obj
 0003:0001cb90       ??_C@_0BO@LABC@?4?4?2?4?4?2?4?4?2src?2stack?2services?4c?$AA@ 004f2b90     services.obj
 0003:0001cbb0       ??_C@_0BJ@FCCG@couldBeNPC?$CIframePC?$CIfrm?$CJ?$CJ?$AA@ 004f2bb0     stackframe.obj
 0003:0001cbcc       ??_C@_0BH@IHCJ@shouldBeLiveHybrid?$CIho?$CJ?$AA@ 004f2bcc     stackframe.obj
 0003:0001cbe4       ??_C@_0BB@GBFA@relocating?5frame?$AA@ 004f2be4     stackframe.obj
 0003:0001cbf8       ??_C@_0HB@ELNK@?$CBoopIsImm?$CI?$CI?$CK?$CIoop?5?$CK?$CJ?$CI?$CG?$CIfrm?$CJ?9?$DOdumm@ 004f2bf8     stackframe.obj
 0003:0001cc6c       ??_C@_0DE@MACH@?$CBoopIsImm?$CI?$CI?$CK?$CIoop?5?$CK?$CJ?$CI?$CG?$CIfrm?$CJ?9?$DOdumm@ 004f2c6c     stackframe.obj
 0003:0001cca0       ??_C@_0EF@GCGF@?$CBoopIsImm?$CI?$CI?$CInm?$CJ?9?$DOms?4vmethod?$CJ?$CJ?5?$CG?$CG@ 004f2ca0     stackframe.obj
 0003:0001cce8       ??_C@_0BO@GGPP@?$CBoopIsImm?$CI?$CI?$CInm?$CJ?9?$DOms?4vmethod?$CJ?$CJ?$AA@ 004f2ce8     stackframe.obj
 0003:0001cd08       ??_C@_0CF@DMOM@?$CBoopIsImm?$CIho?$CJ?5?$CG?$CG?5?$CBobjIsNewAssert@ 004f2d08     stackframe.obj
 0003:0001cd30       ??_C@_0O@BLLD@?$CBobjIsNew?$CIho?$CJ?$AA@ 004f2d30     stackframe.obj
 0003:0001cd40       ??_C@_0N@JGAB@hybrid?5frame?$AA@ 004f2d40     stackframe.obj
 0003:0001cd50       ??_C@_0O@CMEF@?$CBtagBits?$CIfrm?$CJ?$AA@ 004f2d50     stackframe.obj
 0003:0001cd60       ??_C@_0BB@KJAA@?$CBtagBits?$CIcaller?$CJ?$AA@ 004f2d60     stackframe.obj
 0003:0001cd74       ??_C@_0CP@OEKK@?$CB?$CIframeMethodField?$CIfrm?$CJ?5?$CG?5frameM@ 004f2d74     stackframe.obj
 0003:0001cda4       ??_C@_0CE@FENP@?$CBoopIsImm?$CIho?$CJ?5?$CG?$CG?5objIsNewAssert?$CI@ 004f2da4     stackframe.obj
 0003:0001cdc8       ??_C@_0EF@FKLC@?$CBoopIsImm?$CIho?$CJ?5?$CG?$CG?5objIsNewAssert?$CI@ 004f2dc8     stackframe.obj
 0003:0001ce10       ??_C@_0DH@FNLB@?$CIho?$CJ?5?$DN?$DN?5nonOop?5?$HM?$HM?5objDataSize?$CIho@ 004f2e10     stackframe.obj
 0003:0001ce48       ??_C@_0BE@KGBO@?$CBframeIsHybrid?$CIfrm?$CJ?$AA@ 004f2e48     stackframe.obj
 0003:0001ce5c       ??_C@_0BH@GKNN@frameIsConsistent?$CIfrm?$CJ?$AA@ 004f2e5c     stackframe.obj
 0003:0001ce74       ??_C@_0BC@EPFE@?$CBframeIsRoot?$CIfrm?$CJ?$AA@ 004f2e74     stackframe.obj
 0003:0001ce88       ??_C@_0CA@GKCP@?4?4?2?4?4?2?4?4?2src?2stack?2stackframe?4c?$AA@ 004f2e88     stackframe.obj
 0003:0001cea8       ??_C@_0CP@MGKE@isAllocatedStack?$CIstk?$CJ?5?$CG?$CG?5?$CBframeI@ 004f2ea8     stackframe.obj
 0003:0001ced8       ??_C@_0BB@JLGD@isFreeStack?$CIstk?$CJ?$AA@ 004f2ed8     stackframe.obj
 0003:0001ceec       ??_C@_0CD@OEPF@npcInNMethodMap?$CI?$CImachinePC?$CJ?$CKsp?0n@ 004f2eec     stackframe.obj
 0003:0001cf10       ??_C@_0DH@OLFD@cd?9?$DOsender?5?$DN?$DN?5sysOop?$CInilOopX?$CJ?5?$HM?$HM@ 004f2f10     stackframe.obj
 0003:0001cf48       ??_C@_0DF@FPML@?$CBoopIsImm?$CIcd?9?$DOsender?$CJ?5?$CG?$CG?5?$CBobjIsN@ 004f2f48     stackframe.obj
 0003:0001cf80       ??_C@_0EB@NMHB@?$CBoopIsImm?$CIctxt?$CJ?5?$CG?$CG?5objIsNewAsser@ 004f2f80     stackframe.obj
 0003:0001cfc4       ??_C@_0BD@JKLF@frameIsHybrid?$CIfrm?$CJ?$AA@ 004f2fc4     stackframe.obj
 0003:0001cfd8       ??_C@_0BJ@OENJ@stackHybridsOK?$CIoldstack?$CJ?$AA@ 004f2fd8     stackframe.obj
 0003:0001cff4       ??_C@_0BJ@LFCP@stackHybridsOK?$CInewstack?$CJ?$AA@ 004f2ff4     stackframe.obj
 0003:0001d010       ??_C@_0BC@HKMD@?$CBtagBits?$CInewbase?$CJ?$AA@ 004f3010     stackframe.obj
 0003:0001d024       ??_C@_0P@JFPN@?$CBtagBits?$CIroot?$CJ?$AA@ 004f3024     stackframe.obj
 0003:0001d034       ??_C@_0BO@EGLD@mine?5?$DN?$DN?5frameContext?$CInewbase?$CJ?$AA@ 004f3034     stackframe.obj
 0003:0001d054       ??_C@_0BL@HKFN@frameIsConsistent?$CIoldbase?$CJ?$AA@ 004f3054     stackframe.obj
 0003:0001d070       ??_C@_0GO@HEJJ@?$CIfrmAbove?5?$CB?$DN?5noFrame?5?$CG?$CG?5frameCal@ 004f3070     stackframe.obj
 0003:0001d0e0       ??_C@_0BJ@IJN@shouldBeLiveHybrid?$CImine?$CJ?$AA@ 004f30e0     stackframe.obj
 0003:0001d0fc       ??_C@_0EB@OOEH@frameIsConsistent?$CI?$CI?$CK?$CIframe?5?$CK?5?$CK?$CJ?$CI@ 004f30fc     stackframe.obj
 0003:0001d140       ??_C@_0DM@JDPK@?$CBframeIsRoot?$CI?$CI?$CK?$CIframe?5?$CK?5?$CK?$CJ?$CI?$CG?$CIold@ 004f3140     stackframe.obj
 0003:0001d17c       ??_C@_0BE@JPKE@?$CBoldstack?9?$DOprimRcvr?$AA@ 004f317c     stackframe.obj
 0003:0001d190       ??_C@_0BA@PDLG@allPCsOK?$CIFALSE?$CJ?$AA@ 004f3190     stackframe.obj
 0003:0001d1a0       ??_C@_0CD@BJIA@?$CBframeIsRoot?$CIframeCaller?$CIoldbase@ 004f31a0     stackframe.obj
 0003:0001d1c4       ??_C@_0BG@HDB@?$CBframeIsRoot?$CIoldbase?$CJ?$AA@ 004f31c4     stackframe.obj
 0003:0001d1dc       ??_C@_0P@GDNH@couldBeOop?$CIop?$CJ?$AA@ 004f31dc     stackframe.obj
 0003:0001d1ec       ??_C@_0BG@EKPG@objDataOk?$CIcd?9?$DOstacka?$CJ?$AA@ 004f31ec     stackframe.obj
 0003:0001d204       ??_C@_0P@GIAH@off?9by?9n?5error?$AA@ 004f3204     stackframe.obj
 0003:0001d214       ??_C@_0CH@DHOA@?$CBoopIsImm?$CI?$CKap?$CJ?5?$CG?$CG?5?$CBobjIsNewAsser@ 004f3214     stackframe.obj
 0003:0001d23c       ??_C@_0P@GOGL@?$CBoopIsImm?$CI?$CKap?$CJ?$AA@ 004f323c     stackframe.obj
 0003:0001d24c       ??_C@_0DF@MBNC@?$CBoopIsImm?$CIcd?9?$DOstacka?$CJ?5?$CG?$CG?5?$CBobjIsN@ 004f324c     stackframe.obj
 0003:0001d284       ??_C@_0DE@OBLH@?$CBoopIsImm?$CIcd?9?$DOstacka?$CJ?5?$CG?$CG?5objIsNe@ 004f3284     stackframe.obj
 0003:0001d2b8       ??_C@_0BB@FIBA@probablyOop?$CI?$CKap?$CJ?$AA@ 004f32b8     stackframe.obj
 0003:0001d2cc       ??_C@_0CO@DDPJ@objOopDataSlots?$CIcd?9?$DOstacka?$CJ?5?$DN?$DN?5?$CI@ 004f32cc     stackframe.obj
 0003:0001d2fc       ??_C@_0CN@OCGA@?$CBoopIsImm?$CIstacka?$CJ?5?$CG?$CG?5?$CBobjIsNewAs@ 004f32fc     stackframe.obj
 0003:0001d32c       ??_C@_0BC@LKAB@?$CBoopIsImm?$CIstacka?$CJ?$AA@ 004f332c     stackframe.obj
 0003:0001d340       ??_C@_0CL@OLNA@?$CBoopIsImm?$CIhctxt?$CJ?5?$CG?$CG?5?$CBobjIsNewAss@ 004f3340     stackframe.obj
 0003:0001d36c       ??_C@_0DP@FFCN@?$CBoopIsImm?$CIhctxt?$CJ?5?$CG?$CG?5objIsNewAsse@ 004f336c     stackframe.obj
 0003:0001d3ac       ??_C@_0BB@IID@?$CBoopIsImm?$CIhctxt?$CJ?$AA@ 004f33ac     stackframe.obj
 0003:0001d3c0       ??_C@_0DB@IFPC@?$CIstacka?$CJ?5?$DN?$DN?5nonOop?5?$HM?$HM?5objDataSiz@ 004f33c0     stackframe.obj
 0003:0001d3f4       ??_C@_0JN@MGHD@?$CBoopIsImm?$CIcd?9?$DOstacka?$CJ?5?$CG?$CG?5?$CIcd?9?$DOst@ 004f33f4     stackframe.obj
 0003:0001d494       ??_C@_0CP@NMKO@?$CIint?$CJ?$CInmNumArgs?$CInm?$CJ?5?$CL?5nmNumTemps@ 004f3494     stackframe.obj
 0003:0001d4c4       ??_C@_0DH@NPLK@frameIsHybridNoAssert?$CIfr?$CJ?5?$CG?$CG?5sho@ 004f34c4     stackframe.obj
 0003:0001d4fc       ??_C@_08MLMD@isFP?$CIfr?$CJ?$AA@ 004f34fc     stackframe.obj
 0003:0001d508       ??_C@_0BC@CPLL@couldBeSP?$CIcurrSP?$CJ?$AA@ 004f3508     stackframe.obj
 0003:0001d51c       ??_C@_0CI@IACF@Can?8t?5allocate?5for?5stabilizeThis@ 004f351c     stackframe.obj
 0003:0001d544       ??_C@_0DB@KFBE@stackInUse?$CIstk?$CJ?5?$CG?$CG?5frameOfHybrid@ 004f3544     stackframe.obj
 0003:0001d578       ??_C@_0BO@JNBL@frameCaller?$CIcallee?$CJ?5?$DN?$DN?5thefrm?$AA@ 004f3578     stackframe.obj
 0003:0001d598       ??_C@_0BL@JMLH@thefrm?5?$CB?$DN?5currentStack?9?$DOfp?$AA@ 004f3598     stackframe.obj
 0003:0001d5b4       ??_C@_0BF@HDGM@stk?5?$CB?$DN?5?$CIstack?5?$CK?$CJNULL?$AA@ 004f35b4     stackframe.obj
 0003:0001d5cc       ??_C@_0CK@GJPI@isFreeStack?$CIstk?$CJ?5?$HM?$HM?5?$CBframeIsRoot@ 004f35cc     stackframe.obj
 0003:0001d5f8       ??_C@_0P@FPN@objDataOk?$CIctx?$CJ?$AA@ 004f35f8     stackframe.obj
 0003:0001d608       ??_C@_0DP@MDJD@?$CBoopIsImm?$CIctx?$CJ?5?$CG?$CG?5objIsNewAssert@ 004f3608     stackframe.obj
 0003:0001d648       ??_C@_0BI@MCID@probablyObj?$CIcd?9?$DOsender?$CJ?$AA@ 004f3648     stackframe.obj
 0003:0001d660       ??_C@_0DM@EJII@frameIsConsistent?$CI?$CI?$CK?$CIframe?5?$CK?5?$CK?$CJ?$CI@ 004f3660     stackframe.obj
 0003:0001d69c       ??_C@_0BI@GANC@ipc?5?$DM?50?5?$CG?$CG?5ipc?5?$DO?5?950000?$AA@ 004f369c     stackframe.obj
 0003:0001d6b4       ??_C@_0N@HHMJ@stable?5frame?$AA@ 004f36b4     stackframe.obj
 0003:0001d6c4       ??_C@_0DH@DABO@objDataPtr?$CIctx?0context?$CJ?9?$DOreceive@ 004f36c4     stackframe.obj
 0003:0001d6fc       ??_C@_0DB@LBFF@objDataPtr?$CIctx?0context?$CJ?9?$DOmethod?5@ 004f36fc     stackframe.obj
 0003:0001d730       ??_C@_0BK@GHCJ@couldBeDataPtr?$CI?$CIoop?5?$CK?$CJcd?$CJ?$AA@ 004f3730     stackframe.obj
 0003:0001d74c       ??_C@_0CE@FDGO@isNPCWithin?$CI?$CImachinePC?$CJ?$CKstk?9?$DOsp?0@ 004f374c     stackframe.obj
 0003:0001d770       ??_C@_0O@BPOB@ctx?5?$CB?$DN?5nonOop?$AA@ 004f3770     stackframe.obj
 0003:0001d780       ??_C@_0BG@BNND@frameIsConsistent?$CIfr?$CJ?$AA@ 004f3780     stackframe.obj
 0003:0001d798       ??_C@_0BB@JEKN@?$CBframeIsRoot?$CIfr?$CJ?$AA@ 004f3798     stackframe.obj
 0003:0001d7ac       ??_C@_0BN@IO@isFP?$CIfr?$CJ?5?$CG?$CG?5?$CBframeIsRoot?$CIfr?$CJ?$AA@ 004f37ac     stackframe.obj
 0003:0001d7cc       ??_C@_0BG@NPLN@isAllocatedStack?$CIstk?$CJ?$AA@ 004f37cc     stackframe.obj
 0003:0001d7e4       ??_C@_0DL@OEPC@npc?5?$DN?$DN?5mapVToNPC?$CIvmeth?0?5vpc?$CJ?5?$HM?$HM?5@ 004f37e4     stackframe.obj
 0003:0001d820       ??_C@_0BP@OPNB@pc?5?$DM?$DN?5lastValidNPCOf?$CInmOrNull?$CJ?$AA@ 004f3820     stackframe.obj
 0003:0001d840       ??_C@_0DA@KNOA@looksLikeHybrid?$CIctx?$CJ?5?$CG?$CG?5frameOfH@ 004f3840     stackframe.obj
 0003:0001d870       ??_C@_0BH@LNIH@frameIsHybrid?$CIstk?9?$DOfp?$CJ?$AA@ 004f3870     stackframe.obj
 0003:0001d888       ??_C@_0CI@GDL@npcInNMethodMap?$CI?$CImachinePC?$CJ?$CKstk?9@ 004f3888     stackframe.obj
 0003:0001d8b0       ??_C@_0CA@LNKP@couldBeNPC?$CI?$CImachinePC?$CJ?$CKstk?9?$DOsp?$CJ?$AA@ 004f38b0     stackframe.obj
 0003:0001d8d0       ??_C@_0CB@KIPH@Unmappable?5VPC?5in?5stableToHybrid@ 004f38d0     stackframe.obj
 0003:0001d8f4       ??_C@_0CF@ICBG@objOopDataSlots?$CIcd?9?$DOstacka?$CJ?5?$DN?$DN?5f@ 004f38f4     stackframe.obj
 0003:0001d91c       ??_C@_0M@LOBP@?$CBtagBits?$CIf?$CJ?$AA@ 004f391c     stackframe.obj
 0003:0001d928       ??_C@_0DC@OAGK@?$CBtagBits?$CI?$CI?$CK?$CIframe?5?$CK?5?$CK?$CJ?$CI?$CG?$CIf?$CJ?9?$DOdum@ 004f3928     stackframe.obj
 0003:0001d95c       ??_C@_0FC@CODE@objClass?$CIctx?$CJ?5?$DN?$DN?5sysOop?$CInmIsBloc@ 004f395c     stackframe.obj
 0003:0001d9b0       ??_C@_0BH@JMHL@couldBeNPC?$CIframePC?$CIf?$CJ?$CJ?$AA@ 004f39b0     stackframe.obj
 0003:0001d9c8       ??_C@_0BM@MOEK@looksLikeHybrid?$CIcd?9?$DOsender?$CJ?$AA@ 004f39c8     stackframe.obj
 0003:0001d9e4       ??_C@_0EB@IPC@Unable?5to?5translate?5method?5for?5e@ 004f39e4     stackframe.obj
 0003:0001da28       ??_C@_0DK@JOBK@Unable?5to?5translate?5method?5for?5e@ 004f3a28     stackframe.obj
 0003:0001da64       ??_C@_0DH@IEOM@isContext?$CIcd?9?$DOsender?$CJ?5?$HM?$HM?5cd?9?$DOsen@ 004f3a64     stackframe.obj
 0003:0001da9c       ??_C@_0DG@GKL@oopUIntVal?$CIcd?9?$DOstackp?$CJ?5?$DM?$DN?5objOop@ 004f3a9c     stackframe.obj
 0003:0001dad4       ??_C@_0CM@HAPO@oopClass?$CIcd?9?$DOstacka?$CJ?5?$DN?$DN?5sysOop?$CIa@ 004f3ad4     stackframe.obj
 0003:0001db00       ??_C@_0DK@NNKJ@oopIsInt?$CIcd?9?$DOstackp?$CJ?5?$CG?$CG?5iabs?$CIoop@ 004f3b00     stackframe.obj
 0003:0001db3c       ??_C@_0DE@NAL@oopIsInt?$CIcd?9?$DOpc?$CJ?5?$CG?$CG?5iabs?$CIoopIntV@ 004f3b3c     stackframe.obj
 0003:0001db70       ??_C@_0CE@ECDK@isStableContextClass?$CIobjClass?$CIct@ 004f3b70     stackframe.obj
 0003:0001db94       ??_C@_0DK@BKNO@isContext?$CIcontextOnTop?$CJ?5?$CG?$CG?5?$CBcont@ 004f3b94     stackframe.obj
 0003:0001dbd0       ??_C@_0CO@KDFM@rootReturn?5encountered?5a?5valid?5h@ 004f3bd0     stackframe.obj
 0003:0001dc00       ??_C@_0CC@PFDK@?$CBshouldBeLiveHybrid?$CIcontextOnTop@ 004f3c00     stackframe.obj
 0003:0001dc24       ??_C@_0CN@HNEP@ptgbt?5?$DN?$DN?5sysOop?$CInilOopX?$CJ?5?$HM?$HM?5isCo@ 004f3c24     stackframe.obj
 0003:0001dc54       ??_C@_0BN@MNPE@couldBeNPC?$CIframePC?$CIfrAbove?$CJ?$CJ?$AA@ 004f3c54     stackframe.obj
 0003:0001dc74       ??_C@_0CC@HMNI@isFP?$CIfr?$CJ?5?$CG?$CG?5isAllocatedStack?$CIstk@ 004f3c74     stackframe.obj
 0003:0001dc98       ??_C@_0BG@JGLI@Can?8t?5allocate?5stacks?$AA@ 004f3c98     stackzone.obj
 0003:0001dcb0       ??_C@_0BM@PNHJ@stackZone?5?$DN?$DN?5?$CIstack?5?$CK?$CJ?5NULL?$AA@ 004f3cb0     stackzone.obj
 0003:0001dccc       ??_C@_0BP@KBHO@?4?4?2?4?4?2?4?4?2src?2stack?2stackzone?4c?$AA@ 004f3ccc     stackzone.obj
 0003:0001dcec       ??_C@_0BCA@EBAL@stk1?5?$DN?$DN?5?$CGstackZone?$FL0?$FN?5?$CG?$CG?5stk2?5?$DN?$DN@ 004f3cec     stackzone.obj
 0003:0001de0c       ??_C@_0BM@MOOM@stackZone?5?$CB?$DN?5?$CIstack?5?$CK?$CJ?5NULL?$AA@ 004f3e0c     stackzone.obj
 0003:0001de28       ??_C@_0BM@GGMI@stk?9?$DOfp?5?$DN?$DN?5rootFrameOf?$CIstk?$CJ?$AA@ 004f3e28     stackzone.obj
 0003:0001de44       ??_C@_0CF@NLDF@isFreeStack?$CIstk?$CJ?5?$CG?$CG?5?$CBstackInUse?$CI@ 004f3e44     stackzone.obj
 0003:0001de6c       ??_C@_0BB@KLGH@Can?8t?5free?5stack?$AA@ 004f3e6c     stackzone.obj
 0003:0001de80       ??_C@_0DP@GKEK@currentStack?5?$DN?$DN?5NullStackPtr?5?$HM?$HM?5@ 004f3e80     stackzone.obj
 0003:0001dec0       ??_C@_0BE@HLDM@numFreeStacks?$CI?$CJ?5?$DO?50?$AA@ 004f3ec0     stackzone.obj
 0003:0001ded4       ??_C@_0BJ@MHIB@freeable?5?$CB?$DN?5currentStack?$AA@ 004f3ed4     stackzone.obj
 0003:0001def0       ??_C@_0DA@DAKL@numFreeStacks?$CI?$CJ?5?$CL?5numAllocStacks@ 004f3ef0     stackzone.obj
 0003:0001df20       ??_C@_0BE@HB@stk?5?$CB?$DN?5currentStack?$AA@ 004f3f20     stackzone.obj
 0003:0001df34       ??_C@_0BF@EPHK@numAllocStacks?$CI?$CJ?5?$DO?52?$AA@ 004f3f34     stackzone.obj
 0003:0001df4c       ??_C@_0BB@DPEN@frameIsRoot?$CIfrm?$CJ?$AA@ 004f3f4c     vmsupport.obj
 0003:0001df60       ??_C@_0BL@PEKD@frameIsConsistent?$CIcalleef?$CJ?$AA@ 004f3f60     vmsupport.obj
 0003:0001df7c       ??_C@_0BG@IJMP@?$CBframeIsRoot?$CIcalleef?$CJ?$AA@ 004f3f7c     vmsupport.obj
 0003:0001df94       ??_C@_0BL@OKLA@probablyObj?$CInmVMethod?$CInm?$CJ?$CJ?$AA@ 004f3f94     vmsupport.obj
 0003:0001dfb0       ??_C@_0BH@LLDI@nm?5?$DN?$DN?5frameMethod?$CIfrm?$CJ?$AA@ 004f3fb0     vmsupport.obj
 0003:0001dfc8       ??_C@_0CM@NMLF@objInPastSpace?$CIobjOop?$CJ?5?$HM?$HM?5objInE@ 004f3fc8     vmsupport.obj
 0003:0001dff4       ??_C@_0BE@JNKH@probablyOop?$CIobjOop?$CJ?$AA@ 004f3ff4     vmsupport.obj
 0003:0001e008       ??_C@_0CG@GPBJ@to?5?$DN?$DN?5?$CIoopSized?5?$CK?$CJ?$CGframeReceiver@ 004f4008     vmsupport.obj
 0003:0001e030       ??_C@_0CE@HBJL@frm?5?$CB?$DN?5noFrame?5?$CG?$CG?5?$CBframeIsRoot?$CIf@ 004f4030     vmsupport.obj
 0003:0001e054       ??_C@_0BP@IPKL@?4?4?2?4?4?2?4?4?2src?2stack?2vmsupport?4c?$AA@ 004f4054     vmsupport.obj
 0003:0001e074       ??_C@_0BK@DEPB@to?5?$DN?$DN?5?$CGframeReceiver?$CIfrm?$CJ?$AA@ 004f4074     vmsupport.obj
 0003:0001e090       ??_C@_0DA@LCDB@frm?5?$CB?$DN?5noFrame?5?$CG?$CG?5frameIsRoot?$CIfr@ 004f4090     vmsupport.obj
 0003:0001e0c0       ??_C@_0CK@OPIO@frameContext?$CIcaller?$CJ?5?$DN?$DN?5frameCon@ 004f40c0     vmsupport.obj
 0003:0001e0ec       ??_C@_0BC@CPIH@couldBeNPC?$CI?$CKprpc?$CJ?$AA@ 004f40ec     vmsupport.obj
 0003:0001e100       ??_C@_0BO@GKOM@couldBeNPC?$CI?$CKcurrentStack?9?$DOsp?$CJ?$AA@ 004f4100     vmsupport.obj
 0003:0001e120       ??_C@_0N@PBAO@currentStack?$AA@ 004f4120     vmsupport.obj
 0003:0001e130       ??_C@_0BG@EFOJ@couldBeNPC?$CIrestartPC?$CJ?$AA@ 004f4130     vmsupport.obj
 0003:0001e148       ??_C@_0P@GKKE@stk?9?$DOfp?5?$DN?$DN?5frm?$AA@ 004f4148     vmsupport.obj
 0003:0001e158       ??_C@_0DH@EFEM@?$CBoopIsImm?$CIreturnValue?$CJ?5?$CG?$CG?5?$CBobjIs@ 004f4158     vmsupport.obj
 0003:0001e190       ??_C@_0DF@IGCM@?$CBoopIsImm?$CIstackArray?$CJ?5?$CG?$CG?5?$CBobjIsN@ 004f4190     vmsupport.obj
 0003:0001e1c8       ??_C@_0DE@EIMN@?$CBoopIsImm?$CIstackArray?$CJ?5?$CG?$CG?5objIsNe@ 004f41c8     vmsupport.obj
 0003:0001e1fc       ??_C@_0BG@MCEP@?$CBoopIsImm?$CIstackArray?$CJ?$AA@ 004f41fc     vmsupport.obj
 0003:0001e214       ??_C@_0DC@PNPH@oopIsInt?$CIcd?9?$DOstackp?$CJ?5?$CG?$CG?5sp?5?$DO?50?5?$CG@ 004f4214     vmsupport.obj
 0003:0001e248       ??_C@_0EF@NHNH@?$CBoopIsImm?$CIstackArray?$CJ?5?$CG?$CG?5objClas@ 004f4248     vmsupport.obj
 0003:0001e290       ??_C@_0FE@HNIJ@?$CIoop?5?$CK?$CJsp?5?$DM?5?$CGframeLocalVar?$CIfr?0mi@ 004f4290     vmsupport.obj
 0003:0001e2e4       ??_C@_0BJ@EPFK@probablyOop?$CIreturnValue?$CJ?$AA@ 004f42e4     vmsupport.obj
 0003:0001e300       ??_C@_0BB@OLPF@probablyOop?$CItos?$CJ?$AA@ 004f4300     vmsupport.obj
 0003:0001e314       ??_C@_0IF@LMBM@?$CIoop?5?$CK?$CJ?$CIcurrentStack?9?$DOsp?5?$CL?51?$CJ?5?$DM?$DN@ 004f4314     vmsupport.obj
 0003:0001e39c       ??_C@_0GB@DBJJ@?$CBnmIsPIC?$CI?$CI?$CInMethod?5?$CK?$CJ?$CI?$CI?$CK?$CIoopUInt@ 004f439c     vmsupport.obj
 0003:0001e400       ??_C@_0CA@ENKG@ctx?5?$DN?$DN?5nonOop?5?$HM?$HM?5isContext?$CIctx?$CJ?$AA@ 004f4400     vmsupport.obj
 0003:0001e420       ??_C@_0CH@BLIM@couldBeNPC?$CIcurrentStack?9?$DOprimFai@ 004f4420     vmsupport.obj
 0003:0001e448       ??_C@_0CA@EOMJ@nmNumArgs?$CInm?$CJ?5?$DN?$DN?5?$CIunsigned?$CJnumA?$AA@ 004f4448     vmsupport.obj
 0003:0001e468       ??_C@_0BD@NAGC@frameIsHybrid?$CIcfp?$CJ?$AA@ 004f4468     vmsupport.obj
 0003:0001e47c       ??_C@_0BH@CAAK@frameIsConsistent?$CIcfp?$CJ?$AA@ 004f447c     vmsupport.obj
 0003:0001e494       ??_C@_0BC@FID@?$CBframeIsRoot?$CIcfp?$CJ?$AA@ 004f4494     vmsupport.obj
 0003:0001e4a8       ??_C@_0BJ@BJGM@couldBeNPC?$CIframePC?$CIcfp?$CJ?$CJ?$AA@ 004f44a8     vmsupport.obj
 0003:0001e4c4       ??_C@_0BI@KDGF@nMethodForPC?$CIrpc?$CJ?5?$DN?$DN?5nm?$AA@ 004f44c4     vmsupport.obj
 0003:0001e4dc       ??_C@_0GI@JBDK@rpc?5?$DN?$DN?5primReturnPC?5?$HM?$HM?5rpc?5?$DN?$DN?5pr@ 004f44dc     vmsupport.obj
 0003:0001e544       ??_C@_0BJ@HFJA@frameContext?$CIcfp?$CJ?5?$DN?$DN?5ctx?$AA@ 004f4544     vmsupport.obj
 0003:0001e560       ??_C@_0BB@MOJG@aoBoundariesOk?$CI?$CJ?$AA@ 004f4560     nmalloc.obj
 0003:0001e574       ??_C@_0BM@NAAL@?4?4?2?4?4?2?4?4?2src?2tran?2nmalloc?4c?$AA@ 004f4574     nmalloc.obj
 0003:0001e590       ??_C@_0DG@GDDH@nmZone?4bottom?5?$DN?$DN?5?$CInMethod?5?$CK?$CJalig@ 004f4590     nmalloc.obj
 0003:0001e5c8       ??_C@_0DA@DECG@nmZone?4top?5?$DN?$DN?5?$CIquantum?5?$CK?$CJalignTo@ 004f45c8     nmalloc.obj
 0003:0001e5f8       ??_C@_0CP@KOJC@nmZone?4top?5?9?5?$CIquantum?5?$CK?$CJnmZone?4b@ 004f45f8     nmalloc.obj
 0003:0001e628       ??_C@_0DH@GKNC@nmZone?4bottom?5?$CG?$CG?5nmZone?4top?5?$DO?5?$CIq@ 004f4628     nmalloc.obj
 0003:0001e660       ??_C@_0BN@EPKM@?$CL?$CLnzoneAllocsSinceCompaction?$AA@ 004f4660     nmalloc.obj
 0003:0001e680       ??_C@_0L@EPPC@ssize?4base?$AA@ 004f4680     nmalloc.obj
 0003:0001e68c       ??_C@_0DA@HPOH@Could?5not?5provide?5scratch?5space?5@ 004f468c     nmalloc.obj
 0003:0001e6bc       ??_C@_0BA@GLDC@nMethodListOK?$CI?$CJ?$AA@ 004f46bc     nmalloc.obj
 0003:0001e6cc       ??_C@_0BD@FKGP@isNMethod?$CI?$CK?9?9from?$CJ?$AA@ 004f46cc     nmalloc.obj
 0003:0001e6e0       ??_C@_05HHF@?$CF10lx?$AA@  004f46e0     nmalloc.obj
 0003:0001e6e8       ??_C@_0P@DPOF@nMethod?5list?3?6?$AA@ 004f46e8     nmalloc.obj
 0003:0001e6f8       ??_C@_0DO@ICEO@nMethodZone?6?7bottom?$DN?$CFlx?5free?$DN?$CFlx@ 004f46f8     nmalloc.obj
 0003:0001e738       ??_C@_05HOIM@0x?$CFx?6?$AA@ 004f4738     nmalloc.obj
 0003:0001e740       ??_C@_0IH@EEPJ@nMethod?50x?$CFlx?3?5?$CFs?5?$CIentry?3?50x?$CFlx?$CJ@ 004f4740     nmalloc.obj
 0003:0001e7c8       ??_C@_0M@HLHD@?$CIextended?$CJ?5?$AA@ 004f47c8     nmalloc.obj
 0003:0001e7d4       ??_C@_0BA@CCJG@?$CBnmIsPIC?$CInmeth?$CJ?$AA@ 004f47d4     nmalloc.obj
 0003:0001e7e4       ??_C@_0L@LHAA@?0?5UNLINKED?$AA@ 004f47e4     nmalloc.obj
 0003:0001e7f0       ??_C@_0M@OFAF@?0?5is?5handle?$AA@ 004f47f0     nmalloc.obj
 0003:0001e7fc       ??_C@_0M@OHCO@?0?5is?5unwind?$AA@ 004f47fc     nmalloc.obj
 0003:0001e808       ??_C@_0L@EMNM@?0?5has?5prim?$AA@ 004f4808     nmalloc.obj
 0003:0001e814       ??_C@_0O@IEHC@?0?5has?5new?5ref?$AA@ 004f4814     nmalloc.obj
 0003:0001e824       ??_C@_07FFGC@?0?5block?$AA@ 004f4824     nmalloc.obj
 0003:0001e82c       ??_C@_02MECO@?$CFd?$AA@    004f482c     nmalloc.obj
 0003:0001e830       ??_C@_07EDDN@?0?5mark?$DN?$AA@ 004f4830     nmalloc.obj
 0003:0001e838       ??_C@_06DNHM@in?9use?$AA@  004f4838     nmalloc.obj
 0003:0001e840       ??_C@_04KHAP@free?$AA@     004f4840     nmalloc.obj
 0003:0001e848       ??_C@_0BJ@HBAK@0x?$CFlx?5is?5not?5an?5nmethod?6?$AA@ 004f4848     nmalloc.obj
 0003:0001e864       ??_C@_0M@LIFM@0x?$CFx?3?5?$CF?4?$CKs?6?$AA@ 004f4864     nmalloc.obj
 0003:0001e870       ??_C@_0BP@MDCM@?$CBobjHasPtrs?$CI?$CI?$CIntp?$CJ?9?$DOselector?$CJ?$CJ?$AA@ 004f4870     nmalloc.obj
 0003:0001e890       ??_C@_01FBAH@1?$AA@        004f4890     nmalloc.obj
 0003:0001e894       ??_C@_0BO@CCHD@?4?4?2?4?4?2?4?4?2src?2tran?2nmcompact?4c?$AA@ 004f4894     nmcompact.obj
 0003:0001e8b4       ??_C@_0P@OANC@?$CBnmIsPIC?$CIcurr?$CJ?$AA@ 004f48b4     nmcompact.obj
 0003:0001e8c4       ??_C@_0BJ@MMOK@allPICTargetsValid?$CIcurr?$CJ?$AA@ 004f48c4     nmcompact.obj
 0003:0001e8e0       ??_C@_0BH@FFHP@nMethodOnNewList?$CIcurr?$CJ?$AA@ 004f48e0     nmcompact.obj
 0003:0001e8f8       ??_C@_0BA@BJNN@nMethodOK?$CIcurr?$CJ?$AA@ 004f48f8     nmcompact.obj
 0003:0001e908       ??_C@_0M@BHNO@picOK?$CIcurr?$CJ?$AA@ 004f4908     nmcompact.obj
 0003:0001e914       ??_C@_0BE@CJAC@?$CBrelocatingNMethods?$AA@ 004f4914     nmcompact.obj
 0003:0001e928       ??_C@_0N@HGMO@nMethodsOK?$CI?$CJ?$AA@ 004f4928     nmcompact.obj
 0003:0001e938       ??_C@_0ED@BDED@freeNMethods?$CIquantaInNZone?$CInmZon@ 004f4938     nmcompact.obj
 0003:0001e97c       ??_C@_0DC@IHLI@isNPCWithin?$CI?$CKretp?0nmeth?$CJ?5?$HM?$HM?5coul@ 004f497c     nmcompact.obj
 0003:0001e9b0       ??_C@_0CJ@PBMH@couldBeNMethod?$CInmeth?$CJ?5?$CG?$CG?5?$CBnmIsPI@ 004f49b0     nmcompact.obj
 0003:0001e9dc       ??_C@_0BB@CNNO@?$CBnmIsFree?$CInmeth?$CJ?$AA@ 004f49dc     nmcompact.obj
 0003:0001e9f0       ??_C@_0BA@KINA@?$CBnmIsFree?$CIcurr?$CJ?$AA@ 004f49f0     nmcompact.obj
 0003:0001ea00       ??_C@_0BB@NMJA@?$CIbase?$CJ?5?$CG?$CG?5?$CIhist?$CJ?$AA@ 004f4a00     nmcompact.obj
 0003:0001ea14       ??_C@_0DF@EGF@?$CBselector?5?$HM?$HM?5oopIsImm?$CIselector?$CJ?5@ 004f4a14     nmlookup.obj
 0003:0001ea4c       ??_C@_0BG@BMIK@couldBeNMethod?$CInmeth?$CJ?$AA@ 004f4a4c     nmlookup.obj
 0003:0001ea64       ??_C@_0BN@CFFM@?4?4?2?4?4?2?4?4?2src?2tran?2nmlookup?4c?$AA@ 004f4a64     nmlookup.obj
 0003:0001ea84       ??_C@_0BC@OPFJ@objHash?$CIselector?$CJ?$AA@ 004f4a84     nmlookup.obj
 0003:0001ea98       ??_C@_0BF@CBKP@?$CBnmIsUnlinked?$CInmeth?$CJ?$AA@ 004f4a98     nmlookup.obj
 0003:0001eab0       ??_C@_0BO@DBGM@?$CBnmIsUnlinked?$CIprobe2?9?$DOmethod?$CJ?$AA@ 004f4ab0     nmlookup.obj
 0003:0001ead0       ??_C@_0BN@JLDA@?$CBnmIsUnlinked?$CIprobe?9?$DOmethod?$CJ?$AA@ 004f4ad0     nmlookup.obj
 0003:0001eaf0       ??_C@_0BK@LPIH@mclass?5?$CB?$DN?5sysOop?$CInilOopX?$CJ?$AA@ 004f4af0     nmlookup.obj
 0003:0001eb0c       ??_C@_0FI@FAOB@lookupClass?5?$DN?$DN?5hybridBlockContex@ 004f4b0c     nmlookup.obj
 0003:0001eb64       ??_C@_0BA@KICI@probeIndex?5?$DO?$DN?51?$AA@ 004f4b64     nmlookup.obj
 0003:0001eb74       ??_C@_0BL@KIKH@probeIndex?5?$DM?5MAXCLASSDEPTH?$AA@ 004f4b74     nmlookup.obj
 0003:0001eb90       ??_C@_0L@KHOO@mCacheOK?$CI?$CJ?$AA@ 004f4b90     nmlookup.obj
 0003:0001eb9c       ??_C@_01KMMP@?$CJ?$AA@     004f4b9c     nmlookup.obj
 0003:0001eba0       ??_C@_01GFI@?$CI?$AA@      004f4ba0     nmlookup.obj
 0003:0001eba4       ??_C@_0BB@OHEC@?$DO?$DOunboundMethod?6?$AA@ 004f4ba4     nmlookup.obj
 0003:0001ebb8       ??_C@_06ELFD@?$FL?$FN?5in?5?$AA@ 004f4bb8     nmlookup.obj
 0003:0001ebc0       ??_C@_0BM@DPH@?4?4?2?4?4?2?4?4?2src?2tran?2taction?4c?$AA@ 004f4bc0     taction.obj
 0003:0001ebdc       ??_C@_0BK@BCLG@oldp?9?$DOtype?5?$CB?$DN?5acEndMethod?$AA@ 004f4bdc     taction.obj
 0003:0001ebf8       ??_C@_0DG@OIDN@dest?5?$DO?$DN?5tVInfo?4startVBytes?5?$CG?$CG?5de@ 004f4bf8     taction.obj
 0003:0001ec30       ??_C@_0BN@LFKB@Action?5table?5allocate?5failed?$AA@ 004f4c30     taction.obj
 0003:0001ec50       ??_C@_0BG@BLCG@Loop?5head?5stack?5error?$AA@ 004f4c50     taction.obj
 0003:0001ec68       ??_C@_0CD@LEHE@absdiff?$CInptr?0fixup?$CJ?5?$DM?$DN?5maxFixSho@ 004f4c68     taction.obj
 0003:0001ec8c       ??_C@_0EO@FOHG@firstTimeFlag?5?$HM?$HM?5nMethodAbortOff@ 004f4c8c     taux.obj
 0003:0001ecdc       ??_C@_0BJ@ICNL@?4?4?2?4?4?2?4?4?2src?2tran?2taux?4c?$AA@ 004f4cdc     taux.obj
 0003:0001ecf8       ??_C@_0BL@OLFC@?$CBgeneratingRuntimeRoutines?$AA@ 004f4cf8     taux.obj
 0003:0001ed14       ??_C@_0CD@MHOM@absdiff?$CIanptr?0nptr?$CJ?5?$DM?$DN?5maxFixSho@ 004f4d14     taux.obj
 0003:0001ed38       ??_C@_0BA@MAKI@?$CBtagBits?$CInmeth?$CJ?$AA@ 004f4d38     taux.obj
 0003:0001ed48       ??_C@_0CO@DIOI@firstTimeFlag?5?$HM?$HM?5nMethodEntryNoC@ 004f4d48     taux.obj
 0003:0001ed78       ??_C@_0CG@CMFG@absdiff?$CInptr?0mnptrnlc?$CJ?5?$DM?$DN?5maxFix@ 004f4d78     taux.obj
 0003:0001eda0       ??_C@_0DD@CBMJ@firstTimeFlag?5?$HM?$HM?5nMethodEntryNon@ 004f4da0     taux.obj
 0003:0001edd4       ??_C@_0O@CLPD@cnptr?5?$DO?$DN?5nptr?$AA@ 004f4dd4     taux.obj
 0003:0001ede4       ??_C@_0CD@NIGC@absdiff?$CImnptr?0nptr?$CJ?5?$DM?$DN?5maxFixSho@ 004f4de4     taux.obj
 0003:0001ee08       ??_C@_0CA@OKPK@vinfo?9?$DOtagsForMClass?5?$DN?$DN?5charTag?$AA@ 004f4e08     taux.obj
 0003:0001ee28       ??_C@_0CH@LHEE@firstTimeFlag?5?$HM?$HM?5nMethodEntry?5?$DN?$DN@ 004f4e28     taux.obj
 0003:0001ee50       ??_C@_0DL@ELGG@firstTimeFlag?5?$HM?$HM?5nMethodAbortSen@ 004f4e50     taux.obj
 0003:0001ee8c       ??_C@_0DF@LGH@firstTimeFlag?5?$HM?$HM?5nMethodAbortSen@ 004f4e8c     taux.obj
 0003:0001eec4       ??_C@_0DA@DEPH@firstTimeFlag?5?$HM?$HM?5nMethodBlockGlu@ 004f4ec4     taux.obj
 0003:0001eef4       ??_C@_0CM@FKHF@firstTimeFlag?5?$HM?$HM?5nMethodBlockEnt@ 004f4ef4     taux.obj
 0003:0001ef20       ??_C@_0BC@CJGK@__aligned?5?$DN?$DN?5nptr?$AA@ 004f4f20     taux.obj
 0003:0001ef34       ??_C@_0DD@JGHI@firstTimeFlag?5?$HM?$HM?5nMethodCannotRe@ 004f4f34     taux.obj
 0003:0001ef68       ??_C@_0BG@CIDH@vinfo?9?$DOframeSize?5?$DN?$DN?50?$AA@ 004f4f68     taux.obj
 0003:0001ef80       ??_C@_0DH@LNED@?$CK?$CIoopSized?5?$CK?$CJ?$CInmeth?5?$CL?51?$CJ?5?$DN?$DN?5save@ 004f4f80     taux.obj
 0003:0001efb8       ??_C@_0EC@ELF@?$CK?$CIoop?5?$CK?$CJ?$CInmeth?5?$CL?51?$CJ?5?$DN?$DN?5nonOop?5?$HM?$HM@ 004f4fb8     taux.obj
 0003:0001effc       ??_C@_0CG@PPBC@This?5primitive?5type?5is?5not?5recog@ 004f4ffc     taux.obj
 0003:0001f024       ??_C@_0CC@HLPG@absdiff?$CInptr?0pfix?$CJ?5?$DM?$DN?5maxFixShor@ 004f5024     taux.obj
 0003:0001f048       ??_C@_0P@HEOO@nptr?5?$DM?$DN?5endptr?$AA@ 004f5048     tcgencode.obj
 0003:0001f058       ??_C@_0BM@MNFL@?4?4?2?4?4?2?4?4?2src?2tran?2cgen386?4h?$AA@ 004f5058     tcgencode.obj
 0003:0001f074       ??_C@_0CO@NBOE@nzone?5initialization?5phase?5error@ 004f5074     tcgencode.obj
 0003:0001f0a4       ??_C@_0CJ@LJIM@?$CIquantum?5?$CK?$CJnptr?5?9?5basePtr?5?$DN?$DN?5NCP@ 004f50a4     tcgencode.obj
 0003:0001f0d0       ??_C@_0CA@IBD@freg?5?$DN?$DN?5fTemp?5?$HM?$HM?5freg?5?$DN?$DN?5fTemp2?$AA@ 004f50d0     tcgencode.obj
 0003:0001f0f0       ??_C@_0BN@JNLO@?4?4?2?4?4?2?4?4?2src?2tran?2float386?4h?$AA@ 004f50f0     tcgencode.obj
 0003:0001f110       ??_C@_0L@NIEN@notBoolean?$AA@ 004f5110     tcodes.obj
 0003:0001f11c       ??_C@_0CC@MNFO@absdiff?$CInptr?0fix2?$CJ?5?$DM?$DN?5maxFixShor@ 004f511c     tcodes.obj
 0003:0001f140       ??_C@_0BH@OGHK@?$CKatypep?5?$DN?$DN?5acBeginElse?$AA@ 004f5140     tcodes.obj
 0003:0001f158       ??_C@_0BL@NHNM@?4?4?2?4?4?2?4?4?2src?2tran?2tcodes?4c?$AA@ 004f5158     tcodes.obj
 0003:0001f174       ??_C@_0P@MBKC@Unknown?5action?$AA@ 004f5174     tloop.obj
 0003:0001f184       ??_C@_0DH@KADP@superLookupClassLoadOffset?5?$DN?$DN?5lo@ 004f5184     tloop.obj
 0003:0001f1bc       ??_C@_0BK@EJMH@Send?5to?5non?9literal?5super?$AA@ 004f51bc     tloop.obj
 0003:0001f1d8       ??_C@_0BN@LPPA@Bad?5dest?5type?5for?5temp?5store?$AA@ 004f51d8     tloop.obj
 0003:0001f1f8       ??_C@_0CM@PFC@vinfo?9?$DOframeSize?5?$DO?50?5?$HM?$HM?5?$CIvcur?$CJ?5?$DM@ 004f51f8     tloop.obj
 0003:0001f224       ??_C@_0DN@FPJE@vinfo?9?$DOframeSize?5?$DO?50?5?$HM?$HM?5?$CIvcur?5?9?5@ 004f5224     tloop.obj
 0003:0001f264       ??_C@_0DK@CIIA@vinfo?9?$DOframeSize?5?$DO?50?5?$HM?$HM?5?$CIvcur?5?9?5@ 004f5264     tloop.obj
 0003:0001f2a0       ??_C@_0CG@DMPO@absdiff?$CInptr?0ap?9?$DOnptr?$CJ?5?$DM?$DN?5maxFix@ 004f52a0     tloop.obj
 0003:0001f2c8       ??_C@_0CK@HLGJ@avdest?5?$DN?$DN?5actNext?9?$DOdest?5?$CG?$CG?5vptr?5@ 004f52c8     tloop.obj
 0003:0001f2f4       ??_C@_0BJ@DBAB@vptr?5?$DM?$DN?5tVInfo?4endVBytes?$AA@ 004f52f4     tloop.obj
 0003:0001f310       ??_C@_0BE@KDMJ@nptr?5?$DM?5?$CInOp?5?$CK?$CJnmEnd?$AA@ 004f5310     tloop.obj
 0003:0001f324       ??_C@_0BK@LGGD@?4?4?2?4?4?2?4?4?2src?2tran?2tloop?4c?$AA@ 004f5324     tloop.obj
 0003:0001f340       ??_C@_0CE@MDID@minStoreInstCode?5?$DM?5maxStoreInstC@ 004f5340     tloadstore.obj
 0003:0001f364       ??_C@_0CN@EKG@storeInstCode?$FL0?$FN?5?$DM?5storeInstCode@ 004f5364     tloadstore.obj
 0003:0001f394       ??_C@_0BP@PBLH@?4?4?2?4?4?2?4?4?2src?2tran?2tloadstore?4c?$AA@ 004f5394     tloadstore.obj
 0003:0001f3b4       ??_C@_0P@JPAD@store?5inst?5var?$AA@ 004f53b4     tloadstore.obj
 0003:0001f3c4       ??_C@_0BB@ONIE@store?5inst?5var?5N?$AA@ 004f53c4     tloadstore.obj
 0003:0001f3d8       ??_C@_0CE@KCKD@absdiff?$CInptr?0fixImm?$CJ?5?$DM?$DN?5maxFixSh@ 004f53d8     tloadstore.obj
 0003:0001f3fc       ??_C@_09KIMP@tLoadInst?$AA@ 004f53fc     tloadstore.obj
 0003:0001f408       ??_C@_0BH@NGIE@?$CBtVInfo?4couldBeContext?$AA@ 004f5408     tloadstore.obj
 0003:0001f420       ??_C@_0CE@PMDK@absdiff?$CInptr?0fixNew?$CJ?5?$DM?$DN?5maxFixSh@ 004f5420     tloadstore.obj
 0003:0001f444       ??_C@_0CF@PNOM@absdiff?$CInptr?0fixImm2?$CJ?5?$DM?$DN?5maxFixS@ 004f5444     tloadstore.obj
 0003:0001f46c       ??_C@_0CF@OBIO@absdiff?$CInptr?0fixImm1?$CJ?5?$DM?$DN?5maxFixS@ 004f546c     tloadstore.obj
 0003:0001f494       ??_C@_0BF@LEHB@tVInfo?4frameSize?5?$DO?50?$AA@ 004f5494     tloadstore.obj
 0003:0001f4ac       ??_C@_0CO@KFMH@absdiff?$CInptr?0fixNewIntoNonNew?$CJ?5?$DM@ 004f54ac     tloadstore.obj
 0003:0001f4dc       ??_C@_0CB@BAAN@absdiff?$CInptr?0fix?$CJ?5?$DM?$DN?5maxFixShort@ 004f54dc     tloadstore.obj
 0003:0001f500       ??_C@_0BB@LHLD@rFlags?5?$CB?$DN?5bSpace?$AA@ 004f5500     tloadstore.obj
 0003:0001f514       ??_C@_03JEBB@bSP?$AA@      004f5514     tmain.obj
 0003:0001f518       ??_C@_06DLKF@bFrame?$AA@   004f5518     tmain.obj
 0003:0001f520       ??_C@_04DAGJ@bAux?$AA@     004f5520     tmain.obj
 0003:0001f528       ??_C@_0L@DGLJ@bPrimEntry?$AA@ 004f5528     tmain.obj
 0003:0001f534       ??_C@_05HHOD@bInst?$AA@    004f5534     tmain.obj
 0003:0001f53c       ??_C@_05NMJI@bTemp?$AA@    004f553c     tmain.obj
 0003:0001f544       ??_C@_08MPJE@rNumArgs?$AA@ 004f5544     tmain.obj
 0003:0001f550       ??_C@_06BPEK@rClass?$AA@   004f5550     tmain.obj
 0003:0001f558       ??_C@_07KLOE@rResult?$AA@  004f5558     tmain.obj
 0003:0001f560       ??_C@_09NFP@rReceiver?$AA@ 004f5560     tmain.obj
 0003:0001f56c       ??_C@_05NOMN@rTemp?$AA@    004f556c     tmain.obj
 0003:0001f574       ??_C@_0GN@DBML@mapPrimitiveReturn?$CInmeth?$CJ?5?$DN?$DN?5?$CIpr@ 004f5574     tmain.obj
 0003:0001f5e4       ??_C@_0BF@JMGL@Overran?5working?5area?$AA@ 004f55e4     tmain.obj
 0003:0001f5fc       ??_C@_0FA@NCGP@?$CBnmIsBlock?$CInmeth?$CJ?5?$CG?$CG?5?$CBnmHasPrim?$CI@ 004f55fc     tmain.obj
 0003:0001f64c       ??_C@_0BK@GAHC@?4?4?2?4?4?2?4?4?2src?2tran?2tmain?4c?$AA@ 004f564c     tmain.obj
 0003:0001f668       ??_C@_0BP@HLGH@?6?9?9?9?9?9?9?5Translating?5?$CFs?5?9?9?9?9?9?9?6?$AA@ 004f5668     tmain.obj
 0003:0001f688       ??_C@_0CG@KEBM@nptr?5?$DM?$DN?5?$CInOp?5?$CK?$CJ?$CI?$CIchar?5?$CK?$CJcode?5?$CL?5c@ 004f5688     tmain.obj
 0003:0001f6b0       ??_C@_0O@GKHM@CompactedCode?$AA@ 004f56b0     tmain.obj
 0003:0001f6c0       ??_C@_09DAEF@OtherCode?$AA@ 004f56c0     tmain.obj
 0003:0001f6cc       ??_C@_0BJ@CMNA@nptr?5?$DN?$DN?5alignToNMA?$CInptr?$CJ?$AA@ 004f56cc     tmain.obj
 0003:0001f6e8       ??_C@_0BO@JOEB@nptr?5?$DM?$DN?5?$CGcodebuf?$FLCODE_BUFSIZ?$FN?$AA@ 004f56e8     tmain.obj
 0003:0001f708       ??_C@_0CA@OELM@OE_PROFILE?5nzone?5table?5overflow?$AA@ 004f5708     tmain.obj
 0003:0001f728       ??_C@_04MOFI@?$CFs?$CFd?$AA@ 004f5728     tmain.obj
 0003:0001f730       ??_C@_0O@EAHB@argcount?5?$DN?$DN?51?$AA@ 004f5730     tmain.obj
 0003:0001f740       ??_C@_0BK@GAOH@?$CBobjHasPtrs?$CIvmeth?9?$DObytes?$CJ?$AA@ 004f5740     tmain.obj
 0003:0001f75c       ??_C@_0BH@LGDA@vpc?5?$DM?$DN?5?$CInumVBytes?5?$CL?52?$CJ?$AA@ 004f575c     tmain.obj
 0003:0001f774       ??_C@_0N@HMDH@?5?5?5vPC?5?$DN?5?$CFd?6?$AA@ 004f5774     tmain.obj
 0003:0001f784       ??_C@_0BP@KEKH@?6Translator?5problem?5?$CFs?5?$CFd?3?5?$CFs?6?$AA@ 004f5784     tmain.obj
 0003:0001f7a4       ??_C@_03NBGP@?5?$CFx?$AA@  004f57a4     tmain.obj
 0003:0001f7a8       ??_C@_0M@MAPN@?6nbytes?$DN?$CFd?6?$AA@ 004f57a8     tmain.obj
 0003:0001f7b4       ??_C@_04GIDK@?5?$CFlx?$AA@ 004f57b4     tmain.obj
 0003:0001f7bc       ??_C@_0M@PODK@numLits?$DN?$CFd?6?$AA@ 004f57bc     tmain.obj
 0003:0001f7c8       ??_C@_0CJ@BFMO@?5?5numArgs?$DN?$CFd?5?5numTemps?$DN?$CFd?5?5frame@ 004f57c8     tmain.obj
 0003:0001f7f4       ??_C@_0M@ED@?5?5bytes?$DN?$CFlx?$AA@ 004f57f4     tmain.obj
 0003:0001f800       ??_C@_08BNGJ@?5?9?9?9?9?9?9?6?$AA@ 004f5800     tmain.obj
 0003:0001f80c       ??_C@_0BC@CMJB@?5?$FLfor?5PC?5mapping?$FN?$AA@ 004f580c     tmain.obj
 0003:0001f820       ??_C@_06DBMK@?1?$CFlx?5?$CI?$AA@ 004f5820     tmain.obj
 0003:0001f828       ??_C@_0BH@BGGK@?$CBobjHasPtrs?$CItSelector?$CJ?$AA@ 004f5828     tmain.obj
 0003:0001f840       ??_C@_0BI@ELEF@?6?9?9?9?9?9?9?5Translating?5?$CFlx?$AA@ 004f5840     tmain.obj
 0003:0001f858       ??_C@_08NMBG@PC?5map?3?6?$AA@ 004f5858     tmain.obj
 0003:0001f864       ??_C@_0BB@CCOG@Return?3?5?50x?$CF06x?6?$AA@ 004f5864     tmain.obj
 0003:0001f878       ??_C@_0BG@IJCN@Return?3?5?5?$CFs?5?$CI0x?$CF06x?$CJ?6?$AA@ 004f5878     tmain.obj
 0003:0001f890       ??_C@_0BB@DAEJ@Restart?3?50x?$CF06x?6?$AA@ 004f5890     tmain.obj
 0003:0001f8a4       ??_C@_0BG@NIBD@Restart?3?5?$CFs?5?$CI0x?$CF06x?$CJ?6?$AA@ 004f58a4     tmain.obj
 0003:0001f8bc       ??_C@_02FLIJ@?7?$CB?$AA@   004f58bc     tmain.obj
 0003:0001f8c0       ??_C@_06LNBK@_?$CFlx?3?7?$AA@ 004f58c0     tmain.obj
 0003:0001f8c8       ??_C@_04NDKD@?$CFs?3?7?$AA@ 004f58c8     tmain.obj
 0003:0001f8d0       ??_C@_0BF@NMGE@?3?7?4word?50x?$CF04x?$CI?$CFs?$CJ?7?$CB?$AA@ 004f58d0     tmain.obj
 0003:0001f8e8       ??_C@_0CD@EDDO@?$CFs?3?7?4word?50x?$CF04x?$CIoffset?5from?5nm?$CJ@ 004f58e8     tmain.obj
 0003:0001f90c       ??_C@_04CMBK@?$CFs?3?6?$AA@ 004f590c     tmain.obj
 0003:0001f914       ??_C@_08HHKJ@vpc?5?$CFd?3?6?$AA@ 004f5914     tmain.obj
 0003:0001f920       ??_C@_0O@OGOK@?$CFs?5?$CIvpc?5?$CFd?$CJ?3?6?$AA@ 004f5920     tmain.obj
 0003:0001f930       ??_C@_01FCOA@?5?$AA@       004f5930     tmain.obj
 0003:0001f934       ??_C@_04BOHM@map?3?$AA@    004f5934     tmain.obj
 0003:0001f93c       ??_C@_0N@HHBC@abort?5return?$AA@ 004f593c     tmain.obj
 0003:0001f94c       ??_C@_0BE@LEAF@abort?5offset?5offset?$AA@ 004f594c     tmain.obj
 0003:0001f960       ??_C@_0BE@MIBJ@cannot?9resume?5entry?$AA@ 004f5960     tmain.obj
 0003:0001f974       ??_C@_0M@GJLM@prim?5return?$AA@ 004f5974     tmain.obj
 0003:0001f980       ??_C@_0N@DMML@prim?5restart?$AA@ 004f5980     tmain.obj
 0003:0001f990       ??_C@_0P@DHMA@no?9check?5entry?$AA@ 004f5990     tmain.obj
 0003:0001f9a0       ??_C@_0O@EDNJ@non?9imm?5entry?$AA@ 004f59a0     tmain.obj
 0003:0001f9b0       ??_C@_0BH@CBB@abort?5send?5miss?5return?$AA@ 004f59b0     tmain.obj
 0003:0001f9c8       ??_C@_0L@MECE@glue?5entry?$AA@ 004f59c8     tmain.obj
 0003:0001f9d4       ??_C@_05BAMO@entry?$AA@    004f59d4     tmain.obj
 0003:0001f9dc       ??_C@_06DCAO@?5?$CF02lx?$AA@ 004f59dc     tmain.obj
 0003:0001f9e4       ??_C@_06FIEM@rArg?$CFd?$AA@ 004f59e4     tmain.obj
 0003:0001f9ec       ??_C@_04BDPC@_?$CFlx?$AA@  004f59ec     tmain.obj
 0003:0001f9f4       ??_C@_08NEED@nm?$EA?$CF03lx?$AA@ 004f59f4     tmain.obj
 0003:0001fa00       ??_C@_0FD@DFKH@absdiff?$CI?$CIq8?5?$CK?$CJ?$CI?$CImachinePC?$CJnmeth?5@ 004f5a00     tmaprt.obj
 0003:0001fa54       ??_C@_0BB@BMGP@nMethodOK?$CInmeth?$CJ?$AA@ 004f5a54     tmaprt.obj
 0003:0001fa68       ??_C@_0BC@IIDM@?$CBnmIsBlock?$CInmeth?$CJ?$AA@ 004f5a68     tmaprt.obj
 0003:0001fa7c       ??_C@_0BL@HPD@?4?4?2?4?4?2?4?4?2src?2tran?2tmaprt?4c?$AA@ 004f5a7c     tmaprt.obj
 0003:0001fa98       ??_C@_0EI@ILIO@nMethodOK?$CI?$CInMethod?5?$CK?$CJ?$CI?$CImachinePC@ 004f5a98     tmaprt.obj
 0003:0001fae0       ??_C@_0EI@PEGJ@isNMethod?$CI?$CInMethod?5?$CK?$CJ?$CI?$CImachinePC@ 004f5ae0     tmaprt.obj
 0003:0001fb28       ??_C@_0CJ@DKIK@nMethodOK?$CIframeMethod?$CIcurrentSta@ 004f5b28     tmaprt.obj
 0003:0001fb54       ??_C@_0BJ@HBPH@probablyObj?$CIlookupClass?$CJ?$AA@ 004f5b54     tmaprt.obj
 0003:0001fb70       ??_C@_0BE@HEDN@probablyObj?$CImclass?$CJ?$AA@ 004f5b70     tmaprt.obj
 0003:0001fb84       ??_C@_0CJ@BNO@nmIsPIC?$CIsendTarget?$CJ?5?$HM?$HM?5sendTarge@ 004f5b84     tmaprt.obj
 0003:0001fbb0       ??_C@_0BG@ODFE@isNMethod?$CIsendTarget?$CJ?$AA@ 004f5bb0     tmaprt.obj
 0003:0001fbc8       ??_C@_0GB@CEEJ@mapDataForNpc?$CIframeMethod?$CIcurren@ 004f5bc8     tmaprt.obj
 0003:0001fc2c       ??_C@_0BN@LDON@probablyOop?$CInmSelector?$CIcnm?$CJ?$CJ?$AA@ 004f5c2c     tmaprt.obj
 0003:0001fc4c       ??_C@_0BC@KGBO@nmIsUnlinked?$CIcnm?$CJ?$AA@ 004f5c4c     tmaprt.obj
 0003:0001fc60       ??_C@_0P@KFHO@isNMethod?$CIcnm?$CJ?$AA@ 004f5c60     tmaprt.obj
 0003:0001fc70       ??_C@_0BC@OFAI@?$CBnmIsFree?$CInmdest?$CJ?$AA@ 004f5c70     tmaprt.obj
 0003:0001fc84       ??_C@_0CK@COBI@getSendCallee?$CI0x?$CFlx?$CJ?5?$DN?50x?$CFlx?$DL?5wa@ 004f5c84     tmaprt.obj
 0003:0001fcb0       ??_C@_0CD@FOGP@getSendCallee?$CIretaddr?$CJ?5?$DN?$DN?5callad@ 004f5cb0     tmaprt.obj
 0003:0001fcd4       ??_C@_0FK@LEKA@nmIsOpenPIC?$CInpic?$CJ?5?$HM?$HM?5entryPoint?5@ 004f5cd4     tmaprt.obj
 0003:0001fd30       ??_C@_0BB@NGKN@isNMethod?$CInmeth?$CJ?$AA@ 004f5d30     tmaprt.obj
 0003:0001fd44       ??_C@_0DD@ENEA@nptr?5?$CFlx?5sel?5?$CFlx?5actual?5?$CFlx?5targ@ 004f5d44     tmaprt.obj
 0003:0001fd78       ??_C@_0CA@MPHL@nptr?5?$CFlx?5target?5?$CFlx?5actual?5?$CFlx?6?$AA@ 004f5d78     tmaprt.obj
 0003:0001fd98       ??_C@_0BB@LDCJ@?7bad?5oop?3?50x?$CFlx?6?$AA@ 004f5d98     tmaprt.obj
 0003:0001fdac       ??_C@_0BE@JDCF@?7bad?5target?3?50x?$CFlx?6?$AA@ 004f5dac     tmaprt.obj
 0003:0001fdc0       ??_C@_0BH@FGLG@?7bad?5cache?5tag?3?50x?$CFlx?6?$AA@ 004f5dc0     tmaprt.obj
 0003:0001fdd8       ??_C@_0CC@JAMH@nmeth?50x?$CFlx?5npc?50x?$CFlx?5nptr?50x?$CFlx@ 004f5dd8     tmaprt.obj
 0003:0001fdfc       ??_C@_0O@BLGA@no?5bad?5nmeth?6?$AA@ 004f5dfc     tmaprt.obj
 0003:0001fe0c       ??_C@_0CI@HLEM@nMethodForPC?$CIpc?$CJ?5?$DN?$DN?5nm?5?$CG?$CG?5?$CBnmIsF@ 004f5e0c     tmaprt.obj
 0003:0001fe34       ??_C@_0FD@IJNK@?$CInm?5?$DN?5nMethodForPC?$CIpc?$CJ?$CJ?5?$CG?$CG?5pc?5?$CL?5@ 004f5e34     tmaprt.obj
 0003:0001fe88       ??_C@_0BG@CKKA@couldBeNonGlueNPC?$CIpc?$CJ?$AA@ 004f5e88     tmaprt.obj
 0003:0001fea0       ??_C@_05IFNH@0x?$CFx?$DP?$AA@ 004f5ea0     tmaprt.obj
 0003:0001fea8       ??_C@_08PBIM@0x?$CFx?3?5?$CFs?$AA@ 004f5ea8     tmaprt.obj
 0003:0001feb4       ??_C@_08CBA@loc?9prog?$AA@ 004f5eb4     tmaprt.obj
 0003:0001fec0       ??_C@_08GAPF@rel?9call?$AA@ 004f5ec0     tmaprt.obj
 0003:0001fecc       ??_C@_07IOKF@new?9sel?$AA@ 004f5ecc     tmaprt.obj
 0003:0001fed4       ??_C@_07JDCN@new?9lit?$AA@ 004f5ed4     tmaprt.obj
 0003:0001fedc       ??_C@_03DNBD@end?$AA@      004f5edc     tmaprt.obj
 0003:0001fee0       ??_C@_04PJAD@send?$AA@     004f5ee0     tmaprt.obj
 0003:0001fee8       ??_C@_05MOGF@delta?$AA@    004f5ee8     tmaprt.obj
 0003:0001fef0       ??_C@_0O@FDMI@non?9imm?9send1?$AA@ 004f5ef0     tmaprt.obj
 0003:0001ff00       ??_C@_0O@PJFP@non?9imm?9send0?$AA@ 004f5f00     tmaprt.obj
 0003:0001ff10       ??_C@_05GOPO@send1?$AA@    004f5f10     tmaprt.obj
 0003:0001ff18       ??_C@_0N@IFKD@0x?$CFx?3?5?$CFs?$CI?$CFd?$CJ?$AA@ 004f5f18     tmaprt.obj
 0003:0001ff28       ??_C@_05MEGJ@send0?$AA@    004f5f28     tmaprt.obj
 0003:0001ff30       ??_C@_06OMHN@unused?$AA@   004f5f30     tmaprt.obj
 0003:0001ff38       ??_C@_06JIDE@?5?$CD?$CF?4?$CKs?$AA@ 004f5f38     tmaprt.obj
 0003:0001ff40       ??_C@_0BJ@FGAE@iMapEnd?5?$HM?$HM?5firstTimeFlag?$AA@ 004f5f40     tmaptran.obj
 0003:0001ff5c       ??_C@_0CK@ECGO@canDecodeSend?$CI?$CImachinePC?$CJnptr?0se@ 004f5f5c     tmaptran.obj
 0003:0001ff88       ??_C@_0BN@LCGJ@?4?4?2?4?4?2?4?4?2src?2tran?2tmaptran?4c?$AA@ 004f5f88     tmaptran.obj
 0003:0001ffa8       ??_C@_0BN@EFDK@canDecodeCall?$CIcallPC?0target?$CJ?$AA@ 004f5fa8     tmaptran.obj
 0003:0001ffc8       ??_C@_0CN@POAC@fetchLiteralOperandFunc?$CInptr?0?5of@ 004f5fc8     tmaptran.obj
 0003:0001fff8       ??_C@_0CE@OICA@?$CIprofile_text_lopc?$CJ?5?$CG?$CG?5?$CIengineDa@ 004f5ff8     tnmprim.obj
 0003:0002001c       ??_C@_0CE@OEBF@?$CIprofile_nzone_lopc?$CJ?5?$CG?$CG?5?$CInzoneDa@ 004f601c     tnmprim.obj
 0003:00020040       ??_C@_0BM@LFNN@?4?4?2?4?4?2?4?4?2src?2tran?2tnmprim?4c?$AA@ 004f6040     tnmprim.obj
 0003:0002005c       ??_C@_0BG@PJO@collectingProfileData?$AA@ 004f605c     tnmprim.obj
 0003:00020074       ??_C@_0GG@CMNH@oepBinForNZonePC?$CIprofile_nzone_h@ 004f6074     tnmprim.obj
 0003:000200dc       ??_C@_0GG@NDFN@oepBinForTextPC?$CIprofile_text_hip@ 004f60dc     tnmprim.obj
 0003:00020144       ??_C@_0BK@IABE@?$CBobjHasPtrs?$CInzoneDataOop?$CJ?$AA@ 004f6144     tnmprim.obj
 0003:00020160       ??_C@_0BL@NHBA@?$CBobjHasPtrs?$CIengineDataOop?$CJ?$AA@ 004f6160     tnmprim.obj
 0003:0002017c       ??_C@_0EL@EKOM@?$CIresult?$CJ?5?$DN?$DN?5nonOop?5?$HM?$HM?5objDataSiz@ 004f617c     tnmprim.obj
 0003:000201c8       ??_C@_09CNAK@?4NZoneEnd?$AA@ 004f61c8     tnmprim.obj
 0003:000201d4       ??_C@_0M@NENB@?4NMethodEnd?$AA@ 004f61d4     tnmprim.obj
 0003:000201e0       ??_C@_06GOOI@?4NZone?$AA@  004f61e0     tnmprim.obj
 0003:000201e8       ??_C@_0CH@LIHE@?$CBoopIsImm?$CInzh?$CJ?5?$CG?$CG?5?$CBobjIsNewAsser@ 004f61e8     tnmprim.obj
 0003:00020210       ??_C@_0CH@BHKE@?$CBoopIsImm?$CInzl?$CJ?5?$CG?$CG?5?$CBobjIsNewAsser@ 004f6210     tnmprim.obj
 0003:00020238       ??_C@_0CH@KGLP@?$CBoopIsImm?$CIpth?$CJ?5?$CG?$CG?5?$CBobjIsNewAsser@ 004f6238     tnmprim.obj
 0003:00020260       ??_C@_0CH@JGP@?$CBoopIsImm?$CIptl?$CJ?5?$CG?$CG?5?$CBobjIsNewAsser@ 004f6260     tnmprim.obj
 0003:00020288       ??_C@_0CI@DJKP@profile_other_area?5?$DM?5profile_nzo@ 004f6288     tnmprim.obj
 0003:000202b0       ??_C@_0CN@CBHC@profile_compaction_area?5?$DM?5profil@ 004f62b0     tnmprim.obj
 0003:000202e0       ??_C@_0CN@MHDL@profile_nzone_lopc?5?$DM?5profile_com@ 004f62e0     tnmprim.obj
 0003:00020310       ??_C@_0CH@OBLE@profile_text_hipc?5?$DM?5profile_nzon@ 004f6310     tnmprim.obj
 0003:00020338       ??_C@_0CG@OLFL@profile_text_lopc?5?$DM?5profile_text@ 004f6338     tnmprim.obj
 0003:00020360       ??_C@_0CL@DALO@rp?5?9?5objDataPtr?$CIresult?0?5oop?$CJ?5?$DN?$DN?5@ 004f6360     tnmprim.obj
 0003:0002038c       ??_C@_0M@JNMH@OpenPICSize?$AA@ 004f638c     tnmprim.obj
 0003:00020398       ??_C@_0O@DKJA@ClosedPICSize?$AA@ 004f6398     tnmprim.obj
 0003:000203a8       ??_C@_0BF@PCGB@PICFirstTargetOffset?$AA@ 004f63a8     tnmprim.obj
 0003:000203c0       ??_C@_0BA@BGF@PICTypeCaseSize?$AA@ 004f63c0     tnmprim.obj
 0003:000203d0       ??_C@_0BC@DJPO@primitiveJumpSize?$AA@ 004f63d0     tnmprim.obj
 0003:000203e4       ??_C@_0BC@CM@cannotResumeEntry?$AA@ 004f63e4     tnmprim.obj
 0003:000203f8       ??_C@_0BK@CIFD@abortSendMissReturnOffset?$AA@ 004f63f8     tnmprim.obj
 0003:00020414       ??_C@_0P@NHKJ@blockGlueEntry?$AA@ 004f6414     tnmprim.obj
 0003:00020424       ??_C@_0L@LPBA@blockEntry?$AA@ 004f6424     tnmprim.obj
 0003:00020430       ??_C@_09PKED@glueEntry?$AA@ 004f6430     tnmprim.obj
 0003:0002043c       ??_C@_0N@KGGI@entryNoCheck?$AA@ 004f643c     tnmprim.obj
 0003:0002044c       ??_C@_0M@HHIJ@entryNonImm?$AA@ 004f644c     tnmprim.obj
 0003:00020458       ??_C@_0EE@BJJB@?$CIresult?$CJ?5?$DN?$DN?5nonOop?5?$HM?$HM?5objDataSiz@ 004f6458     tnmprim.obj
 0003:0002049c       ??_C@_08KKDN@nmdc?4txt?$AA@ 004f649c     tnmprim.obj
 0003:000204a8       ??_C@_03PDDH@wb?$CL?$AA@   004f64a8     tnmprim.obj
 0003:000204ac       ??_C@_0HK@KAFM@sizeof?$CItab?9?$DOnumArgs?$CJ?5?$DN?$DN?51?5?$CG?$CG?5?$CIty@ 004f64ac     tprim.obj
 0003:00020528       ??_C@_0CD@DHKB@Can?8t?5allocate?5primitive?5sub?9tab@ 004f6528     tprim.obj
 0003:0002054c       ??_C@_0KO@LCIO@index?5?$DM?$DN?565535?5?$CG?$CG?5?$CI?5type?5?$DN?$DN?5prim@ 004f654c     tprim.obj
 0003:000205fc       ??_C@_0BK@EAFA@?4?4?2?4?4?2?4?4?2src?2tran?2tprim?4c?$AA@ 004f65fc     tprim.obj
 0003:00020618       _tsInlineOnlyArithMaxIndex 004f6618     tspecial.obj
 0003:0002061c       _tsInlineAllMaxIndex       004f661c     tspecial.obj
 0003:00020620       ??_C@_0CF@OKKE@absdiff?$CInptr?0fixDone?$CJ?5?$DM?$DN?5maxFixS@ 004f6620     tspecial.obj
 0003:00020648       ??_C@_0L@FFMG@tAddSub?$CIc?$CJ?$AA@ 004f6648     tspecial.obj
 0003:00020654       ??_C@_0CC@NBDM@absdiff?$CInptr?0fix1?$CJ?5?$DM?$DN?5maxFixShor@ 004f6654     tspecial.obj
 0003:00020678       ??_C@_0BN@ELBL@?4?4?2?4?4?2?4?4?2src?2tran?2tspecial?4c?$AA@ 004f6678     tspecial.obj
 0003:00020698       ??_C@_0L@BCDK@tAddSub?$CIq?$CJ?$AA@ 004f6698     tspecial.obj
 0003:000206a4       ??_C@_0CC@NDIN@absdiff?$CInptr?0fixF?$CJ?5?$DM?$DN?5maxFixShor@ 004f66a4     tspecial.obj
 0003:000206c8       ??_C@_0CD@PPDH@absdiff?$CInptr?0fixT2?$CJ?5?$DM?$DN?5maxFixSho@ 004f66c8     tspecial.obj
 0003:000206ec       ??_C@_05NFOO@tReln?$AA@    004f66ec     tspecial.obj
 0003:000206f4       ??_C@_0CC@HJNC@absdiff?$CInptr?0fixT?$CJ?5?$DM?$DN?5maxFixShor@ 004f66f4     tspecial.obj
 0003:00020718       ??_C@_0BL@DJOG@?4?4?2?4?4?2?4?4?2src?2tran?2tstack?4c?$AA@ 004f6718     tstack.obj
 0003:00020734       ??_C@_0BH@OHOP@Bad?5type?5in?5tStackPush?$AA@ 004f6734     tstack.obj
 0003:0002074c       ??_C@_0BH@KBPM@Bad?5type?5in?5tStackLoad?$AA@ 004f674c     tstack.obj
 0003:00020764       ??_C@_0BL@BGFF@Bad?5type?5in?5tStackLoadBase?$AA@ 004f6764     tstack.obj
 0003:00020780       ??_C@_0BA@JJIC@?$CIbase?$CJ?5?$CB?$DN?5rTemp?$AA@ 004f6780     tstack.obj
 0003:00020790       ??_C@_0N@GCBD@reg?5?$CB?$DN?5rTemp?$AA@ 004f6790     tstack.obj
 0003:000207a0       ??_C@_0BO@JDGH@Bad?5type?5in?5tStackCompareBase?$AA@ 004f67a0     tstack.obj
 0003:000207c0       _hasTransFloatPrims        004f67c0     txarith.obj
 0003:000207c4       ??_C@_0BM@FEJP@?4?4?2?4?4?2?4?4?2src?2tran?2txarith?4c?$AA@ 004f67c4     txarith.obj
 0003:000207e0       ??_C@_0CC@DJHP@absdiff?$CInptr?0fix3?$CJ?5?$DM?$DN?5maxFixShor@ 004f67e0     txarith.obj
 0003:00020804       ??_C@_0CC@PFJK@absdiff?$CInptr?0fix4?$CJ?5?$DM?$DN?5maxFixShor@ 004f6804     txarith.obj
 0003:00020828       ??_C@_0CC@CHLD@absdiff?$CIfix2?0nptr?$CJ?5?$DM?$DN?5maxFixShor@ 004f6828     txarith.obj
 0003:0002084c       ??_C@_0CC@BNNJ@absdiff?$CInptr?0fix6?$CJ?5?$DM?$DN?5maxFixShor@ 004f684c     txarith.obj
 0003:00020870       ??_C@_0CC@CCEC@absdiff?$CIfix5?0nptr?$CJ?5?$DM?$DN?5maxFixShor@ 004f6870     txarith.obj
 0003:00020894       ??_C@_0CC@PNCD@absdiff?$CIfix3?0nptr?$CJ?5?$DM?$DN?5maxFixShor@ 004f6894     txarith.obj
 0003:000208b8       ??_C@_0CD@CJHL@absdiff?$CInptr?0fixf1?$CJ?5?$DM?$DN?5maxFixSho@ 004f68b8     txarith.obj
 0003:000208dc       ??_C@_0CF@GADE@absdiff?$CInptr?0fixv?$FL0?$FN?$CJ?5?$DM?$DN?5maxFixS@ 004f68dc     txarith.obj
 0003:00020904       ??_C@_0CF@HFMA@absdiff?$CInptr?0fixv?$FL1?$FN?$CJ?5?$DM?$DN?5maxFixS@ 004f6904     txarith.obj
 0003:0002092c       ??_C@_0CF@ELNM@absdiff?$CInptr?0fixv?$FL2?$FN?$CJ?5?$DM?$DN?5maxFixS@ 004f692c     txarith.obj
 0003:00020954       ??_C@_0CD@DFBJ@absdiff?$CInptr?0fixf2?$CJ?5?$DM?$DN?5maxFixSho@ 004f6954     txarith.obj
 0003:00020978       ??_C@_0CD@HCIC@absdiff?$CInptr?0ffix2?$CJ?5?$DM?$DN?5maxFixSho@ 004f6978     txarith.obj
 0003:0002099c       ??_C@_0CD@NNN@absdiff?$CInptr?0fixf4?$CJ?5?$DM?$DN?5maxFixSho@ 004f699c     txarith.obj
 0003:000209c0       ??_C@_0CC@BLL@absdiff?$CInptr?0fix5?$CJ?5?$DM?$DN?5maxFixShor@ 004f69c0     txarith.obj
 0003:000209e4       ??_C@_0BE@BBFC@abort?5send?5no?5frame?$AA@ 004f69e4     txcontrol.obj
 0003:000209f8       ??_C@_0BA@PIGM@abort?5prim?5fail?$AA@ 004f69f8     txcontrol.obj
 0003:00020a08       ??_C@_0L@IBMG@abort?5send?$AA@ 004f6a08     txcontrol.obj
 0003:00020a14       ??_C@_0BO@IOAC@?4?4?2?4?4?2?4?4?2src?2tran?2txcontrol?4c?$AA@ 004f6a14     txcontrol.obj
 0003:00020a34       ??_C@_0CO@OHJH@absdiff?$CIimmediateReentry?0nptr?$CJ?5?$DM@ 004f6a34     txcontrol.obj
 0003:00020a64       ??_C@_0CP@JBEP@absdiff?$CInptr?0immediateEntryFix?$CJ?5@ 004f6a64     txcontrol.obj
 0003:00020a94       ??_C@_0CB@JFFH@absdiff?$CInptr?0hit?$CJ?5?$DM?$DN?5maxFixShort@ 004f6a94     txcontrol.obj
 0003:00020ab8       ??_C@_0CE@OMOL@absdiff?$CInptr?0miss1s?$CJ?5?$DM?$DN?5maxFixSh@ 004f6ab8     txcontrol.obj
 0003:00020adc       ??_C@_0BA@PGPA@rClass?5?$CB?$DN?5rHash?$AA@ 004f6adc     txcontrol.obj
 0003:00020aec       ??_C@_0BD@GCBJ@rSelector?5?$CB?$DN?5rHash?$AA@ 004f6aec     txcontrol.obj
 0003:00020b00       ??_C@_0BL@HDNO@make?5copying?5block?51?5value?$AA@ 004f6b00     txmem.obj
 0003:00020b1c       ??_C@_0BK@PNNO@generatingRuntimeRoutines?$AA@ 004f6b1c     txmem.obj
 0003:00020b38       ??_C@_0BK@DBAM@?4?4?2?4?4?2?4?4?2src?2tran?2txmem?4c?$AA@ 004f6b38     txmem.obj
 0003:00020b54       ??_C@_0CD@BOPB@absdiff?$CInptr?0fixd2?$CJ?5?$DM?$DN?5maxFixSho@ 004f6b54     txmem.obj
 0003:00020b78       ??_C@_0CC@PINC@absdiff?$CIfix4?0nptr?$CJ?5?$DM?$DN?5maxFixShor@ 004f6b78     txmem.obj
 0003:00020b9c       ??_C@_0CC@IHDC@absdiff?$CInptr?0fixb?$CJ?5?$DM?$DN?5maxFixShor@ 004f6b9c     txmem.obj
 0003:00020bc0       ??_C@_0CD@CJD@absdiff?$CInptr?0fixd1?$CJ?5?$DM?$DN?5maxFixSho@ 004f6bc0     txmem.obj
 0003:00020be4       ??_C@_0CC@LPPG@absdiff?$CInptr?0fixd?$CJ?5?$DM?$DN?5maxFixShor@ 004f6be4     txmem.obj
 0003:00020c08       ??_C@_0CC@JLFA@absdiff?$CInptr?0fixa?$CJ?5?$DM?$DN?5maxFixShor@ 004f6c08     txmem.obj
 0003:00020c2c       ??_C@_0BA@LGJA@?$CBdef?9?$DOprimIndex?$AA@ 004f6c2c     txmem.obj
 0003:00020c3c       ??_C@_0BP@LAFE@threshold_refs?5table?5too?5small?$AA@ 004f6c3c     txmem.obj
 0003:00020c5c       ??_C@_0CC@KPCP@eden?4warningThreshold?5?$CB?$DN?5?$CIoop?5?$CK?$CJ@ 004f6c5c     txmem.obj
 0003:00020c80       ??_C@_0BG@JBKG@?$CIrsize?$CJ?5?$CB?$DN?5?$CIbScratch?$CJ?$AA@ 004f6c80     txmem.obj
 0003:00020c98       ??_C@_0BP@DHGF@bScratch?5?$CB?$DN?5bEdenAllocAndLimit?$AA@ 004f6c98     txmem.obj
 0003:00020cb8       ??_C@_0CB@KDME@?$CIrsize?5?$DO?$DN?50?$CJ?5?$CB?$DN?5?$CIfixedSize?5?$DO?$DN?50?$CJ@ 004f6cb8     txmem.obj
 0003:00020cdc       ??_C@_0CC@EIAD@absdiff?$CIfix1?0nptr?$CJ?5?$DM?$DN?5maxFixShor@ 004f6cdc     txmem.obj
 0003:00020d00       ??_C@_0CD@EBFO@absdiff?$CInptr?0?$CKfixp?$CJ?5?$DM?$DN?5maxFixSho@ 004f6d00     txprim.obj
 0003:00020d24       ??_C@_0BL@GAM@?4?4?2?4?4?2?4?4?2src?2tran?2txprim?4c?$AA@ 004f6d24     txprim.obj
 0003:00020d40       ??_C@_0CF@ICCO@absdiff?$CInptr?0fiximm2?$CJ?5?$DM?$DN?5maxFixS@ 004f6d40     txprim.obj
 0003:00020d68       ??_C@_0CF@JOEM@absdiff?$CInptr?0fiximm1?$CJ?5?$DM?$DN?5maxFixS@ 004f6d68     txprim.obj
 0003:00020d90       ??_C@_0CD@OGIA@absdiff?$CInptr?0fixh2?$CJ?5?$DM?$DN?5maxFixSho@ 004f6d90     txprim.obj
 0003:00020db4       ??_C@_0CD@JMCA@absdiff?$CIfixh1?0nptr?$CJ?5?$DM?$DN?5maxFixSho@ 004f6db4     txprim.obj
 0003:00020dd8       ??_C@_0CH@FCKL@absdiff?$CInptr?0fixnonimm?$CJ?5?$DM?$DN?5maxFi@ 004f6dd8     txprim.obj
 0003:00020e00       ??_C@_0CF@CCAC@absdiff?$CInptr?0charfix?$CJ?5?$DM?$DN?5maxFixS@ 004f6e00     txprim.obj
 0003:00020e28       ??_C@_0CD@BGGD@absdiff?$CInptr?0fixp2?$CJ?5?$DM?$DN?5maxFixSho@ 004f6e28     txsubscript.obj
 0003:00020e4c       ??_C@_0CD@KAB@absdiff?$CInptr?0fixp1?$CJ?5?$DM?$DN?5maxFixSho@ 004f6e4c     txsubscript.obj
 0003:00020e70       ??_C@_0CH@JDHG@absdiff?$CInptr?0fixIsBits?$CJ?5?$DM?$DN?5maxFi@ 004f6e70     txsubscript.obj
 0003:00020e98       ??_C@_0CA@IJFJ@?4?4?2?4?4?2?4?4?2src?2tran?2txsubscript?4c?$AA@ 004f6e98     txsubscript.obj
 0003:00020eb8       ??_C@_0CC@FHLF@absdiff?$CInptr?0fixf?$CJ?5?$DM?$DN?5maxFixShor@ 004f6eb8     txsubscript.obj
 0003:00020edc       ??_C@_0CD@DJKH@absdiff?$CIfailb?0nptr?$CJ?5?$DM?$DN?5maxFixSho@ 004f6edc     txsubscript.obj
 0003:00020f00       ??_C@_0CD@OCEC@absdiff?$CInptr?0fixp3?$CJ?5?$DM?$DN?5maxFixSho@ 004f6f00     txsubscript.obj
 0003:00020f24       ??_C@_0CL@FNGM@absdiff?$CInptr?0atPutFixes?$FL2?$FN?$CJ?5?$DM?$DN?5m@ 004f6f24     txsubscript.obj
 0003:00020f50       ??_C@_0CL@GDHA@absdiff?$CInptr?0atPutFixes?$FL1?$FN?$CJ?5?$DM?$DN?5m@ 004f6f50     txsubscript.obj
 0003:00020f7c       ??_C@_0CL@HGIE@absdiff?$CInptr?0atPutFixes?$FL0?$FN?$CJ?5?$DM?$DN?5m@ 004f6f7c     txsubscript.obj
 0003:00020fa8       ??_C@_0CN@LDGM@absdiff?$CInptr?0fixNotIndexable?$CJ?5?$DM?$DN@ 004f6fa8     txsubscript.obj
 0003:00020fd8       ??_C@_0CF@EFNJ@absdiff?$CInptr?0fixb?$FL1?$FN?$CJ?5?$DM?$DN?5maxFixS@ 004f6fd8     txsubscript.obj
 0003:00021000       ??_C@_0CF@FACN@absdiff?$CInptr?0fixb?$FL0?$FN?$CJ?5?$DM?$DN?5maxFixS@ 004f7000     txsubscript.obj
 0003:00021028       ??_C@_0CD@CIJB@absdiff?$CInptr?0fix1a?$CJ?5?$DM?$DN?5maxFixSho@ 004f7028     txsubscript.obj
 0003:0002104c       ??_C@_0O@LEFK@breg?5?$CB?$DN?5bTemp?$AA@ 004f704c     txsubscript.obj
 0003:0002105c       ??_C@_0CF@FOCI@absdiff?$CInptr?0fixv?$FL3?$FN?$CJ?5?$DM?$DN?5maxFixS@ 004f705c     txsubscript.obj
 0003:00021084       ??_C@_0CJ@GNDC@target?5?$DN?$DN?5expected?5?$CL?5nMethodEntr@ 004f7084     tpic.obj
 0003:000210b0       ??_C@_0DM@HEDF@target?5?$DN?$DN?5?$CImachinePC?$CJtemplate?5?$CL?5@ 004f70b0     tpic.obj
 0003:000210ec       ??_C@_0BD@KKMB@target?5?$DN?$DN?5expected?$AA@ 004f70ec     tpic.obj
 0003:00021100       ??_C@_0CK@KCDK@classBits?5?$DN?$DN?5?$CIclassTag?$CJ?$CI0xBADF00@ 004f7100     tpic.obj
 0003:0002112c       ??_C@_0CA@CLFK@target?5?$DN?$DN?5?$CImachinePC?$CJ0xF00DBADA?$AA@ 004f712c     tpic.obj
 0003:0002114c       ??_C@_0BJ@INLG@?4?4?2?4?4?2?4?4?2src?2tran?2tpic?4c?$AA@ 004f714c     tpic.obj
 0003:00021168       ??_C@_0BE@CBIN@closed?5PIC?5template?$AA@ 004f7168     tpic.obj
 0003:0002117c       ??_C@_0CB@DNNK@patchSite?$CInpic?0PICSIZE?5?$CJ?5?$DN?$DN?5nptr@ 004f717c     tpic.obj
 0003:000211a0       ??_C@_0CC@GHOM@nMethodEntryNonImmediate?5?$DN?$DN?5npc?$CI@ 004f71a0     tpic.obj
 0003:000211c4       ??_C@_0BG@LMAD@nMethodEntry?5?$DN?$DN?5npc?$CI?$CJ?$AA@ 004f71c4     tpic.obj
 0003:000211dc       ??_C@_0CI@JKEA@nMethodEntryNoCheck?5?$DN?$DN?5nMethodGl@ 004f71dc     tpic.obj
 0003:00021204       ??_C@_0BH@LAOE@couldBeNPC?$CIentryPoint?$CJ?$AA@ 004f7204     tpic.obj
 0003:0002121c       ??_C@_0BL@EPKP@nm?5?$DN?$DN?5tranAllocationFailed?$AA@ 004f721c     tpic.obj
 0003:00021238       ??_C@_0BA@HBFD@isNMethod?$CInpic?$CJ?$AA@ 004f7238     tpic.obj
 0003:00021248       ??_C@_0FF@HCOF@nPICNthTarget?$CInpic?0numCases?91?5?$CJ?5@ 004f7248     tpic.obj
 0003:000212a0       ??_C@_0FP@KJBP@numCases?5?$DM?5PICSIZE?5?$CG?$CG?5npc?$CI?$CJ?5?$DM?5nP@ 004f72a0     tpic.obj
 0003:00021300       ??_C@_0BN@LOJH@npicClass?$CInptr?$CJ?5?$DN?$DN?5classBits?$AA@ 004f7300     tpic.obj
 0003:00021320       ??_C@_0P@DIIG@?$CInumCases?91?$CJ?$DO0?$AA@ 004f7320     tpic.obj
 0003:00021330       ??_C@_0P@PPGJ@?$CInumCases?$CJ?5?$DO?50?$AA@ 004f7330     tpic.obj
 0003:00021340       ??_C@_0CF@FJMK@numCases?5?$DO?$DN?51?5?$CG?$CG?5numCases?5?$DM?$DN?5PIC@ 004f7340     tpic.obj
 0003:00021368       ??_C@_0BE@BEGO@nmIsClosedPIC?$CInpic?$CJ?$AA@ 004f7368     tpic.obj
 0003:0002137c       ??_C@_0CM@HBFN@couldBeNMethod?$CInpic?$CJ?5?$CG?$CG?5nmIsClos@ 004f737c     tpic.obj
 0003:000213a8       ??_C@_0BF@EICE@npicHasMNUCase?$CInpic?$CJ?$AA@ 004f73a8     tpic.obj
 0003:000213c0       ??_C@_0CN@DGJA@nPICNthTarget?$CInpic?00?$CJ?5?$DN?$DN?5npicMNU@ 004f73c0     tpic.obj
 0003:000213f0       ??_C@_0CI@HLPN@oopIsImm?$CIselector?$CJ?5?$HM?$HM?5objHash?$CIse@ 004f73f0     tpic.obj
 0003:00021418       ??_C@_0BM@PFGE@nPICNthTarget?$CInpic?00?$CJ?5?$DN?$DN?5nm?$AA@ 004f7418     tpic.obj
 0003:00021434       ??_C@_0BH@ODGE@npc?$CI?$CJ?5?$DM?5nPICClosedSize?$AA@ 004f7434     tpic.obj
 0003:0002144c       ??_C@_0DA@PIDF@nptr?5?$DM?$DN?5?$CInOp?5?$CK?$CJ?$CI?$CImachinePC?$CJnpic?5@ 004f744c     tpic.obj
 0003:0002147c       ??_C@_0DH@CBHC@nptr?5?$DM?$DN?5?$CInOp?5?$CK?$CJ?$CI?$CImachinePC?$CJnpic?5@ 004f747c     tpic.obj
 0003:000214b4       ??_C@_0BG@KPNJ@npc?$CI?$CJ?5?$DN?$DN?5nPICOpenSize?$AA@ 004f74b4     tpic.obj
 0003:000214cc       ??_C@_0CE@ICFC@nPICOpenSize?5?$DM?$DN?5initialSizeEstim@ 004f74cc     tpic.obj
 0003:000214f0       ??_C@_0CA@KIH@nPICOpenPICTraceOffset?5?$DN?$DN?5npc?$CI?$CJ?$AA@ 004f74f0     tpic.obj
 0003:00021510       ??_C@_0BP@OBDE@nPICLoadThisPICOffset?5?$DN?$DN?5npc?$CI?$CJ?$AA@ 004f7510     tpic.obj
 0003:00021530       ??_C@_0BA@LEIE@isNMethod?$CImiss?$CJ?$AA@ 004f7530     tpic.obj
 0003:00021540       ??_C@_0BF@JDAA@couldBeNMethod?$CImiss?$CJ?$AA@ 004f7540     tpic.obj
 0003:00021558       ??_C@_0DD@MFJB@couldBeNMethod?$CIcnm?$CJ?5?$CG?$CG?5nmSelecto@ 004f7558     tpic.obj
 0003:0002158c       ??_C@_0CG@EGCC@?$CImachinePC?$CJ?$CKcurrentStack?9?$DOsp?5?$DN?$DN?5@ 004f758c     tpic.obj
 0003:000215b4       ??_C@_0BN@IFAE@npic?5?$DN?$DN?5tranAllocationFailed?$AA@ 004f75b4     tpic.obj
 0003:000215d4       ??_C@_0DI@HEF@couldBeNMethod?$CIcnm?$CJ?5?$CG?$CG?5?$CBnmIsPIC?$CI@ 004f75d4     tpic.obj
 0003:0002160c       ??_C@_0DC@OJJM@nptr?5?$DM?$DN?5?$CInOp?5?$CK?$CJ?$CI?$CImachinePC?$CJnpic?5@ 004f760c     tpic.obj
 0003:00021640       ??_C@_0BM@LNEK@nPICNthTarget?$CInpic?01?$CJ?5?$DN?$DN?5nm?$AA@ 004f7640     tpic.obj
 0003:0002165c       ??_C@_0BP@HJJD@nPICFirstTargetOffset?5?$DN?$DN?5npc?$CI?$CJ?$AA@ 004f765c     tpic.obj
 0003:0002167c       ??_C@_0CE@DKG@nPICNthTarget?$CInpic?00?$CJ?5?$DN?$DN?5missmet@ 004f767c     tpic.obj
 0003:000216a0       ??_C@_0BF@MFAJ@?$CBnmIsPIC?$CImissmethod?$CJ?$AA@ 004f76a0     tpic.obj
 0003:000216b8       ??_C@_0BG@NPPA@isNMethod?$CImissmethod?$CJ?$AA@ 004f76b8     tpic.obj
 0003:000216d0       ??_C@_0DD@IGHB@couldBeNMethod?$CImissmethod?$CJ?5?$CG?$CG?5?$CBn@ 004f76d0     tpic.obj
 0003:00021704       ??_C@_0FG@NNEE@target?5?$DN?$DN?50?5?$DP?5mnuCount?5?$DO?50?5?3?5isN@ 004f7704     tpic.obj
 0003:0002175c       ??_C@_0BP@HNLG@criterion?5?$DN?$DN?5nPICAnyTargetFree?$AA@ 004f775c     tpic.obj
 0003:0002177c       ??_C@_0FI@CFBO@target?5?$DN?$DN?50?5?$DP?5mnuCount?5?$DO?50?5?3?5isN@ 004f777c     tpic.obj
 0003:000217d4       ??_C@_0GB@JFLL@usedCases?5?$DM?5PICSIZE?5?$CG?$CG?5npc?$CI?$CJ?5?$DM?5n@ 004f77d4     tpic.obj
 0003:00021838       ??_C@_0P@HJHH@usedCases?5?$DO?$DN?51?$AA@ 004f7838     tpic.obj
 0003:00021848       ??_C@_0BA@GFIB@?$CIusedCases?$CJ?5?$DO?50?$AA@ 004f7848     tpic.obj
 0003:00021858       ??_C@_0CG@OKID@isNMethod?$CItarget?$CJ?5?$HM?$HM?5nmIsFree?$CIta@ 004f7858     tpic.obj
 0003:00021880       ??_C@_0BL@FOJJ@i?5?$DO?50?5?$HM?$HM?5?$CBnmIsFree?$CItarget?$CJ?$AA@ 004f7880     tpic.obj
 0003:0002189c       ??_C@_0DE@HHOI@nmIsFree?$CItarget?$CJ?5?$HM?$HM?5?$CBobjIsMarked@ 004f789c     tpic.obj
 0003:000218d0       ??_C@_0BB@NDD@nmIsMarked?$CInpic?$CJ?$AA@ 004f78d0     tpic.obj
 0003:000218e4       ??_C@_0BO@JPIH@probablyOop?$CInmSelector?$CInpic?$CJ?$CJ?$AA@ 004f78e4     tpic.obj
 0003:00021904       ??_C@_0DC@EMEN@nptr?5?$DO?$DN?5?$CInOp?5?$CK?$CJ?$CI?$CIchar?5?$CK?$CJ?$CInpic?5?$CL?5@ 004f7904     tpic.obj
 0003:00021938       ??_C@_0GH@POHK@?$CBclosedPIC?5?$HM?$HM?5?$CInmeth?5?$DN?$DN?5?$CInMethod@ 004f7938     tpic.obj
 0003:000219a0       ??_C@_0BI@POEN@n?5?$DM?$DN?5npicNumCases?$CInpic?$CJ?$AA@ 004f79a0     tpic.obj
 0003:000219b8       ??_C@_0BA@NKIC@not?5a?5valid?5PIC?$AA@ 004f79b8     tpic.obj
 0003:000219c8       ??_C@_0GF@OBOL@isNMethod?$CItarget?$CJ?5?$CG?$CG?5?$CBnmIsPIC?$CIta@ 004f79c8     tpic.obj
 0003:00021a30       ??_C@_0EO@GFPP@entryPoint?5?$DM?5?$CImachinePC?$CJnpic?5?$HM?$HM?5@ 004f7a30     tpic.obj
 0003:00021a80       ??_C@_0DM@GHOD@oopIsImm?$CIclass?$CJ?5?$HM?$HM?5?$CIprobablyObj?$CI@ 004f7a80     tpic.obj
 0003:00021abc       ??_C@_0BL@NDBD@?$CInMethod?5?$CK?$CJoperand?5?$DN?$DN?5npic?$AA@ 004f7abc     tpic.obj
 0003:00021ad8       ??_C@_0DB@GOCD@?$CBmnuNm?5?$HM?$HM?5?$CIisNMethod?$CImnuNm?$CJ?5?$CG?$CG?5?$CB@ 004f7ad8     tpic.obj
 0003:00021b0c       ??_C@_0BI@DGGE@npicNumCases?$CInpic?$CJ?5?$DO?$DN?51?$AA@ 004f7b0c     tpic.obj
 0003:00021b24       ??_C@_0CB@MDKI@isNMethod?$CInpic?$CJ?5?$CG?$CG?5nmIsPIC?$CInpic?$CJ@ 004f7b24     tpic.obj
 0003:00021b48       ??_C@_0HB@OOMM@?$CItarget?5?$DN?$DN?5?$CInMethod?5?$CK?$CJ0?5?$CG?$CG?5npicH@ 004f7b48     tpic.obj
 0003:00021bbc       ??_C@_0FN@NAEN@nPIC?5?$CFlx?3?5?$CFs?6?5?5usedSize?$DN0x?$CFx?5lin@ 004f7bbc     tpic.obj
 0003:00021c1c       ??_C@_0P@LEDM@nmIsPIC?$CInmeth?$CJ?$AA@ 004f7c1c     tpic.obj
 0003:00021c2c       ??_C@_07OPMI@?5in?9use?$AA@ 004f7c2c     tpic.obj
 0003:00021c34       ??_C@_05JAJ@?5Open?$AA@    004f7c34     tpic.obj
 0003:00021c3c       ??_C@_0BC@MLKP@?5with?5MNU?5Case?$CIs?$CJ?$AA@ 004f7c3c     tpic.obj
 0003:00021c50       ??_C@_07NIFA@?5Closed?$AA@ 004f7c50     tpic.obj
 0003:00021c58       ??_C@_0BN@ELNC@case?5?$CFd?3?50x?$CFlx?0?5class?50x?$CFlx?6?$AA@ 004f7c58     tpic.obj
 0003:00021c78       ??_C@_0BN@JLOI@case?5?$CFd?5is?5MNU?0?5class?50x?$CFlx?6?$AA@ 004f7c78     tpic.obj
 0003:00021c98       ??_C@_0P@JBEJ@case?50?3?50x?$CFlx?6?$AA@ 004f7c98     tpic.obj
 0003:00021ca8       ??_C@_0P@PPLC@case?50?5is?5MNU?6?$AA@ 004f7ca8     tpic.obj
 0003:00021cb8       ??_C@_0BD@GNMA@mnuNMethod?3?50x?$CFlx?6?$AA@ 004f7cb8     tpic.obj
 0003:00021ccc       ??_C@_0BF@HEMI@nmIsClosedPIC?$CInmeth?$CJ?$AA@ 004f7ccc     tpic.obj
 0003:00021ce4       ??_C@_0DN@KJFA@fadd?$AAfmul?$AAfcom?$AAfcomp?$AAfsub?$AAfsubr?$AA@ 004f7ce4     procPentiumdis.obj
 0003:00021d24       ??_C@_0CC@GABI@rol?$AAror?$AArcl?$AArcr?$AAshl?$AAshr?$AAsh6?$DP?$DP?$AAsa@ 004f7d24     procPentiumdis.obj
 0003:00021d48       ??_C@_0BP@JKFF@add?$AAor?$AAadc?$AAsbb?$AAand?$AAsub?$AAxor?$AAcmp?$AA@ 004f7d48     procPentiumdis.obj
 0003:00021d68       ??_C@_03CKG@std?$AA@       004f7d68     procPentiumdis.obj
 0003:00021d6c       ??_C@_03PMDB@cld?$AA@      004f7d6c     procPentiumdis.obj
 0003:00021d70       ??_C@_03FHED@stc?$AA@      004f7d70     procPentiumdis.obj
 0003:00021d74       ??_C@_03KJNE@clc?$AA@      004f7d74     procPentiumdis.obj
 0003:00021d78       ??_C@_03LPHO@cmc?$AA@      004f7d78     procPentiumdis.obj
 0003:00021d7c       ??_C@_04NOME@repe?$AA@     004f7d7c     procPentiumdis.obj
 0003:00021d84       ??_C@_07HHHM@rep?$CIne?$CJ?$AA@ 004f7d84     procPentiumdis.obj
 0003:00021d8c       ??_C@_04GCHN@jmpJ?$AA@     004f7d8c     procPentiumdis.obj
 0003:00021d94       ??_C@_04JEML@jmp?5?$AA@    004f7d94     procPentiumdis.obj
 0003:00021d9c       ??_C@_03CLBE@jmp?$AA@      004f7d9c     procPentiumdis.obj
 0003:00021da0       ??_C@_04JNJF@call?$AA@     004f7da0     procPentiumdis.obj
 0003:00021da8       ??_C@_05ICAG@jcxzJ?$AA@    004f7da8     procPentiumdis.obj
 0003:00021db0       ??_C@_05PKAL@loopJ?$AA@    004f7db0     procPentiumdis.obj
 0003:00021db8       ??_C@_06BEPP@loopeJ?$AA@   004f7db8     procPentiumdis.obj
 0003:00021dc0       ??_C@_07MLJP@loopneJ?$AA@  004f7dc0     procPentiumdis.obj
 0003:00021dc8       ??_C@_04DLH@xlat?$AA@      004f7dc8     procPentiumdis.obj
 0003:00021dd0       ??_C@_07MEKE@XF?5cl?0W?$AA@ 004f7dd0     procPentiumdis.obj
 0003:00021dd8       ??_C@_08DNCJ@XFb?5cl?0B?$AA@ 004f7dd8     procPentiumdis.obj
 0003:00021de4       ??_C@_07EEKG@XF?5$1?0W?$AA@ 004f7de4     procPentiumdis.obj
 0003:00021dec       ??_C@_08LNCL@XFb?5$1?0B?$AA@ 004f7dec     procPentiumdis.obj
 0003:00021df8       ??_C@_04HLNH@retf?$AA@     004f7df8     procPentiumdis.obj
 0003:00021e00       ??_C@_06LIEJ@retf?5$?$AA@  004f7e00     procPentiumdis.obj
 0003:00021e08       ??_C@_05MCLP@leave?$AA@    004f7e08     procPentiumdis.obj
 0003:00021e10       ??_C@_06FKFA@enter?5?$AA@  004f7e10     procPentiumdis.obj
 0003:00021e18       ??_C@_09JJMB@Xmov?5$C?0W?$AA@ 004f7e18     procPentiumdis.obj
 0003:00021e24       ??_C@_0L@EOML@Xmovb?5$Q?0B?$AA@ 004f7e24     procPentiumdis.obj
 0003:00021e30       ??_C@_08MHIH@Xlds?5W?0R?$AA@ 004f7e30     procPentiumdis.obj
 0003:00021e3c       ??_C@_08FCCH@Xles?5W?0R?$AA@ 004f7e3c     procPentiumdis.obj
 0003:00021e48       ??_C@_03IFMD@ret?$AA@      004f7e48     procPentiumdis.obj
 0003:00021e4c       ??_C@_05ICJN@ret?5$?$AA@   004f7e4c     procPentiumdis.obj
 0003:00021e54       ??_C@_07JGCL@XF?5$K?0W?$AA@ 004f7e54     procPentiumdis.obj
 0003:00021e5c       ??_C@_08GPKG@XFb?5$K?0B?$AA@ 004f7e5c     procPentiumdis.obj
 0003:00021e68       ??_C@_04DNOA@scas?$AA@     004f7e68     procPentiumdis.obj
 0003:00021e70       ??_C@_05GHDD@scasb?$AA@    004f7e70     procPentiumdis.obj
 0003:00021e78       ??_C@_04CMAA@lods?$AA@     004f7e78     procPentiumdis.obj
 0003:00021e80       ??_C@_05KBCC@lodsb?$AA@    004f7e80     procPentiumdis.obj
 0003:00021e88       ??_C@_04GAEA@stos?$AA@     004f7e88     procPentiumdis.obj
 0003:00021e90       ??_C@_05LEGO@stosb?$AA@    004f7e90     procPentiumdis.obj
 0003:00021e98       ??_C@_0L@DLEM@test?5$C?0ZR?$AA@ 004f7e98     procPentiumdis.obj
 0003:00021ea4       ??_C@_0M@FANO@testb?5$Q?0ZH?$AA@ 004f7ea4     procPentiumdis.obj
 0003:00021eb0       ??_C@_04GIAA@cmps?$AA@     004f7eb0     procPentiumdis.obj
 0003:00021eb8       ??_C@_05ODGG@cmpsb?$AA@    004f7eb8     procPentiumdis.obj
 0003:00021ec0       ??_C@_04EOKO@movs?$AA@     004f7ec0     procPentiumdis.obj
 0003:00021ec8       ??_C@_05IEEA@movsb?$AA@    004f7ec8     procPentiumdis.obj
 0003:00021ed0       ??_C@_09GLLM@movb?5ZR?0D?$AA@ 004f7ed0     procPentiumdis.obj
 0003:00021edc       ??_C@_09HOEO@movb?5ZH?0D?$AA@ 004f7edc     procPentiumdis.obj
 0003:00021ee8       ??_C@_09GFJF@movb?5D?0ZR?$AA@ 004f7ee8     procPentiumdis.obj
 0003:00021ef4       ??_C@_09MNHD@movb?5D?0ZH?$AA@ 004f7ef4     procPentiumdis.obj
 0003:00021f00       ??_C@_04BGIH@lahf?$AA@     004f7f00     procPentiumdis.obj
 0003:00021f08       ??_C@_04JDII@sahf?$AA@     004f7f08     procPentiumdis.obj
 0003:00021f10       ??_C@_04FPEB@popf?$AA@     004f7f10     procPentiumdis.obj
 0003:00021f18       ??_C@_05MGII@pushf?$AA@    004f7f18     procPentiumdis.obj
 0003:00021f20       ??_C@_05OLHN@call?5?$AA@   004f7f20     procPentiumdis.obj
 0003:00021f28       ??_C@_03BIDD@cwd?$AA@      004f7f28     procPentiumdis.obj
 0003:00021f2c       ??_C@_03GIFD@cbw?$AA@      004f7f2c     procPentiumdis.obj
 0003:00021f30       ??_C@_03EOBL@nop?$AA@      004f7f30     procPentiumdis.obj
 0003:00021f34       ??_C@_06NEFK@Xpop?5W?$AA@  004f7f34     procPentiumdis.obj
 0003:00021f3c       ??_C@_08HANE@Xmov?5W?0S?$AA@ 004f7f3c     procPentiumdis.obj
 0003:00021f48       ??_C@_08BADI@Xlea?5W?0R?$AA@ 004f7f48     procPentiumdis.obj
 0003:00021f54       ??_C@_08JCNC@Xmov?5S?0W?$AA@ 004f7f54     procPentiumdis.obj
 0003:00021f60       ??_C@_09KCJJ@Xxchg?5W?0R?$AA@ 004f7f60     procPentiumdis.obj
 0003:00021f6c       ??_C@_0L@HDNE@Xxchgb?5B?0H?$AA@ 004f7f6c     procPentiumdis.obj
 0003:00021f78       ??_C@_09IPPD@Xtest?5W?0R?$AA@ 004f7f78     procPentiumdis.obj
 0003:00021f84       ??_C@_0L@NCPJ@Xtestb?5B?0H?$AA@ 004f7f84     procPentiumdis.obj
 0003:00021f90       ??_C@_03EJBD@jgJ?$AA@      004f7f90     procPentiumdis.obj
 0003:00021f94       ??_C@_04BGMC@jleJ?$AA@     004f7f94     procPentiumdis.obj
 0003:00021f9c       ??_C@_04HAEM@jgeJ?$AA@     004f7f9c     procPentiumdis.obj
 0003:00021fa4       ??_C@_03MHLI@jlJ?$AA@      004f7fa4     procPentiumdis.obj
 0003:00021fa8       ??_C@_04HHEG@jpoJ?$AA@     004f7fa8     procPentiumdis.obj
 0003:00021fb0       ??_C@_04OPEH@jpeJ?$AA@     004f7fb0     procPentiumdis.obj
 0003:00021fb8       ??_C@_04KPLJ@jnsJ?$AA@     004f7fb8     procPentiumdis.obj
 0003:00021fc0       ??_C@_03HJBA@jsJ?$AA@      004f7fc0     procPentiumdis.obj
 0003:00021fc4       ??_C@_03DOOM@jaJ?$AA@      004f7fc4     procPentiumdis.obj
 0003:00021fc8       ??_C@_04GKAA@jbeJ?$AA@     004f7fc8     procPentiumdis.obj
 0003:00021fd0       ??_C@_04MEH@jnzJ?$AA@      004f7fd0     procPentiumdis.obj
 0003:00021fd8       ??_C@_03NKOO@jzJ?$AA@      004f7fd8     procPentiumdis.obj
 0003:00021fdc       ??_C@_04JMDL@jaeJ?$AA@     004f7fdc     procPentiumdis.obj
 0003:00021fe4       ??_C@_03FBD@jbJ?$AA@       004f7fe4     procPentiumdis.obj
 0003:00021fe8       ??_C@_04CKOO@jnoJ?$AA@     004f7fe8     procPentiumdis.obj
 0003:00021ff0       ??_C@_03PMEH@joJ?$AA@      004f7ff0     procPentiumdis.obj
 0003:00021ff4       ??_C@_07ILDA@push?5$Q?$AA@ 004f7ff4     procPentiumdis.obj
 0003:00021ffc       ??_C@_07HHGO@push?5$C?$AA@ 004f7ffc     procPentiumdis.obj
 0003:00022004       ??_C@_04KKE@popa?$AA@      004f8004     procPentiumdis.obj
 0003:0002200c       ??_C@_05JDGN@pusha?$AA@    004f800c     procPentiumdis.obj
 0003:00022014       ??_C@_03FNNN@aas?$AA@      004f8014     procPentiumdis.obj
 0003:00022018       ??_C@_09LECG@cmp?5$C?0ZR?$AA@ 004f8018     procPentiumdis.obj
 0003:00022024       ??_C@_0L@BLFB@cmpb?5$Q?0ZH?$AA@ 004f8024     procPentiumdis.obj
 0003:00022030       ??_C@_03KBID@aaa?$AA@      004f8030     procPentiumdis.obj
 0003:00022034       ??_C@_09JEL@xor?5$C?0ZR?$AA@ 004f8034     procPentiumdis.obj
 0003:00022040       ??_C@_0L@BNOM@xorb?5$Q?0ZH?$AA@ 004f8040     procPentiumdis.obj
 0003:0002204c       ??_C@_03EHJB@das?$AA@      004f804c     procPentiumdis.obj
 0003:00022050       ??_C@_09OHEI@sub?5$C?0ZR?$AA@ 004f8050     procPentiumdis.obj
 0003:0002205c       ??_C@_0L@MDAC@subb?5$Q?0ZH?$AA@ 004f805c     procPentiumdis.obj
 0003:00022068       ??_C@_03LLMP@daa?$AA@      004f8068     procPentiumdis.obj
 0003:0002206c       ??_C@_09LLMJ@and?5$C?0ZR?$AA@ 004f806c     procPentiumdis.obj
 0003:00022078       ??_C@_0L@OAFO@andb?5$Q?0ZH?$AA@ 004f8078     procPentiumdis.obj
 0003:00022084       ??_C@_08OEIG@or?5$C?0ZR?$AA@ 004f8084     procPentiumdis.obj
 0003:00022090       ??_C@_09JHAB@orb?5$Q?0ZH?$AA@ 004f8090     procPentiumdis.obj
 0003:0002209c       ??_C@_09GKOA@add?5$C?0ZR?$AA@ 004f809c     procPentiumdis.obj
 0003:000220a8       ??_C@_0L@HGIP@addb?5$Q?0ZH?$AA@ 004f80a8     procPentiumdis.obj
 0003:000220b4       ??_C@_0CP@DPEG@Xb?5H?0B?$AAX?5R?0W?$AAXb?5B?0H?$AAX?5W?0R?$AAb?5$Q?0Z@ 004f80b4     procPentiumdis.obj
 0003:000220e4       ??_C@_0BK@IDI@b?5$Q?0B?$AA?5$C?0W?$AAb?5$Q?0B?$AA?5$Q?0W?$AA@ 004f80e4     procPentiumdis.obj
 0003:00022100       ??_C@_0BI@PMGF@es?$AAcs?$AAss?$AAds?$AAfs?$AAgs?$AGs?$DP?$AHs?$DP?$AA@ 004f8100     procPentiumdis.obj
 0003:00022118       ??_C@_06ECAN@?4byte?5?$AA@ 004f8118     procPentiumdis.obj
 0003:00022120       ??_C@_0M@PJHJ@?4byte?50x0f?0?$AA@ 004f8120     procPentiumdis.obj
 0003:0002212c       ??_C@_05DLFL@cpuid?$AA@    004f812c     procPentiumdis.obj
 0003:00022134       ??_C@_05LLHN@?5$K?0W?$AA@  004f8134     procPentiumdis.obj
 0003:0002213c       ??_C@_0CD@BDLL@bt0?$DP?$AAbt1?$DP?$AAbt2?$DP?$AAbt3?$DP?$AAbt?$AAbts?$AAbtr?$AAb@ 004f813c     procPentiumdis.obj
 0003:00022160       ??_C@_09COOI@Ximul?5W?0R?$AA@ 004f8160     procPentiumdis.obj
 0003:0002216c       ??_C@_08HFOF@Xlss?5W?0R?$AA@ 004f816c     procPentiumdis.obj
 0003:00022178       ??_C@_08HJGH@Xlgs?5W?0R?$AA@ 004f8178     procPentiumdis.obj
 0003:00022184       ??_C@_08OMMH@Xlfs?5W?0R?$AA@ 004f8184     procPentiumdis.obj
 0003:00022190       ??_C@_09IOBM@Xmovs?5W?0R?$AA@ 004f8190     procPentiumdis.obj
 0003:0002219c       ??_C@_0L@CDBO@Xmovsb?5B?0R?$AA@ 004f819c     procPentiumdis.obj
 0003:000221a8       ??_C@_09CPBD@Xmovz?5W?0R?$AA@ 004f81a8     procPentiumdis.obj
 0003:000221b4       ??_C@_0L@BLLP@Xmovzb?5B?0R?$AA@ 004f81b4     procPentiumdis.obj
 0003:000221c0       ??_C@_0JN@PPFL@fchs?$AAfabs?$AA?$AA?$AAftst?$AAfxam?$AA?$AA?$AAfld1?$AAfld@ 004f81c0     procPentiumdis.obj
 0003:00022260       ??_C@_04GEEH@?5ST?$CI?$AA@ 004f8260     procPentiumdis.obj
 0003:00022268       ??_C@_0BI@CLBI@fld?$AAffree?$AAfxch?$AAfst?$AAfstp?$AA@ 004f8268     procPentiumdis.obj
 0003:00022280       ??_C@_08BMNL@fstsw?5ax?$AA@ 004f8280     procPentiumdis.obj
 0003:0002228c       ??_C@_0BD@MNCM@fclex?$AAfinit?$AAfsetpm?$AA@ 004f828c     procPentiumdis.obj
 0003:000222a0       ??_C@_06GEDN@fcompp?$AA@   004f82a0     procPentiumdis.obj
 0003:000222a8       ??_C@_04GPDA@fnop?$AA@     004f82a8     procPentiumdis.obj
 0003:000222b0       ??_C@_07FBDA@?$AAp?$AA?$HO?$AA?$HOp?$AA@ 004f82b0     procPentiumdis.obj
 0003:000222b8       ??_C@_02IMAH@?5W?$AA@      004f82b8     procPentiumdis.obj
 0003:000222bc       ??_C@_0FB@CMBL@fldenv?$AA?$AAfrstor?$AAfldb?$AAfldcw?$AAfldx?$AA?$AA@ 004f82bc     procPentiumdis.obj
 0003:00022310       ??_C@_0BA@FMJD@s?5W?$AAh?5W?$AAd?5W?$AAi?5W?$AA@ 004f8310     procPentiumdis.obj
 0003:00022320       ??_C@_06GBMB@b?5B?$AA?5W?$AA@ 004f8320     procPentiumdis.obj
 0003:00022328       ??_C@_0FE@LFEJ@test?$AAf6?11?$DP?$AAnot?$AAneg?$AAmul?$AAimul?$AAdiv?$AA@ 004f8328     procPentiumdis.obj
 0003:0002237c       ??_C@_01PFH@A?$AA@         004f837c     procPentiumdis.obj
 0003:00022380       ??_C@_03JFOM@?$CFld?$AA@   004f8380     procPentiumdis.obj
 0003:00022384       ??_C@_05EFPB@0x?$CFlx?$AA@ 004f8384     procPentiumdis.obj
 0003:0002238c       ??_C@_06JPNE@?90x?$CFlx?$AA@ 004f838c     procPentiumdis.obj
 0003:00022394       ??_C@_0DA@HGFB@ax?$AAcx?$AAdx?$AAbx?$AAsp?$AAbp?$AAsi?$AAdi?$AAal?$AAcl?$AAdl@ 004f8394     procPentiumdis.obj
 0003:000223c8       ??_C@_0BA@FKCH@need?5dictionary?$AA@ 004f83c8     zlib:inflate.obj
 0003:000223d8       ??_C@_0BF@OBFI@incorrect?5data?5check?$AA@ 004f83d8     zlib:inflate.obj
 0003:000223f0       ??_C@_0BH@NLIB@incorrect?5header?5check?$AA@ 004f83f0     zlib:inflate.obj
 0003:00022408       ??_C@_0BE@FAJE@invalid?5window?5size?$AA@ 004f8408     zlib:inflate.obj
 0003:0002241c       ??_C@_0BL@KPEJ@unknown?5compression?5method?$AA@ 004f841c     zlib:inflate.obj
 0003:00022438       ??_C@_0BF@HPBB@incompatible?5version?$AA@ 004f8438     zlib:zutil.obj
 0003:00022450       ??_C@_0N@EHHN@buffer?5error?$AA@ 004f8450     zlib:zutil.obj
 0003:00022460       ??_C@_0BE@EMHE@insufficient?5memory?$AA@ 004f8460     zlib:zutil.obj
 0003:00022474       ??_C@_0L@EBEB@data?5error?$AA@ 004f8474     zlib:zutil.obj
 0003:00022480       ??_C@_0N@OPOA@stream?5error?$AA@ 004f8480     zlib:zutil.obj
 0003:00022490       ??_C@_0L@DFEP@file?5error?$AA@ 004f8490     zlib:zutil.obj
 0003:0002249c       ??_C@_0L@JPFB@stream?5end?$AA@ 004f849c     zlib:zutil.obj
 0003:000224a8       ??_C@_0BF@KHAC@?$CFc?$CFc?$CFc?$CFc?$CFc?$CFc?$CFc?$CFc?$CFc?$CFc?$AA@ 004f84a8     zlib:gzio.obj
 0003:000224c0       ??_C@_07GLHK@?$DMfd?3?$CFd?$DO?$AA@ 004f84c0     zlib:gzio.obj
 0003:000224c8       ??_C@_02HFBK@?3?5?$AA@     004f84c8     zlib:gzio.obj
 0003:000224d0       _deflate_copyright         004f84d0     zlib:deflate.obj
 0003:000229cc       ??_C@_0BK@BNJN@invalid?5bit?5length?5repeat?$AA@ 004f89cc     zlib:infblock.obj
 0003:000229e8       ??_C@_0CE@LAKP@too?5many?5length?5or?5distance?5symb@ 004f89e8     zlib:infblock.obj
 0003:00022a0c       ??_C@_0BN@DBOJ@invalid?5stored?5block?5lengths?$AA@ 004f8a0c     zlib:infblock.obj
 0003:00022a2c       ??_C@_0BD@IFBC@invalid?5block?5type?$AA@ 004f8a2c     zlib:infblock.obj
 0003:00023084       __dist_code                004f9084     zlib:trees.obj
 0003:00023284       __length_code              004f9284     zlib:trees.obj
 0003:00023470       ??_C@_0BG@EGK@invalid?5distance?5code?$AA@ 004f9470     zlib:infcodes.obj
 0003:00023488       ??_C@_0BM@CHJP@invalid?5literal?1length?5code?$AA@ 004f9488     zlib:infcodes.obj
 0003:000234a4       _inflate_copyright         004f94a4     zlib:inftrees.obj
 0003:000236bc       ??_C@_0CE@MFNM@incomplete?5dynamic?5bit?5lengths?5t@ 004f96bc     zlib:inftrees.obj
 0003:000236e0       ??_C@_0CI@BBGL@oversubscribed?5dynamic?5bit?5lengt@ 004f96e0     zlib:inftrees.obj
 0003:00023708       ??_C@_0BP@KPP@incomplete?5literal?1length?5tree?$AA@ 004f9708     zlib:inftrees.obj
 0003:00023728       ??_C@_0CD@ODII@oversubscribed?5literal?1length?5tr@ 004f9728     zlib:inftrees.obj
 0003:0002374c       ??_C@_0CB@INA@empty?5distance?5tree?5with?5lengths@ 004f974c     zlib:inftrees.obj
 0003:00023770       ??_C@_0BJ@NKOC@incomplete?5distance?5tree?$AA@ 004f9770     zlib:inftrees.obj
 0003:0002378c       ??_C@_0BN@OAAG@oversubscribed?5distance?5tree?$AA@ 004f978c     zlib:inftrees.obj
 0003:000237ac       __IMPORT_DESCRIPTOR_MSVCRT 004f97ac     msvcrt:MSVCRT.dll
 0003:000237c0       __IMPORT_DESCRIPTOR_KERNEL32 004f97c0     kernel32:KERNEL32.dll
 0003:000237d4       __IMPORT_DESCRIPTOR_WSOCK32 004f97d4     wsock32:WSOCK32.dll
 0003:000237e8       __IMPORT_DESCRIPTOR_ADVAPI32 004f97e8     advapi32:ADVAPI32.dll
 0003:000237fc       __IMPORT_DESCRIPTOR_USER32 004f97fc     user32:USER32.dll
 0003:00023810       __IMPORT_DESCRIPTOR_GDI32  004f9810     gdi32:GDI32.dll
 0003:00023824       __IMPORT_DESCRIPTOR_comdlg32 004f9824     comdlg32:comdlg32.dll
 0003:00023838       __IMPORT_DESCRIPTOR_WINMM  004f9838     winmm:WINMM.dll
 0003:0002384c       __IMPORT_DESCRIPTOR_MPR    004f984c     mpr:MPR.dll
 0003:00023860       __IMPORT_DESCRIPTOR_SHELL32 004f9860     shell32:SHELL32.dll
 0003:00023874       __NULL_IMPORT_DESCRIPTOR   004f9874     msvcrt:MSVCRT.dll
 0004:00000000       ___xc_a                    004fd000     msvcrt:cinitexe.obj
 0004:00000004       ___xc_z                    004fd004     msvcrt:cinitexe.obj
 0004:00000008       ___xi_a                    004fd008     msvcrt:cinitexe.obj
 0004:0000000c       ___xi_z                    004fd00c     msvcrt:cinitexe.obj
 0004:00000010       _SccsId                    004fd010     prUdummy.obj
 0004:0000008c       __upKeyInc                 004fd08c     prUdummy.obj
 0004:00000090       _versionString             004fd090     prUdummy.obj
 0004:00000094       _vm_id3                    004fd094     prUdummy.obj
 0004:00000450       _programName               004fd450     ntmain.obj
 0004:00000454       _saveScreenBackground      004fd454     ntmain.obj
 0004:00000458       _winPlatformId             004fd458     ntmain.obj
 0004:0000045a       _winMajorVersion           004fd45a     ntmain.obj
 0004:0000045b       _winMinorVersion           004fd45b     ntmain.obj
 0004:0000045c       _theSmalltalkThread        004fd45c     ntmain.obj
 0004:00000a3c       _BitBltPlugin_exports      004fda3c     exBitBlt.obj
 0004:00000b18       _CCompositeClassX          004fdb18     exCallC.obj
 0004:00000b1c       _CCompositePointerClassX   004fdb1c     exCallC.obj
 0004:00000b20       _CPointerClassX            004fdb20     exCallC.obj
 0004:00000b24       _CProcedurePointerClassX   004fdb24     exCallC.obj
 0004:00000b28       _CCallbackClassX           004fdb28     exCallC.obj
 0004:00000b2c       _CDatumClassX              004fdb2c     exCallC.obj
 0004:00000b30       _catchExternalCallErrors   004fdb30     exCallC.obj
 0004:00000bdc       _showHerald                004fdbdc     exInit.obj
 0004:00000be0       _vm_id0                    004fdbe0     exInit.obj
 0004:00000be1       _vm_id1                    004fdbe1     exInit.obj
 0004:00000be2       _vm_id2                    004fdbe2     exInit.obj
 0004:00000bec       _callbackClassX            004fdbec     exMessage.obj
 0004:00000bf0       _callbackSelectorX         004fdbf0     exMessage.obj
 0004:00000bf4       _callbackSemaphoreX        004fdbf4     exMessage.obj
 0004:00000bf8       _nbCallbackSelectorX       004fdbf8     exMessage.obj
 0004:00000bfc       _nbForeignCallbackProcessX 004fdbfc     exMessage.obj
 0004:00000c08       _platformStringClassX      004fdc08     exPrimUtil.obj
 0004:00000c1c       _classNameX                004fdc1c     mmDebug.obj
 0004:00000c20       _thisClassX                004fdc20     mmDebug.obj
 0004:00000ca0       _currentIncGCState         004fdca0     mmIncGC.obj
 0004:00000d50       _permSpaceExists           004fdd50     mmPermSpace.obj
 0004:00000d58       _scavengeSemaphoreX        004fdd58     mmScavenge.obj
 0004:00000dc8       __CheckFunctions           004fddc8     checks.obj
 0004:00000e98       _interruptPollCount        004fde98     services.obj
 0004:00000e9c       _interruptPoll             004fde9c     services.obj
 0004:00000ea0       _allVToNTables             004fdea0     nmlookup.obj
 0004:00000ed8       _optEmpty                  004fded8     taction.obj
 0004:00000ef8       _enableASOpt               004fdef8     taction.obj
 0004:00000efc       _enableLIOpt               004fdefc     taction.obj
 0004:00000f00       _enableROpt                004fdf00     taction.obj
 0004:00000f08       _PrimGlueTable             004fdf08     taux.obj
 0004:00000f1c       _FastPrimGlueTable         004fdf1c     taux.obj
 0004:00000f30       _UserPrimGlueTable         004fdf30     taux.obj
 0004:00000f44       _rtFlushICache             004fdf44     tcgencode.obj
 0004:00000f48       _notBTable                 004fdf48     tcodes.obj
 0004:00000f60       _effectiveMaxVBytesJumpShort 004fdf60     tcodes.obj
 0004:00000f64       _SendTable                 004fdf64     tinit.obj
 0004:00000fb4       _sendTableSize             004fdfb4     tinit.obj
 0004:00000fb8       _generatingRuntimeRoutines 004fdfb8     tinit.obj
 0004:00000fc0       _maxTDebugVal              004fdfc0     tmain.obj
 0004:00000fc4       _firstTimeFlag             004fdfc4     tmain.obj
 0004:00001038       _tSpecialProcs             004fe038     tspecial.obj
 0004:00001094       _tsMaxIndex                004fe094     tspecial.obj
 0004:00001388       _emiss                     004fe388     txcontrol.obj
 0004:000014b0       _enableTP                  004fe4b0     txprim.obj
 0004:000014b4       _enableTFP                 004fe4b4     txprim.obj
 0004:00001ab0       _z_errmsg                  004feab0     zlib:zutil.obj
 0004:00002c38       _inflate_mask              004ffc38     zlib:infutil.obj
 0004:00002c80       _userPollHandler           004ffc80     prUdummy.obj
 0004:00002cd8       _gblhcursorSmalltalk       004ffcd8     ntcurs.obj
 0004:00002cdc       _CPOK16LoadLibrary         004ffcdc     ntdynld.obj
 0004:00002ce0       _CPOK16FreeLibrary         004ffce0     ntdynld.obj
 0004:00002ce4       _CPOK16GetProcAddress      004ffce4     ntdynld.obj
 0004:00002ce8       _CPOK16InitCall            004ffce8     ntdynld.obj
 0004:00002cec       _CPOK16CallFar             004ffcec     ntdynld.obj
 0004:00002cf0       _CPOK16Xlate1632           004ffcf0     ntdynld.obj
 0004:00002cf4       _CPOK16Alloc               004ffcf4     ntdynld.obj
 0004:00002cf8       _CPOK16Free                004ffcf8     ntdynld.obj
 0004:00002cfc       _CPOK16AllocCB             004ffcfc     ntdynld.obj
 0004:00002d00       _CPOK16FreeCB              004ffd00     ntdynld.obj
 0004:00002d04       _CPOK16Xlate3216           004ffd04     ntdynld.obj
 0004:00002d08       _CPOK16AllocCbThunk        004ffd08     ntdynld.obj
 0004:00002d0c       _CPOK16FreeCbThunk         004ffd0c     ntdynld.obj
 0004:00002dbc       _colorsUpdated             004ffdbc     ntgraph.obj
 0004:00002fcc       _logoBitmap                004fffcc     ntherald.obj
 0004:000030d4       _logoSound                 005000d4     ntherald.obj
 0004:000031dc       _gblhwndHerald             005001dc     ntherald.obj
 0004:000031f8       _g_pfnGetSystemMetrics     005001f8     ntmain.obj
 0004:000031fc       _g_pfnMonitorFromWindow    005001fc     ntmain.obj
 0004:00003200       _g_pfnMonitorFromRect      00500200     ntmain.obj
 0004:00003204       _g_pfnMonitorFromPoint     00500204     ntmain.obj
 0004:00003208       _g_pfnGetMonitorInfo       00500208     ntmain.obj
 0004:0000320c       _g_pfnEnumDisplayMonitors  0050020c     ntmain.obj
 0004:00003210       _g_fMultiMonInitDone       00500210     ntmain.obj
 0004:00003214       _program_argv              00500214     ntmain.obj
 0004:00003218       _gblhInstance              00500218     ntmain.obj
 0004:0000321c       _ourNTProcess              0050021c     ntmain.obj
 0004:00003220       _isConsoleApp              00500220     ntmain.obj
 0004:00003224       _screenCount               00500224     ntmain.obj
 0004:00003228       _screenOriginX             00500228     ntmain.obj
 0004:0000322c       _screenOriginY             0050022c     ntmain.obj
 0004:00003230       _screenCornerX             00500230     ntmain.obj
 0004:00003234       _screenCornerY             00500234     ntmain.obj
 0004:00003258       _eh_classX                 00500258     ntfile.obj
 0004:0000325c       _imageResource             0050025c     ntfile.obj
 0004:00003298       _useSystemTime             00500298     nttime.obj
 0004:0000329c       _eventFlag                 0050029c     ntwin.obj
 0004:000032a0       _quitInProgress            005002a0     ntwin.obj
 0004:000032a4       _callbacksCreated          005002a4     ntcallbk.obj
 0004:00003cb0       _windowLabelEncoding       00500cb0     exEnviron.obj
 0004:00003d10       _hpsErrorStatus            00500d10     exError.obj
 0004:00003d24       _reportVersionOnly         00500d24     exInit.obj
 0004:00003d28       _acceptQuitEvents          00500d28     exInit.obj
 0004:00003d54       _dumpStackOnExit           00500d54     exLeave.obj
 0004:00003d88       _calloutResult             00500d88     exMessage.obj
 0004:00003d8c       _calloutIsLongComp         00500d8c     exMessage.obj
 0004:00003d90       _imageFilename             00500d90     exOption.obj
 0004:00003d94       _hpsOptions                00500d94     exOption.obj
 0004:00003d98       _printHelp                 00500d98     exOption.obj
 0004:000040f0       _NBAPITableIndex           005010f0     exThapi.obj
 0004:00004120       _IEEEInfNaN                00501120     prFloat.obj
 0004:000041c4       _objBeingIncMarked         005011c4     mm.obj
 0004:0000c1dc       _metaclassInstSize         005091dc     mmDebug.obj
 0004:0000c1e0       _allInstancesCallsPerMillisecond 005091e0     mmEnumerate.obj
 0004:0000c224       _numGCs                    00509224     mmGarbage.obj
 0004:0000c228       _numGlobalGCs              00509228     mmGarbage.obj
 0004:0000c244       _numIncGCs                 00509244     mmIncGC.obj
 0004:0000c294       _scavengeWarningThreshold  00509294     mmInit.obj
 0004:0000c298       _totalInitialAllocBytes    00509298     mmInit.obj
 0004:0000c29c       _initialHeadroomBytes      0050929c     mmInit.obj
 0004:0000c2a0       _useLinearSearchPriorToRehash 005092a0     mmInit.obj
 0004:0000c2d0       _desiredLoadPolicyName     005092d0     mmInit.obj
 0004:0000c2dc       _extraHeapBytesOption      005092dc     mmInit.obj
 0004:0000c2e0       _nmZoneSizeOption          005092e0     mmInit.obj
 0004:0000c2ec       _oldNewSpaceBoundary       005092ec     mmNewSpace.obj
 0004:0000c2f0       _newSpaceUpperBound        005092f0     mmNewSpace.obj
 0004:0000c2f4       _newSpaceLowerBound        005092f4     mmNewSpace.obj
 0004:0000c33c       _largestOldSpaceSegment    0050933c     mmOldSpace.obj
 0004:0000c340       _osReserveSlots            00509340     mmOldSpace.obj
 0004:0000c344       _permSpaceAbsorbed         00509344     mmOldSpace.obj
 0004:0000c368       _lowSpaceLimit             00509368     mmResources.obj
 0004:0000c378       _scavengeInProgress        00509378     mmScavenge.obj
 0004:0000c37c       _tenureToShrinkRememberedTable 0050937c     mmScavenge.obj
 0004:0000c3a4       _numScavenges              005093a4     mmScavenge.obj
 0004:0000c3c8       _sysOopRegistryOop         005093c8     mmSysOop.obj
 0004:0000c3cc       _sysOopRegistry            005093cc     mmSysOop.obj
 0004:0000c3d0       _prevFirstFreeSlotX        005093d0     mmSysOop.obj
 0004:0000c3d8       _dassertsOn                005093d8     assertFail.obj
 0004:0000c3dc       _dumpOnAssertFail          005093dc     assertFail.obj
 0004:0000c3e0       _dumpAndExitOnAssertFail   005093e0     assertFail.obj
 0004:0000d110       _stackInterruptUnderflowBytes 0050a110     checks.obj
 0004:0000d114       _stackInterruptOverflowBytes 0050a114     checks.obj
 0004:0000d118       _culprit                   0050a118     checks.obj
 0004:0000d11c       _debugLog                  0050a11c     checks.obj
 0004:0000d120       _checkSelectors            0050a120     checks.obj
 0004:0000d124       _checkXlateSelectors       0050a124     checks.obj
 0004:0000d128       _checkClasses              0050a128     checks.obj
 0004:0000d12c       _breakOnCheck              0050a12c     checks.obj
 0004:0000d130       _dumpOnCheck               0050a130     checks.obj
 0004:0000d148       _sendCount                 0050a148     hist.obj
 0004:0000d14c       _breakCount                0050a14c     hist.obj
 0004:0000d154       _runtimeBase               0050a154     nsupport.obj
 0004:0000d160       _spval                     0050a160     nsupport.obj
 0004:0000d164       _doLogSends                0050a164     send.obj
 0004:0000d1bc       _needMessageToWakeup       0050a1bc     services.obj
 0004:0000d1c0       _contextOnTop              0050a1c0     stackframe.obj
 0004:0000d1c4       _currentStack              0050a1c4     stackzone.obj
 0004:0000d1c8       _NumStacks                 0050a1c8     stackzone.obj
 0004:0000d1cc       _stackZone                 0050a1cc     stackzone.obj
 0004:0000d1d0       _freeStacks                0050a1d0     stackzone.obj
 0004:0000d1d4       _endOfStackZone            0050a1d4     stackzone.obj
 0004:0000d1d8       _startOfStackZone          0050a1d8     stackzone.obj
 0004:0000d1dc       _CStack                    0050a1dc     vmsupport.obj
 0004:0000d1e0       _CFrame                    0050a1e0     vmsupport.obj
 0004:0000d1e8       _nzoneAllocsSinceCompaction 0050a1e8     nmalloc.obj
 0004:0000d1f4       _relocatingNMethods        0050a1f4     nmcompact.obj
 0004:0000e0dc       _tDebug                    0050b0dc     tmain.obj
 0004:0000e0e0       _nzoneRTSymbolTable        0050b0e0     tmain.obj
 0004:0000e194       _superLookupClassLoadOffset 0050b194     tmaprt.obj
 0004:0000e1d8       _collectingProfileData     0050b1d8     tnmprim.obj
 0004:0000e1dc       _engineData                0050b1dc     tnmprim.obj
 0004:0000e1e0       _nzoneData                 0050b1e0     tnmprim.obj
 0004:0000e63c       _enableXTP                 0050b63c     txprim.obj
 0004:0000e64c       _nPICtable                 0050b64c     tpic.obj
 0004:0000e84c       _nPICOpenPICTraceOffset    0050b84c     tpic.obj
 0004:0000e850       _nPICLoadThisPICOffset     0050b850     tpic.obj
 0004:0000e854       _nPICOpenSize              0050b854     tpic.obj
 0004:0000e86c       _nPICFirstTargetOffset     0050b86c     <common>
 0004:0000e870       _nPICGlueEntry             0050b870     <common>
 0004:0000e874       _nPICClosedSize            0050b874     <common>
 0004:0000e878       _nPICMNUMethodOffset       0050b878     <common>
 0004:0000e87c       _nPICTypeCaseSize          0050b87c     <common>
 0004:0000e880       _spill                     0050b880     <common>
 0004:0000e884       _stackEmpty                0050b884     <common>
 0004:0000e888       _seSelfNormal              0050b888     <common>
 0004:0000e890       _seSelfFrameless           0050b890     <common>
 0004:0000e898       _stackLocals               0050b898     <common>
 0004:0000e8a0       _stackLocalsFrameless      0050b8a0     <common>
 0004:0000e8b0       _stackSim                  0050b8b0     <common>
 0004:0000e8b4       _emptyRegSummary           0050b8b4     <common>
 0004:0000e8c0       _assignedRegs              0050b8c0     <common>
 0004:0000e9a0       _regsInitialized           0050b9a0     <common>
 0004:0000e9a4       _assignedRegSummary        0050b9a4     <common>
 0004:0000e9a8       _profile_text_hipc         0050b9a8     <common>
 0004:0000e9ac       _profile_nzone_lopc        0050b9ac     <common>
 0004:0000e9b0       _profile_compaction_area   0050b9b0     <common>
 0004:0000e9b4       _profile_nzone_hipc        0050b9b4     <common>
 0004:0000e9b8       _profile_text_lopc         0050b9b8     <common>
 0004:0000e9bc       _profile_other_area        0050b9bc     <common>
 0004:0000e9c0       _nMethodGlueEntry          0050b9c0     <common>
 0004:0000e9c4       _nmokBadNptr               0050b9c4     <common>
 0004:0000e9c8       _sendTypeTable             0050b9c8     <common>
 0004:0000e9cc       _nMethodAbortSendMissReturnOffset 0050b9cc     <common>
 0004:0000e9d0       _nmokBadOop                0050b9d0     <common>
 0004:0000e9d4       _nmokBadTarget             0050b9d4     <common>
 0004:0000e9d8       _nmokBadClassTag           0050b9d8     <common>
 0004:0000e9dc       _nmokBadNM                 0050b9dc     <common>
 0004:0000e9e0       _tPVToN                    0050b9e0     <common>
 0004:0000e9e4       _startNMethod              0050b9e4     <common>
 0004:0000e9e8       _primReturnEntry           0050b9e8     <common>
 0004:0000e9ec       _tSelector                 0050b9ec     <common>
 0004:0000ea00       _tVInfo                    0050ba00     <common>
 0004:0000ea28       _tVMethod                  0050ba28     <common>
 0004:0000ea2c       _tNil                      0050ba2c     <common>
 0004:0000ea30       _tFalse                    0050ba30     <common>
 0004:0000ea34       _tTrue                     0050ba34     <common>
 0004:0000ea38       _tHasCleanSends            0050ba38     <common>
 0004:0000ea3c       _minStoreInstCode          0050ba3c     <common>
 0004:0000ea40       _maxStoreInstCode          0050ba40     <common>
 0004:0000ea44       _stackTemps                0050ba44     <common>
 0004:0000ea50       _AbortPrimFailTable        0050ba50     <common>
 0004:0000ea60       _AbortSendTable            0050ba60     <common>
 0004:0000ea6c       _nMethodPrimitiveJumpSize  0050ba6c     <common>
 0004:0000ea70       _CreateArray               0050ba70     <common>
 0004:0000ea74       _MakeCopyingBlock1         0050ba74     <common>
 0004:0000ea78       _AbortNoFrame              0050ba78     <common>
 0004:0000ea7c       _bxpStandardSize           0050ba7c     <common>
 0004:0000ea80       _bxpStandardOffset         0050ba80     <common>
 0004:0000ea84       _nMethodAbortSendMissOffset 0050ba84     <common>
 0004:0000ea88       _nMethodBlockEntry         0050ba88     <common>
 0004:0000ea90       _seStackLimit              0050ba90     <common>
 0004:0000ea98       _primHasReturn             0050ba98     <common>
 0004:0000ea9c       _nMethodAbortOffsetOffset  0050ba9c     <common>
 0004:0000eaa0       _superForSend              0050baa0     <common>
 0004:0000eaa8       _seSelf                    0050baa8     <common>
 0004:0000eab0       _abortOffsetSkip           0050bab0     <common>
 0004:0000eab4       _nMethodEntry              0050bab4     <common>
 0004:0000eab8       _nMethodEntryNonImmediate  0050bab8     <common>
 0004:0000eabc       _stackBase                 0050babc     <common>
 0004:0000eac0       _nMethodCannotResumeEntry  0050bac0     <common>
 0004:0000eac4       _nMethodEntryNoCheck       0050bac4     <common>
 0004:0000eac8       _nMethodBlockGlueEntry     0050bac8     <common>
 0004:0000eacc       _actFree                   0050bacc     <common>
 0004:0000ead0       _actNext                   0050bad0     <common>
 0004:0000ead4       _mCache                    0050bad4     <common>
 0004:0000ead8       _nmAllocRequest            0050bad8     <common>
 0004:0000eadc       _minNZoneRTPC              0050badc     <common>
 0004:0000eae0       _maxNZonePC                0050bae0     <common>
 0004:0000eb00       _nmZone                    0050bb00     <common>
 0004:0000eb18       _minNZonePC                0050bb18     <common>
 0004:0000eb1c       _CStackMain                0050bb1c     <common>
 0004:0000eb20       _dummyStack                0050bb20     <common>
 0004:0000eb28       _anyAck                    0050bb28     <common>
 0004:0000eb2c       _stackLimit                0050bb2c     <common>
 0004:0000eb30       _anyReq                    0050bb30     <common>
 0004:0000eb34       _savedSmashPC              0050bb34     <common>
 0004:0000eb38       _maybeContext              0050bb38     <common>
 0004:0000eb40       _immediateTable            0050bb40     <common>
 0004:0000eb4c       _additionalTenureCriterion 0050bb4c     <common>
 0004:0000eb60       _rt                        0050bb60     <common>
 0004:0000eb74       _rtOop                     0050bb74     <common>
 0004:0000eb80       _permSpace                 0050bb80     <common>
 0004:0000ebc0       _permSpaceSegs             0050bbc0     <common>
 0004:0000ebe4       _threadedDataForSnapshot   0050bbe4     <common>
 0004:0000ebe8       _oldSpaceNumThreadedDataAtPreparation 0050bbe8     <common>
 0004:0000ebec       _oldPermSpaceBoundary      0050bbec     <common>
 0004:0000ec00       _oldSpace                  0050bc00     <common>
 0004:0000ec40       _oldSpaceSegs              0050bc40     <common>
 0004:0000ed68       _osDataSlotsWithPsOtEnt    0050bd68     <common>
 0004:0000ed6c       _oldRtOop                  0050bd6c     <common>
 0004:0000ed70       _pastSpace                 0050bd70     <common>
 0004:0000ed80       _futureSpace               0050bd80     <common>
 0004:0000ed90       _eden                      0050bd90     <common>
 0004:0000eda0       _prevNewSpaceOkObj         0050bda0     <common>
 0004:0000edb0       _fixedSpaceSegs            0050bdb0     <common>
 0004:0000edc0       _fixedSpace                0050bdc0     <common>
 0004:0000ede0       _largeSpaceBaseSlot        0050bde0     <common>
 0004:0000ede4       _largeSpaceUpperBound      0050bde4     <common>
 0004:0000ee00       _largeSpace                0050be00     <common>
 0004:0000ee1c       _viSig                     0050be1c     <common>
 0004:0000ee20       _permSpaceUpperBound       0050be20     <common>
 0004:0000ee24       _fileId                    0050be24     <common>
 0004:0000ee28       _oldSpaceMap               0050be28     <common>
 0004:0000ee30       _temp1RegisteredOopX       0050be30     <common>
 0004:0000ee34       _permSpaceLowerBound       0050be34     <common>
 0004:0000ee40       _viHeraldString            0050be40     <common>
 0004:0000eea8       _vmThumb                   0050bea8     <common>
 0004:0000eec0       _vmIdString                0050bec0     <common>
 0004:0000ef00       _imageLayout               0050bf00     <common>
 0004:0000efb4       _temp2RegisteredOopX       0050bfb4     <common>
 0004:0000efc0       _slots                     0050bfc0     <common>
 0004:0000efe4       _incGCWeakBytes            0050bfe4     <common>
 0004:0000efe8       _incGCWeakNilBytes         0050bfe8     <common>
 0004:0000efec       _incGCMarkBytes            0050bfec     <common>
 0004:0000eff0       _incGCMarkCount            0050bff0     <common>
 0004:0000eff4       _incGCWeakCount            0050bff4     <common>
 0004:0000eff8       _incGCWeakNilCount         0050bff8     <common>
 0004:0000effc       _maxPtr                    0050bffc     <common>
 0004:0000f000       _lastHash                  0050c000     <common>
 0004:0000f004       _maxSpacePtr               0050c004     <common>
 0004:0000f008       _maxOopUInt                0050c008     <common>
 0004:0000f00c       _smalltalkThread           0050c00c     <common>
 0004:0000f010       _timerSemaphoreX           0050c010     <common>
 0004:0000f014       _imageFilePtr              0050c014     <common>
 0004:0000f018       _inputSemaphoreX           0050c018     <common>
 0004:0000f01c       _needToReInitTime          0050c01c     <common>
 0004:0000f020       _program_argc              0050c020     <common>
 0004:0000f040       _AppName                   0050c040     <common>
 0004:0000f160       _ExeName                   0050c160     <common>
 0004:0000f280       _gblpaletteSystem          0050c280     <common>
 0004:0000f698       _gbliBitsPerPixel          0050c698     <common>
 0004:0000f69c       _usePalette                0050c69c     <common>
 0004:0000f6a0       _hdcGlobal                 0050c6a0     <common>
 0004:0000f6a4       _UPtitle                   0050c6a4     <common>
 0004:0000f6a8       __adjust_fdiv              0050c6a8     <common>
 0004:0000f6ac       ___onexitend               0050c6ac     <common>
 0004:0000f6b0       ___onexitbegin             0050c6b0     <common>
 0004:0000f6b4       __pRawDllMain              0050c6b4     <common>
 0005:00000000       _minGluePC                 0050d000     glueNT86.obj
 0005:00000004       _maxGluePC                 0050d004     glueNT86.obj
 0005:00000008       _rootReturnPC              0050d008     glueNT86.obj
 0005:0000000c       _cantReturnPC              0050d00c     glueNT86.obj
 0005:00000010       _dnuPChAddr                0050d010     glueNT86.obj
 0005:00000024       _primFailGlueShort         0050d024     glueNT86.obj
 0005:00000028       _primFailGlueLong          0050d028     glueNT86.obj

 entry point at        0001:000bc9b1

 Static symbols

 0001:000bbd50       _disl2                     004ccd50 f   procPentiumdis.obj
 0001:000bbd70       _disl4                     004ccd70 f   procPentiumdis.obj
 0001:000bbdb0       _noProc                    004ccdb0 f   procPentiumdis.obj
 0001:000bbdc0       _disExit                   004ccdc0 f   procPentiumdis.obj
 0001:000bbdf0       _p                         004ccdf0 f   procPentiumdis.obj
 0001:000bbe30       _dis_psp                   004cce30 f   procPentiumdis.obj
 0001:000bbe40       _pc                        004cce40 f   procPentiumdis.obj
 0001:000bbe50       _dis_pd                    004cce50 f   procPentiumdis.obj
 0001:000bbe90       _dis_pl                    004cce90 f   procPentiumdis.obj
 0001:000bbee0       _dis_sw                    004ccee0 f   procPentiumdis.obj
 0001:000bbf10       _dis_psw                   004ccf10 f   procPentiumdis.obj
 0001:000bbf30       _dis_px                    004ccf30 f   procPentiumdis.obj
 0001:000bc220       _dis_preg                  004cd220 f   procPentiumdis.obj
 0001:000bc260       _dis_pxs                   004cd260 f   procPentiumdis.obj
 0001:000b7eb0       _trClosedPICTemplate       004c8eb0 f   tpic.obj
 0001:000b8b50       _buildMNUPIC               004c9b50 f   tpic.obj
 0001:000b8e50       _setSelectorAndAddToTable  004c9e50 f   tpic.obj
 0001:000b8f70       _patchToOpenPIC            004c9f70 f   tpic.obj
 0001:000b9120       _buildOpenPIC              004ca120 f   tpic.obj
 0001:000b9830       _buildClosedPIC            004ca830 f   tpic.obj
 0001:000ba780       _nPICNthTarget             004cb780 f   tpic.obj
 0001:000b5a20       _tpAt                      004c6a20 f   txsubscript.obj
 0001:000b5d60       _tpAtPut                   004c6d60 f   txsubscript.obj
 0001:000b6220       _tAtPutSpanFix             004c7220 f   txsubscript.obj
 0001:000b6310       _tpSize                    004c7310 f   txsubscript.obj
 0001:000b6560       _tpStringAt                004c7560 f   txsubscript.obj
 0001:000b66c0       _tpStringAtPut             004c76c0 f   txsubscript.obj
 0001:000b6840       _tpString2At               004c7840 f   txsubscript.obj
 0001:000b6860       _tp16BitAt                 004c7860 f   txsubscript.obj
 0001:000b69e0       _tpWordAt                  004c79e0 f   txsubscript.obj
 0001:000b6a00       _tpString2AtPut            004c7a00 f   txsubscript.obj
 0001:000b6a20       _tp16BitAtPut              004c7a20 f   txsubscript.obj
 0001:000b6bf0       _tpWordAtPut               004c7bf0 f   txsubscript.obj
 0001:000b6c10       _tpByteAt                  004c7c10 f   txsubscript.obj
 0001:000b6c70       _tpByteAtPut               004c7c70 f   txsubscript.obj
 0001:000b6d80       _tpUShortAt                004c7d80 f   txsubscript.obj
 0001:000b6e10       _tpULongAt                 004c7e10 f   txsubscript.obj
 0001:000b6ed0       _tpFloatAt                 004c7ed0 f   txsubscript.obj
 0001:000b6ef0       _tFPAt                     004c7ef0 f   txsubscript.obj
 0001:000b70b0       _tpDoubleAt                004c80b0 f   txsubscript.obj
 0001:000b70d0       _tpFloatAtPut              004c80d0 f   txsubscript.obj
 0001:000b70f0       _tFPAtPut                  004c80f0 f   txsubscript.obj
 0001:000b7250       _tpDoubleAtPut             004c8250 f   txsubscript.obj
 0001:000b72d0       _tJumpSizeLEUR             004c82d0 f   txsubscript.obj
 0001:000b7410       _tGetSize                  004c8410 f   txsubscript.obj
 0001:000b7500       _tGetSizeFailIfImmutable   004c8500 f   txsubscript.obj
 0001:000b7610       _tFailIfNotCharOfMaxValue  004c8610 f   txsubscript.obj
 0001:000b7680       _tByteSetup                004c8680 f   txsubscript.obj
 0001:000b7780       _tByteFinish               004c8780 f   txsubscript.obj
 0001:000b78d0       _tpNextPut                 004c88d0 f   txsubscript.obj
 0001:000b7990       _tStreamSetup              004c8990 f   txsubscript.obj
 0001:000b7b40       _tpNext                    004c8b40 f   txsubscript.obj
 0001:000b7b70       _tpAtEnd                   004c8b70 f   txsubscript.obj
 0001:000b5400       _defineTxPrims             004c6400 f   txprim.obj
 0001:000b4280       _trMakeCopyingBlock1       004c5280 f   txmem.obj
 0001:000b4330       _trCreateArray             004c5330 f   txmem.obj
 0001:000b4380       _tpMakePoint               004c5380 f   txmem.obj
 0001:000b4450       _tpNew                     004c5450 f   txmem.obj
 0001:000b45a0       _tpNewWithArg              004c55a0 f   txmem.obj
 0001:000b49c0       _tpHash                    004c59c0 f   txmem.obj
 0001:000b4ab0       _tpNotEquivalent           004c5ab0 f   txmem.obj
 0001:000b4ae0       _tpEquivalent              004c5ae0 f   txmem.obj
 0001:000b4b10       _tpClass                   004c5b10 f   txmem.obj
 0001:000b4b30       _tpCharAsInt               004c5b30 f   txmem.obj
 0001:000b4b50       _tpCharWithValue           004c5b50 f   txmem.obj
 0001:000b4c40       _tpImmAsInt                004c5c40 f   txmem.obj
 0001:000b4c70       _tpMaxHash                 004c5c70 f   txmem.obj
 0001:000b4d30       _tAllocate                 004c5d30 f   txmem.obj
 0001:000b5200       _tFill                     004c6200 f   txmem.obj
 0001:000b3770       _tpValueAny                004c4770 f   txcontrol.obj
 0001:000b38f0       _tpPerform0                004c48f0 f   txcontrol.obj
 0001:000b3980       _tpPerform1                004c4980 f   txcontrol.obj
 0001:000b3a20       _trAbortSend               004c4a20 f   txcontrol.obj
 0001:000b3a40       _trAbortPrimFail           004c4a40 f   txcontrol.obj
 0001:000b3a60       _trAbortEntry              004c4a60 f   txcontrol.obj
 0001:000b3b30       _trAbortNoFrame            004c4b30 f   txcontrol.obj
 0001:000b3f20       _tPerform                  004c4f20 f   txcontrol.obj
 0001:000b3fe0       _tFindMethod               004c4fe0 f   txcontrol.obj
 0001:000b1df0       _tpIntAdd                  004c2df0 f   txarith.obj
 0001:000b1ef0       _tpIntSub                  004c2ef0 f   txarith.obj
 0001:000b1ff0       _tpIntLt                   004c2ff0 f   txarith.obj
 0001:000b2010       _tpIntGt                   004c3010 f   txarith.obj
 0001:000b2030       _tpIntLe                   004c3030 f   txarith.obj
 0001:000b2050       _tpIntGe                   004c3050 f   txarith.obj
 0001:000b2070       _tpIntEq                   004c3070 f   txarith.obj
 0001:000b2090       _tpIntNe                   004c3090 f   txarith.obj
 0001:000b20b0       _tpMul                     004c30b0 f   txarith.obj
 0001:000b21c0       _tpDivide                  004c31c0 f   txarith.obj
 0001:000b23a0       _tpMod                     004c33a0 f   txarith.obj
 0001:000b24b0       _tpDiv                     004c34b0 f   txarith.obj
 0001:000b2610       _tpQuo                     004c3610 f   txarith.obj
 0001:000b2680       _tpBitAnd                  004c3680 f   txarith.obj
 0001:000b2710       _tpBitOr                   004c3710 f   txarith.obj
 0001:000b27a0       _tpBitXor                  004c37a0 f   txarith.obj
 0001:000b2840       _tpBitShift                004c3840 f   txarith.obj
 0001:000b2b90       _tpAsFloat                 004c3b90 f   txarith.obj
 0001:000b2c70       _tpAsDouble                004c3c70 f   txarith.obj
 0001:000b2d50       _tpFloatArith              004c3d50 f   txarith.obj
 0001:000b2d80       _tpDoubleArith             004c3d80 f   txarith.obj
 0001:000b2db0       _tpFloatCompare            004c3db0 f   txarith.obj
 0001:000b2de0       _tpDoubleCompare           004c3de0 f   txarith.obj
 0001:000b2e10       _tpIntRel                  004c3e10 f   txarith.obj
 0001:000b2eb0       _tPreDiv                   004c3eb0 f   txarith.obj
 0001:000b2f10       _tPostDiv                  004c3f10 f   txarith.obj
 0001:000b3010       _tFloatCompare             004c4010 f   txarith.obj
 0001:000b32d0       _tPreFloat2                004c42d0 f   txarith.obj
 0001:000b33c0       _tFloatArith2              004c43c0 f   txarith.obj
 0001:000af8e0       _regRelease                004c08e0 f   tregs.obj
 0001:000af960       _stackReplace              004c0960 f   tregs.obj
 0001:000ad5d0       _distributeThroughout      004be5d0 f   tnmprim.obj
 0001:000ad6b0       _primFlushCache            004be6b0 f   tnmprim.obj
 0001:000ad6c0       _primFlushEntries          004be6c0 f   tnmprim.obj
 0001:000ad6e0       _primFlushCachedCodeForMethod 004be6e0 f   tnmprim.obj
 0001:000ad7f0       _primQuerySetInlineNonArithSpecialSelectors 004be7f0 f   tnmprim.obj
 0001:000ad940       _enableProfiling           004be940 f   tnmprim.obj
 0001:000ade70       _nzoneSymbolTable          004bee70 f   tnmprim.obj
 0001:000ae080       _nzoneSymbolTableInto      004bf080 f   tnmprim.obj
 0001:000ae2f0       _totalFromUpto             004bf2f0 f   tnmprim.obj
 0001:000ae320       _getProfileRanges          004bf320 f   tnmprim.obj
 0001:000aea40       _primNMethodInfo           004bfa40 f   tnmprim.obj
 0001:000aeee0       _primDumpStack             004bfee0 f   tnmprim.obj
 0001:000aef40       _primNMethodFor            004bff40 f   tnmprim.obj
 0001:000af010       _decompileNMethod          004c0010 f   tnmprim.obj
 0001:000abad0       _enumerateNewLits          004bcad0 f   tmaprt.obj
 0001:000ac620       _getPrimMap                004bd620 f   tmaprt.obj
 0001:000a99b0       _addToOEPTable             004ba9b0 f   tmain.obj
 0001:000a9b30       _tGenerate1Proc            004bab30 f   tmain.obj
 0001:000aa240       _fprintCurrentVMethod      004bb240 f   tmain.obj
 0001:000aa460       _printNMethodFields        004bb460 f   tmain.obj
 0001:000aaa30       _fprintBytes               004bba30 f   tmain.obj
 0001:000aaae0       _lblProc                   004bbae0 f   tmain.obj
 0001:000a85a0       _genStoreInst              004b95a0 f   tloadstore.obj
 0001:000a6130       _genBxpNotBool             004b7130 f   tcodes.obj
 0001:000a6510       _tCondBranch               004b7510 f   tcodes.obj
 0001:000a5ec0       _doNothing                 004b6ec0 f   tcgencode.obj
 0001:000a4de0       _entryCode                 004b5de0 f   taux.obj
 0001:000a5260       _entryNeedsFrame           004b6260 f   taux.obj
 0001:000a5410       _saveSelectorInstructions  004b6410 f   taux.obj
 0001:000a54a0       _saveEntryInstruction      004b64a0 f   taux.obj
 0001:000a5790       _entryCallPrim             004b6790 f   taux.obj
 0001:000a4580       _actionGrow                004b5580 f   taction.obj
 0001:000a2a80       _nTableFor                 004b3a80 f   nmlookup.obj
 0001:000a2af0       _vToNMethodInTable         004b3af0 f   nmlookup.obj
 0001:000a2d50       _nTableForNMethod          004b3d50 f   nmlookup.obj
 0001:000a2e30       _addNMethodInTable         004b3e30 f   nmlookup.obj
 0001:000a3910       _clearBACCache             004b4910 f   nmlookup.obj
 0001:000a3f60       _getAccessPrimitive        004b4f60 f   nmlookup.obj
 0001:000a40c0       _printMethodWho            004b50c0 f   nmlookup.obj
 0001:000a1d40       _invalidatePostFreePICs    004b2d40 f   nmcompact.obj
 0001:000a1fe0       _freeNMethods              004b2fe0 f   nmcompact.obj
 0001:000a2100       _reverseAllChains          004b3100 f   nmcompact.obj
 0001:000a2480       _doPlanCompactNMethods     004b3480 f   nmcompact.obj
 0001:000a2500       _markFrameNMethod          004b3500 f   nmcompact.obj
 0001:000a2590       _fixFrameNMethod           004b3590 f   nmcompact.obj
 0001:000a25f0       _fixMoveNMethods           004b35f0 f   nmcompact.obj
 0001:000a26c0       _fixListNMethod            004b36c0 f   nmcompact.obj
 0001:000a26e0       _moveNMethodsAndCollectFreeSpace 004b36e0 f   nmcompact.obj
 0001:000a2740       _moveNMethods              004b3740 f   nmcompact.obj
 0001:000a2840       _moveNMethodsAndProfile    004b3840 f   nmcompact.obj
 0001:000a12a0       _tryCompactNMethods        004b22a0 f   nmalloc.obj
 0001:0009f710       _buildPrimitiveFrame       004b0710 f   vmsupport.obj
 0001:000a07f0       _failCommittedPrimitive    004b17f0 f   vmsupport.obj
 0001:0009e750       _stackReInit               004af750 f   stackzone.obj
 0001:0009eb10       _compactStacks             004afb10 f   stackzone.obj
 0001:0009c220       _nulltest                  004ad220 f   stackframe.obj
 0001:0009d1a0       _stabilizeTopFrame         004ae1a0 f   stackframe.obj
 0001:0009b0f0       _anySynchronousRequests    004ac0f0 f   services.obj
 0001:00098880       _value0                    004a9880 f   primSends.obj
 0001:000989a0       _handleBlockValueTranFailure 004a99a0 f   primSends.obj
 0001:00098aa0       _value1                    004a9aa0 f   primSends.obj
 0001:00098bc0       _value2                    004a9bc0 f   primSends.obj
 0001:00098cf0       _value3                    004a9cf0 f   primSends.obj
 0001:00098e20       _valueWithArgs             004a9e20 f   primSends.obj
 0001:00099140       _perform0                  004aa140 f   primSends.obj
 0001:000992d0       _perform1                  004aa2d0 f   primSends.obj
 0001:00099470       _perform2                  004aa470 f   primSends.obj
 0001:00099680       _performWithArgs           004aa680 f   primSends.obj
 0001:000996a0       _doPerformWithArgs         004aa6a0 f   primSends.obj
 0001:00099b80       _performAboveWithArgs      004aab80 f   primSends.obj
 0001:00099ba0       _mirrorPerformWithArgs     004aaba0 f   primSends.obj
 0001:00099bd0       _mirrorPerformAboveWithArgs 004aabd0 f   primSends.obj
 0001:00099c00       _execWithReceiverAndArgs   004aac00 f   primSends.obj
 0001:00097930       _mustBeBoolean             004a8930 f   nsupport.obj
 0001:00093590       _popAllVolatile            004a4590 f   nlreturn.obj
 0001:00093d30       _onChainCheckUnwinds       004a4d30 f   nlreturn.obj
 0001:00094220       _sendNLR                   004a5220 f   nlreturn.obj
 0001:0008f400       _primContextNFromVPC       004a0400 f   contexts.obj
 0001:0008f4b0       _primContextVFromNPC       004a04b0 f   contexts.obj
 0001:0008f580       _firstOnSenderChain        004a0580 f   contexts.obj
 0001:0008f5c0       _onChain                   004a05c0 f   contexts.obj
 0001:0008f8a0       _hasSender                 004a08a0 f   contexts.obj
 0001:0008f8e0       _findNextMarkedUpto        004a08e0 f   contexts.obj
 0001:0008fb50       _sender                    004a0b50 f   contexts.obj
 0001:0008fda0       _primTerminateTo           004a0da0 f   contexts.obj
 0001:000901c0       _contextLocalAt            004a11c0 f   contexts.obj
 0001:00090690       _contextLocalAtPut         004a1690 f   contexts.obj
 0001:00090b40       _contextAt                 004a1b40 f   contexts.obj
 0001:00090c30       _contextAtPut              004a1c30 f   contexts.obj
 0001:00090e90       _contextSize               004a1e90 f   contexts.obj
 0001:00090f40       _contextInstVarAt          004a1f40 f   contexts.obj
 0001:00090ff0       _contextInstVarAtPut       004a1ff0 f   contexts.obj
 0001:0008b130       _checkAnObjRef             0049c130 f   checks.obj
 0001:0008d110       _printIfProcess            0049e110 f   checks.obj
 0001:0008d3e0       _dumpStringOop             0049e3e0 f   checks.obj
 0001:0008d790       _selectorName              0049e790 f   checks.obj
 0001:00089f00       _growSysOopRegistry        0049af00 f   mmSysOop.obj
 0001:00085470       _objectAt                  00496470 f   mmSubscript.obj
 0001:00085580       _objectAtPut               00496580 f   mmSubscript.obj
 0001:00085790       _objectSize                00496790 f   mmSubscript.obj
 0001:00085840       _stringAt                  00496840 f   mmSubscript.obj
 0001:000858f0       _stringAtPut               004968f0 f   mmSubscript.obj
 0001:000859e0       _streamNext                004969e0 f   mmSubscript.obj
 0001:00085b00       _streamNextPut             00496b00 f   mmSubscript.obj
 0001:00085c60       _streamAtEnd               00496c60 f   mmSubscript.obj
 0001:00085cb0       _instVarAt                 00496cb0 f   mmSubscript.obj
 0001:00085d40       _instVarAtPut              00496d40 f   mmSubscript.obj
 0001:00085e90       _mirrorAt                  00496e90 f   mmSubscript.obj
 0001:00086000       _mirrorAtPut               00497000 f   mmSubscript.obj
 0001:00086250       _mirrorSize                00497250 f   mmSubscript.obj
 0001:00086330       _mirrorInstVarAt           00497330 f   mmSubscript.obj
 0001:000863f0       _mirrorInstVarAtPut        004973f0 f   mmSubscript.obj
 0001:00086560       _stringReplaceFromToWith   00497560 f   mmSubscript.obj
 0001:000865b0       _replaceFromToWith         004975b0 f   mmSubscript.obj
 0001:00086730       _replaceBytesFromToWith    00497730 f   mmSubscript.obj
 0001:00086780       _replaceBytesFromToWithMap 00497780 f   mmSubscript.obj
 0001:000867f0       _replaceFromToWithMap      004977f0 f   mmSubscript.obj
 0001:000869e0       _stringEq                  004979e0 f   mmSubscript.obj
 0001:00086ae0       _immediateAsSmallInteger   00497ae0 f   mmSubscript.obj
 0001:00086b00       _charWithValue             00497b00 f   mmSubscript.obj
 0001:00086b40       _string2At                 00497b40 f   mmSubscript.obj
 0001:00086bf0       _string2AtPut              00497bf0 f   mmSubscript.obj
 0001:00086ce0       _asciiStringAt             00497ce0 f   mmSubscript.obj
 0001:00086db0       _asciiStringAtPut          00497db0 f   mmSubscript.obj
 0001:00086ea0       _stringCompare             00497ea0 f   mmSubscript.obj
 0001:00087100       _string2NextIndexOf        00498100 f   mmSubscript.obj
 0001:00087230       _stringNextIndexOf         00498230 f   mmSubscript.obj
 0001:00087350       _string2PrevIndexOf        00498350 f   mmSubscript.obj
 0001:00087480       _stringPrevIndexOf         00498480 f   mmSubscript.obj
 0001:000875a0       _byteArrayAt               004985a0 f   mmSubscript.obj
 0001:00087650       _byteArrayAtPut            00498650 f   mmSubscript.obj
 0001:00087730       _arrayIndexOfReplaceWith   00498730 f   mmSubscript.obj
 0001:00087a20       _wordArrayAt               00498a20 f   mmSubscript.obj
 0001:00087ad0       _wordArrayAtPut            00498ad0 f   mmSubscript.obj
 0001:00087bc0       _largeWordArrayAt          00498bc0 f   mmSubscript.obj
 0001:00087cf0       _largeWordArrayAtPut       00498cf0 f   mmSubscript.obj
 0001:00087e90       _scanForString             00498e90 f   mmSubscript.obj
 0001:000880d0       _arrayReplaceFromToWith    004990d0 f   mmSubscript.obj
 0001:00088390       _isBigEndian               00499390 f   mmSubscript.obj
 0001:000883a0       _uShortAt                  004993a0 f   mmSubscript.obj
 0001:00088460       _uShortAtPut               00499460 f   mmSubscript.obj
 0001:00088550       _shortAt                   00499550 f   mmSubscript.obj
 0001:00088620       _shortAtPut                00499620 f   mmSubscript.obj
 0001:00088720       _uLongAt                   00499720 f   mmSubscript.obj
 0001:000888e0       _uLongAtPut                004998e0 f   mmSubscript.obj
 0001:00088a90       _longAt                    00499a90 f   mmSubscript.obj
 0001:00088c70       _longAtPut                 00499c70 f   mmSubscript.obj
 0001:00088e50       _uLongLongAt               00499e50 f   mmSubscript.obj
 0001:00088f20       _uLongLongAtPut            00499f20 f   mmSubscript.obj
 0001:00089080       _longLongAt                0049a080 f   mmSubscript.obj
 0001:00089150       _longLongAtPut             0049a150 f   mmSubscript.obj
 0001:000892c0       _floatAt                   0049a2c0 f   mmSubscript.obj
 0001:000894a0       _floatAtPut                0049a4a0 f   mmSubscript.obj
 0001:000895f0       _doubleAt                  0049a5f0 f   mmSubscript.obj
 0001:000897f0       _doubleAtPut               0049a7f0 f   mmSubscript.obj
 0001:00083f20       _mustMapNToVPC             00494f20 f   mmSnapshot.obj
 0001:00083fb0       _reportBadNPC              00494fb0 f   mmSnapshot.obj
 0001:00084040       _getHeraldString           00495040 f   mmSnapshot.obj
 0001:00084090       _setHeraldString           00495090 f   mmSnapshot.obj
 0001:000840d0       _snapshot                  004950d0 f   mmSnapshot.obj
 0001:00084b20       _writeSnapshotFile         00495b20 f   mmSnapshot.obj
 0001:00084c70       _writeSnapshotHeader       00495c70 f   mmSnapshot.obj
 0001:0007e5a0       _tenureAccordingToReferenceCount 0048f5a0 f   mmScavenge.obj
 0001:0007e5f0       _tenureAccordingToClass    0048f5f0 f   mmScavenge.obj
 0001:0007e610       _tenureAccordingToOwnership 0048f610 f   mmScavenge.obj
 0001:0007e630       _tenureEveryone            0048f630 f   mmScavenge.obj
 0001:0007e640       _tenureDesignatedObjs      0048f640 f   mmScavenge.obj
 0001:0007e670       _generationScavenger       0048f670 f   mmScavenge.obj
 0001:0007ee20       _tenureLargeSpaceObjects   0048fe20 f   mmScavenge.obj
 0001:0007ee70       _badTimesTenureAge         0048fe70 f   mmScavenge.obj
 0001:0007eea0       _ensureFinalQueueRegisteredIfRequired 0048fea0 f   mmScavenge.obj
 0001:0007efd0       _oldSpaceTooFull           0048ffd0 f   mmScavenge.obj
 0001:0007f000       _scavengeMarkedRt          00490000 f   mmScavenge.obj
 0001:0007f220       _scavengeRt                00490220 f   mmScavenge.obj
 0001:0007f540       _referenceCountRt          00490540 f   mmScavenge.obj
 0001:0007f930       _scavengeFutureSpace       00490930 f   mmScavenge.obj
 0001:0007fbf0       _scavengeUnactivatedEphemerons 00490bf0 f   mmScavenge.obj
 0001:0007fc20       _scavengeUnactivatedFutureEphemerons 00490c20 f   mmScavenge.obj
 0001:0007ff70       _scavengeUnactivatedRtEphemerons 00490f70 f   mmScavenge.obj
 0001:00080240       _scanEphemeronList         00491240 f   mmScavenge.obj
 0001:00080520       _scavengeRtEphemeronsAndNewcomers 00491520 f   mmScavenge.obj
 0001:000809a0       _triggerEphemerons         004919a0 f   mmScavenge.obj
 0001:000810c0       _scavengeReferentsOf       004920c0 f   mmScavenge.obj
 0001:00081350       _scavengeReferentsOfNoteForward 00492350 f   mmScavenge.obj
 0001:000815f0       _scavengeRefBlock          004925f0 f   mmScavenge.obj
 0001:000819c0       _emergencyTenureObject     004929c0 f   mmScavenge.obj
 0001:00081a00       _copyToFutureSpace         00492a00 f   mmScavenge.obj
 0001:00081f10       _tenureObject              00492f10 f   mmScavenge.obj
 0001:000827a0       _updateWeakPtrs            004937a0 f   mmScavenge.obj
 0001:00082880       _updateWeakPtrsInRt        00493880 f   mmScavenge.obj
 0001:00082a00       _updateWeakPtrsOf          00493a00 f   mmScavenge.obj
 0001:00082d30       _scavengeOccurredResponse  00493d30 f   mmScavenge.obj
 0001:00082db0       _setThresholds             00493db0 f   mmScavenge.obj
 0001:000830d0       _defaultThresholds         004940d0 f   mmScavenge.obj
 0001:00083930       _ephemeronListIsOk         00494930 f   mmScavenge.obj
 0001:00083a20       _headOnTailOfEphemeronList 00494a20 f   mmScavenge.obj
 0001:00083a50       _forwardedObjOnEphemeronList 00494a50 f   mmScavenge.obj
 0001:00083ae0       _checkWeakObjsInRt         00494ae0 f   mmScavenge.obj
 0001:00083b00       _offendingGCSSpecialEntryInRt 00494b00 f   mmScavenge.obj
 0001:00083c60       _checkObjsInRt             00494c60 f   mmScavenge.obj
 0001:0007d4e0       _growRt                    0048e4e0 f   mmRt.obj
 0001:0007be10       _coreLeft                  0048ce10 f   mmResources.obj
 0001:0007be50       _oopsLeft                  0048ce50 f   mmResources.obj
 0001:0007be90       _otEntriesInOldSpaceMinusReserve 0048ce90 f   mmResources.obj
 0001:0007bee0       _setLowSpaceSignal         0048cee0 f   mmResources.obj
 0001:0007bfe0       _setSizesAtStartup         0048cfe0 f   mmResources.obj
 0001:0007c1f0       _sizesAtStartup            0048d1f0 f   mmResources.obj
 0001:00075c40       _preemptActiveProcess      00486c40 f   mmProcess.obj
 0001:000765e0       _preemptActiveProcessEnd   004875e0 f   mmProcess.obj
 0001:00076600       _getBestRunnableProcess    00487600 f   mmProcess.obj
 0001:00077230       _removeFromList            00488230 f   mmProcess.obj
 0001:000784a0       _signalSemaphore           004894a0 f   mmProcess.obj
 0001:00078ca0       _waitOnSemaphore           00489ca0 f   mmProcess.obj
 0001:000793a0       _resumeProcess             0048a3a0 f   mmProcess.obj
 0001:00079a90       _suspendProcess            0048aa90 f   mmProcess.obj
 0001:00079ab0       _suspendOrTerminateProcess 0048aab0 f   mmProcess.obj
 0001:00079d60       _terminateProcess          0048ad60 f   mmProcess.obj
 0001:00079d80       _changePriority            0048ad80 f   mmProcess.obj
 0001:0007a6b0       _yieldProcess              0048b6b0 f   mmProcess.obj
 0001:0006cbe0       _removeSmallest            0047dbe0 f   mmOldSpace.obj
 0001:0006d860       _allocateOldSpaceSegment   0047e860 f   mmOldSpace.obj
 0001:0006d950       _initOldSpaceSegment       0047e950 f   mmOldSpace.obj
 0001:0006dbf0       _updateCachedDataPtrs      0047ebf0 f   mmOldSpace.obj
 0001:0006dc20       _compactOt                 0047ec20 f   mmOldSpace.obj
 0001:0006eec0       _sweepOt                   0047fec0 f   mmOldSpace.obj
 0001:0006ef20       _compactOsSlots            0047ff20 f   mmOldSpace.obj
 0001:0006ef70       _compactSegmentData        0047ff70 f   mmOldSpace.obj
 0001:0006f1e0       _copyToSegmentFromSegment  004801e0 f   mmOldSpace.obj
 0001:0006f480       _findFirstFreeBlock        00480480 f   mmOldSpace.obj
 0001:0006fe00       _searchSpace               00480e00 f   mmOldSpace.obj
 0001:0006fea0       _searchSpaceSeg            00480ea0 f   mmOldSpace.obj
 0001:00070800       _applySearchCriterionFunc  00481800 f   mmOldSpace.obj
 0001:00072430       _validSizeOf               00483430 f   mmOldSpace.obj
 0001:00072650       _oldSpaceSegsOk            00483650 f   mmOldSpace.obj
 0001:00072b30       _oldSpaceHasNoLeaksPrivate 00483b30 f   mmOldSpace.obj
 0001:00072db0       _clearOldDataWithPermOtEntries 00483db0 f   mmOldSpace.obj
 0001:00072e20       _clearThreadedDataEntries  00483e20 f   mmOldSpace.obj
 0001:00072e30       _clearCheckMapForThreadedDataBlock 00483e30 f   mmOldSpace.obj
 0001:00072e50       _setCheckMapBits           00483e50 f   mmOldSpace.obj
 0001:00072e80       _verifyDataWalk            00483e80 f   mmOldSpace.obj
 0001:000730d0       _reserveSpaceForData       004840d0 f   mmOldSpace.obj
 0001:00073220       _setOsReserve              00484220 f   mmOldSpace.obj
 0001:00073260       _memoryUsage               00484260 f   mmOldSpace.obj
 0001:00074410       _growOldSpaceMemory        00485410 f   mmOldSpace.obj
 0001:00074480       _shrinkOldSpaceMemory      00485480 f   mmOldSpace.obj
 0001:00074520       _shrinkOldSpace            00485520 f   mmOldSpace.obj
 0001:00074800       _growFixedSpaceMemory      00485800 f   mmOldSpace.obj
 0001:0006b0d0       _releaseOopStackSeg        0047c0d0 f   mmOopStack.obj
 0001:0006b9e0       _oopStackFirstSegOop       0047c9e0 f   mmOopStack.obj
 0001:0006a850       _createBackPtrInPermObj    0047b850 f   mmOldRt.obj
 0001:0006a990       _isEntryMarked             0047b990 f   mmOldRt.obj
 0001:0006aa00       _sweepPermObj              0047ba00 f   mmOldRt.obj
 0001:0006ab90       _setNotInOldRt             0047bb90 f   mmOldRt.obj
 0001:0006ad40       _clearInOldRtFlag          0047bd40 f   mmOldRt.obj
 0001:0006adc0       _compareOop                0047bdc0 f   mmOldRt.obj
 0001:0006ae80       _assertObjInOldRt          0047be80 f   mmOldRt.obj
 0001:0006aee0       _addPermObjToCheckMarkList 0047bee0 f   mmOldRt.obj
 0001:0006af40       _measureOsData             0047bf40 f   mmOldRt.obj
 0001:00067d70       _sweepAndCompactFixedSpaceSeg 00478d70 f   mmFixedSpace.obj
 0001:00067e10       _findFreeFsBlockIn         00478e10 f   mmFixedSpace.obj
 0001:00067e50       _compactFt                 00478e50 f   mmFixedSpace.obj
 0001:00067ea0       _compactFtIn               00478ea0 f   mmFixedSpace.obj
 0001:00068090       _coalesceFreeFsBlocksIn    00479090 f   mmFixedSpace.obj
 0001:00068110       _fixedSegmentFor           00479110 f   mmFixedSpace.obj
 0001:00068160       _fixedSegmentClaimsAddress 00479160 f   mmFixedSpace.obj
 0001:000685f0       _registerFixedObj          004795f0 f   mmFixedSpace.obj
 0001:000687c0       _findFreeFsBlock           004797c0 f   mmFixedSpace.obj
 0001:000687f0       _findContiguousSlotsInFixedSpace 004797f0 f   mmFixedSpace.obj
 0001:00068990       _newFixedSpaceSegment      00479990 f   mmFixedSpace.obj
 0001:00068d90       _fixedSpaceSegmentOk       00479d90 f   mmFixedSpace.obj
 0001:00066be0       _compactLt                 00477be0 f   mmLargeSpace.obj
 0001:00066dc0       _coalesceLsFreeBlocks      00477dc0 f   mmLargeSpace.obj
 0001:00066e70       _moveOldObjectsFromLargeSpace 00477e70 f   mmLargeSpace.obj
 0001:00066ee0       _moveLsDataToOldSpace      00477ee0 f   mmLargeSpace.obj
 0001:00067570       _registerLargeObj          00478570 f   mmLargeSpace.obj
 0001:00062560       _checkFundamentalAsserts   00473560 f   mmInit.obj
 0001:00062570       _launchSystem              00473570 f   mmInit.obj
 0001:000625c0       _initMmBefore              004735c0 f   mmInit.obj
 0001:00062750       _initMmAfter               00473750 f   mmInit.obj
 0001:00062a40       _initMmPrims               00473a40 f   mmInit.obj
 0001:00062ab0       _permSpaceLoadedCleanly    00473ab0 f   mmInit.obj
 0001:00062ad0       _defaultSizesAtStartup     00473ad0 f   mmInit.obj
 0001:000631c0       _allocAndLoadObjectMemory  004741c0 f   mmInit.obj
 0001:00063590       _setSizesInSlots           00474590 f   mmInit.obj
 0001:00063770       _setSpaceStarts            00474770 f   mmInit.obj
 0001:000638a0       _allocHeadroom             004748a0 f   mmInit.obj
 0001:00063980       _initPermSpace             00474980 f   mmInit.obj
 0001:00063aa0       _initCaches                00474aa0 f   mmInit.obj
 0001:00063c80       _initNewSpace              00474c80 f   mmInit.obj
 0001:00063dc0       _initLargeSpace            00474dc0 f   mmInit.obj
 0001:00063f20       _initFixedSpace            00474f20 f   mmInit.obj
 0001:00064060       _initOldSpace              00475060 f   mmInit.obj
 0001:000641d0       _getSlotsInStackSpace      004751d0 f   mmInit.obj
 0001:000641f0       _getSlotsInNMethodZone     004751f0 f   mmInit.obj
 0001:00064230       _getSlotsInSurvSpace       00475230 f   mmInit.obj
 0001:00064270       _getSlotsInEden            00475270 f   mmInit.obj
 0001:00064290       _getSlotsInLargeSpace      00475290 f   mmInit.obj
 0001:000642c0       _getSlotsInFixedSpace      004752c0 f   mmInit.obj
 0001:000642f0       _getSlotsInPermSpace       004752f0 f   mmInit.obj
 0001:00064310       _getSlotsInOldSpace        00475310 f   mmInit.obj
 0001:00064330       _getSlotsInHeadroom        00475330 f   mmInit.obj
 0001:00064350       _convertImageFormat        00475350 f   mmInit.obj
 0001:00064380       _noteImageFormat           00475380 f   mmInit.obj
 0001:00064390       _loadPermIntoOld           00475390 f   mmInit.obj
 0001:00064490       _loadOldIntoPerm           00475490 f   mmInit.obj
 0001:000646b0       _reverseImageByteOrder     004756b0 f   mmInit.obj
 0001:00064bb0       _updatePtrs                00475bb0 f   mmInit.obj
 0001:000663d0       _updatedOldDataPtrFunc     004773d0 f   mmInit.obj
 0001:00066410       _calculateDataSandbarOffset 00477410 f   mmInit.obj
 0001:00066490       _calculateOtSandbarOffset  00477490 f   mmInit.obj
 0001:00066500       _fixUpNonPtrData           00477500 f   mmInit.obj
 0001:0005ff70       _resetIncMarkCounts        00470f70 f   mmIncGC.obj
 0001:0005ffa0       _incMarkSweep              00470fa0 f   mmIncGC.obj
 0001:00060190       _undoIncMark               00471190 f   mmIncGC.obj
 0001:000607e0       _initiateIncMark           004717e0 f   mmIncGC.obj
 0001:000608c0       _incMark                   004718c0 f   mmIncGC.obj
 0001:00060cd0       _checkMark                 00471cd0 f   mmIncGC.obj
 0001:00060d10       _checkMarkLiveObjects      00471d10 f   mmIncGC.obj
 0001:00060ed0       _checkMarkObjRefs          00471ed0 f   mmIncGC.obj
 0001:000610a0       _scanCheckMarkedButNotScannedObjects 004720a0 f   mmIncGC.obj
 0001:00061490       _checkMarkObjRefsIfPerm    00472490 f   mmIncGC.obj
 0001:00061520       _checkMarkObjFunc          00472520 f   mmIncGC.obj
 0001:000615d0       _incMarkObjFunc            004725d0 f   mmIncGC.obj
 0001:00061660       _incMarkLoop               00472660 f   mmIncGC.obj
 0001:00061ca0       _addToEphemeronQueueGC     00472ca0 f   mmIncGC.obj
 0001:00061ce0       _pushMarkStackFunc         00472ce0 f   mmIncGC.obj
 0001:00061d60       _ephemeronNotActivatedFunc 00472d60 f   mmIncGC.obj
 0001:00061d90       _alwaysFalse               00472d90 f   mmIncGC.obj
 0001:00061da0       _ephemeronMustBeActivatedFunc 00472da0 f   mmIncGC.obj
 0001:00061de0       _incNilWeakPtrs            00472de0 f   mmIncGC.obj
 0001:000621e0       _uncheckMarkAllNonPermOldObjects 004731e0 f   mmIncGC.obj
 0001:000622f0       _incGCPrim                 004732f0 f   mmIncGC.obj
 0001:000623c0       _abortIncMarkPrim          004733c0 f   mmIncGC.obj
 0001:0005dfd0       _globalGarbageCollect      0046efd0 f   mmGarbage.obj
 0001:0005e030       _garbageCollect            0046f030 f   mmGarbage.obj
 0001:0005e090       _markSweepAndCompact       0046f090 f   mmGarbage.obj
 0001:0005e2b0       _markLiveObjects           0046f2b0 f   mmGarbage.obj
 0001:0005e760       _markObjFunc               0046f760 f   mmGarbage.obj
 0001:0005e850       _markObjRefs               0046f850 f   mmGarbage.obj
 0001:0005ec40       _markObjRefsIfPerm         0046fc40 f   mmGarbage.obj
 0001:0005ecd0       _scanMarkedButUnscannedObjects 0046fcd0 f   mmGarbage.obj
 0001:0005f1f0       _scanMarkedButUnscannedObjectsInNewSpace 004701f0 f   mmGarbage.obj
 0001:0005f650       _noObjectsNeedScanning     00470650 f   mmGarbage.obj
 0001:0005f840       _moveIneligibleEphemeronsToMarkList 00470840 f   mmGarbage.obj
 0001:0005fa20       _sweepWeakPtrs             00470a20 f   mmGarbage.obj
 0001:0005fc30       _flushNewSpacePrim         00470c30 f   mmGarbage.obj
 0001:0005fc70       _compactPrim               00470c70 f   mmGarbage.obj
 0001:0005d460       _makeRoomOnFinalQueue      0046e460 f   mmFinal.obj
 0001:0005daa0       _installFinalizationSemaphore 0046eaa0 f   mmFinal.obj
 0001:0005db50       _fetchFromFinalizationQueue 0046eb50 f   mmFinal.obj
 0001:0005dc10       _isWeak                    0046ec10 f   mmFinal.obj
 0001:0005dc50       _isActiveEphemeron         0046ec50 f   mmFinal.obj
 0001:0005dc90       _makeWeak                  0046ec90 f   mmFinal.obj
 0001:0005dd70       _makeEphemeron             0046ed70 f   mmFinal.obj
 0001:0005c460       _someInstance              0046d460 f   mmEnumerate.obj
 0001:0005c570       _objIsInstanceOf           0046d570 f   mmEnumerate.obj
 0001:0005c590       _objIsInstanceOfContextClass 0046d590 f   mmEnumerate.obj
 0001:0005c5d0       _nextInstance              0046d5d0 f   mmEnumerate.obj
 0001:0005c670       _allInstancesWeakly        0046d670 f   mmEnumerate.obj
 0001:0005c840       _allInstancesOfAnyWeakly   0046d840 f   mmEnumerate.obj
 0001:0005ca50       _objIsInstanceOfAny        0046da50 f   mmEnumerate.obj
 0001:0005cac0       _firstOwner                0046dac0 f   mmEnumerate.obj
 0001:0005cb50       _ownerAfter                0046db50 f   mmEnumerate.obj
 0001:0005cbc0       _allOwnersWeakly           0046dbc0 f   mmEnumerate.obj
 0001:0005cca0       _deHybridizeCommittedContext 0046dca0 f   mmEnumerate.obj
 0001:0005ccf0       _allStrongOwnersWeakly     0046dcf0 f   mmEnumerate.obj
 0001:0005cdd0       _strongOopInObj            0046ddd0 f   mmEnumerate.obj
 0001:0005cf50       _someObject                0046df50 f   mmEnumerate.obj
 0001:0005cfe0       _objIsActive               0046dfe0 f   mmEnumerate.obj
 0001:0005cff0       _nextObject                0046dff0 f   mmEnumerate.obj
 0001:0005d050       _allObjectsWeakly          0046e050 f   mmEnumerate.obj
 0001:0005bf20       _printReferents            0046cf20 f   mmDebug.obj
 0001:0005bfb0       _safeOopInObj              0046cfb0 f   mmDebug.obj
 0001:0005a040       _allocPage                 0046b040 f   mmCheckMap.obj
 0001:00055a00       _becomeDispatch            00466a00 f   mmBecome.obj
 0001:00055e20       _oldAndOldBecome           00466e20 f   mmBecome.obj
 0001:00055e90       _oldAndNewBecome           00466e90 f   mmBecome.obj
 0001:00056a20       _oldAndPermBecome          00467a20 f   mmBecome.obj
 0001:00056e40       _oldAndTaggedOldBecome     00467e40 f   mmBecome.obj
 0001:00056e70       _oldAndTaggedNewBecome     00467e70 f   mmBecome.obj
 0001:000572e0       _newAndNewBecome           004682e0 f   mmBecome.obj
 0001:00057930       _newAndTaggedNewBecome     00468930 f   mmBecome.obj
 0001:00057c40       _newAndTaggedOldBecome     00468c40 f   mmBecome.obj
 0001:000583e0       _permAndTaggedOldBecome    004693e0 f   mmBecome.obj
 0001:00058410       _permAndTaggedNewBecome    00469410 f   mmBecome.obj
 0001:00058750       _taggedOldAndTaggedOldBecome 00469750 f   mmBecome.obj
 0001:000587f0       _taggedOldAndTaggedNewBecome 004697f0 f   mmBecome.obj
 0001:00058830       _taggedNewAndTaggedNewBecome 00469830 f   mmBecome.obj
 0001:00058850       _reRegisterTaggedObj       00469850 f   mmBecome.obj
 0001:000588b0       _swapOtEntries             004698b0 f   mmBecome.obj
 0001:00058990       _swapTaggedObjects         00469990 f   mmBecome.obj
 0001:00058a40       _become                    00469a40 f   mmBecome.obj
 0001:00058fb0       _mirrorBecome              00469fb0 f   mmBecome.obj
 0001:00059380       _oneWayBecome              0046a380 f   mmBecome.obj
 0001:000594b0       _replaceOopInObj           0046a4b0 f   mmBecome.obj
 0001:00059800       _replaceReference          0046a800 f   mmBecome.obj
 0001:000546f0       _new                       004656f0 f   mmAllocate.obj
 0001:00054a60       _newWithArg                00465a60 f   mmAllocate.obj
 0001:00055020       _newWeakWithArg            00466020 f   mmAllocate.obj
 0001:00055330       _rawNewInFixedSpaceWithArg 00466330 f   mmAllocate.obj
 0001:000553e0       _newInFixedSpaceWithArg    004663e0 f   mmAllocate.obj
 0001:00055590       _rawNewWithArg             00466590 f   mmAllocate.obj
 0001:00055720       _objectDataIsFixed         00466720 f   mmAllocate.obj
 0001:00055770       _addressOfFixedObject      00466770 f   mmAllocate.obj
 0001:000557f0       _objectShallowCopy         004667f0 f   mmAllocate.obj
 0001:00052c00       _objectHash                00463c00 f   mm.obj
 0001:00052c40       _primHasHash               00463c40 f   mm.obj
 0001:00052c80       _primGetHash               00463c80 f   mm.obj
 0001:00052cd0       _primSetHash               00463cd0 f   mm.obj
 0001:00052d40       _primGetImmutability       00463d40 f   mm.obj
 0001:00052d70       _primSetImmutability       00463d70 f   mm.obj
 0001:00052e60       _mirrorGetImmutability     00463e60 f   mm.obj
 0001:00052e90       _mirrorSetImmutability     00463e90 f   mm.obj
 0001:00052f80       _notEquivalent             00463f80 f   mm.obj
 0001:00052fb0       _equivalent                00463fb0 f   mm.obj
 0001:00052fe0       _objectClass               00463fe0 f   mm.obj
 0001:00053010       _mirrorHash                00464010 f   mm.obj
 0001:00053050       _mirrorNotEquivalent       00464050 f   mm.obj
 0001:00053080       _mirrorEquivalent          00464080 f   mm.obj
 0001:000530b0       _mirrorClass               004640b0 f   mm.obj
 0001:000530e0       _changeClass               004640e0 f   mm.obj
 0001:00053490       _adoptInstance             00464490 f   mm.obj
 0001:00051f90       _mapLinkedInExternalName   00462f90 f   prLinkRegistry.obj
 0001:0004d240       _largeIntAdd               0045e240 f   prLarge.obj
 0001:0004d4f0       _integerDataClean          0045e4f0 f   prLarge.obj
 0001:0004d580       _integerObjectClean        0045e580 f   prLarge.obj
 0001:0004d600       _compress                  0045e600 f   prLarge.obj
 0001:0004d900       _digitAdd                  0045e900 f   prLarge.obj
 0001:0004da40       _newInteger                0045ea40 f   prLarge.obj
 0001:0004dbc0       _digitSubtract             0045ebc0 f   prLarge.obj
 0001:0004dd20       _largeIntSubtract          0045ed20 f   prLarge.obj
 0001:0004dfd0       _largeIntLess              0045efd0 f   prLarge.obj
 0001:0004e1e0       _digitCompare              0045f1e0 f   prLarge.obj
 0001:0004e240       _largeIntGreater           0045f240 f   prLarge.obj
 0001:0004e470       _largeIntLessEq            0045f470 f   prLarge.obj
 0001:0004e680       _largeIntGreaterEq         0045f680 f   prLarge.obj
 0001:0004e8b0       _largeIntEq                0045f8b0 f   prLarge.obj
 0001:0004eac0       _largeIntNotEq             0045fac0 f   prLarge.obj
 0001:0004ecd0       _largeIntTimes             0045fcd0 f   prLarge.obj
 0001:0004f040       _largeIntDivide            00460040 f   prLarge.obj
 0001:0004f2e0       _digitDiv                  004602e0 f   prLarge.obj
 0001:0004f6b0       _high_bit                  004606b0 f   prLarge.obj
 0001:0004f700       _largeLeftShift            00460700 f   prLarge.obj
 0001:0004f810       _largeRightShift           00460810 f   prLarge.obj
 0001:0004f950       _digitDivSmall             00460950 f   prLarge.obj
 0001:0004fae0       _largeIntMod               00460ae0 f   prLarge.obj
 0001:0004fd80       _largeIntDiv               00460d80 f   prLarge.obj
 0001:00050020       _largeIntQuo               00461020 f   prLarge.obj
 0001:00050270       _largeIntAnd               00461270 f   prLarge.obj
 0001:000505d0       _largeIntOr                004615d0 f   prLarge.obj
 0001:00050930       _largeIntXor               00461930 f   prLarge.obj
 0001:00050c90       _largeIntShift             00461c90 f   prLarge.obj
 0001:00050e10       _largeIntGCD3              00461e10 f   prLarge.obj
 0001:00051820       _gcdSubtract               00462820 f   prLarge.obj
 0001:00051900       _gcdShift                  00462900 f   prLarge.obj
 0001:00051a80       _lowBit                    00462a80 f   prLarge.obj
 0001:00051ac0       _largeHighBit              00462ac0 f   prLarge.obj
 0001:00051b00       _extractHigh               00462b00 f   prLarge.obj
 0001:00051b50       _productAndAdd             00462b50 f   prLarge.obj
 0001:00051d70       _smallIntGCD               00462d70 f   prLarge.obj
 0001:0004b490       _asFloat                   0045c490 f   prFloat.obj
 0001:0004b590       _floatPlus                 0045c590 f   prFloat.obj
 0001:0004b710       _floatMinus                0045c710 f   prFloat.obj
 0001:0004b890       _floatLt                   0045c890 f   prFloat.obj
 0001:0004b940       _floatGt                   0045c940 f   prFloat.obj
 0001:0004b9f0       _floatLe                   0045c9f0 f   prFloat.obj
 0001:0004baa0       _floatGe                   0045caa0 f   prFloat.obj
 0001:0004bb50       _floatEq                   0045cb50 f   prFloat.obj
 0001:0004bc00       _floatNe                   0045cc00 f   prFloat.obj
 0001:0004bcb0       _floatTimes                0045ccb0 f   prFloat.obj
 0001:0004be30       _floatDivide               0045ce30 f   prFloat.obj
 0001:0004bfb0       _floatTruncated            0045cfb0 f   prFloat.obj
 0001:0004c000       _floatFractionPart         0045d000 f   prFloat.obj
 0001:0004c160       _floatExponent             0045d160 f   prFloat.obj
 0001:0004c190       _floatTimesTwoPower        0045d190 f   prFloat.obj
 0001:0004c350       _floatRounded              0045d350 f   prFloat.obj
 0001:0004c3d0       _floatSin                  0045d3d0 f   prFloat.obj
 0001:0004c510       _floatCos                  0045d510 f   prFloat.obj
 0001:0004c650       _floatTan                  0045d650 f   prFloat.obj
 0001:0004c790       _floatArcSin               0045d790 f   prFloat.obj
 0001:0004c8d0       _floatArcCos               0045d8d0 f   prFloat.obj
 0001:0004ca10       _floatArcTan               0045da10 f   prFloat.obj
 0001:0004cb50       _floatSqrt                 0045db50 f   prFloat.obj
 0001:0004cc90       _floatLn                   0045dc90 f   prFloat.obj
 0001:0004cdd0       _floatExp                  0045ddd0 f   prFloat.obj
 0001:0004cf10       _floatRaisedTo             0045df10 f   prFloat.obj
 0001:0004d080       _floatFloorLog10           0045e080 f   prFloat.obj
 0001:000492a0       _doubleFromNumber          0045a2a0 f   prDouble.obj
 0001:000493f0       _doubleAsFloat             0045a3f0 f   prDouble.obj
 0001:00049510       _doublePlus                0045a510 f   prDouble.obj
 0001:000496a0       _doubleMinus               0045a6a0 f   prDouble.obj
 0001:00049830       _doubleLt                  0045a830 f   prDouble.obj
 0001:00049900       _doubleGt                  0045a900 f   prDouble.obj
 0001:000499d0       _doubleLe                  0045a9d0 f   prDouble.obj
 0001:00049aa0       _doubleGe                  0045aaa0 f   prDouble.obj
 0001:00049b70       _doubleEq                  0045ab70 f   prDouble.obj
 0001:00049c30       _doubleNe                  0045ac30 f   prDouble.obj
 0001:00049cf0       _doubleTimes               0045acf0 f   prDouble.obj
 0001:00049e80       _doubleDivide              0045ae80 f   prDouble.obj
 0001:0004a010       _doubleTruncated           0045b010 f   prDouble.obj
 0001:0004a090       _doubleFractionPart        0045b090 f   prDouble.obj
 0001:0004a200       _doubleExponent            0045b200 f   prDouble.obj
 0001:0004a240       _doubleTimesTwoPower       0045b240 f   prDouble.obj
 0001:0004a3c0       _doubleRounded             0045b3c0 f   prDouble.obj
 0001:0004a460       _doubleSin                 0045b460 f   prDouble.obj
 0001:0004a5a0       _doubleCos                 0045b5a0 f   prDouble.obj
 0001:0004a6e0       _doubleTan                 0045b6e0 f   prDouble.obj
 0001:0004a820       _doubleArcSin              0045b820 f   prDouble.obj
 0001:0004a960       _doubleArcCos              0045b960 f   prDouble.obj
 0001:0004aaa0       _doubleArcTan              0045baa0 f   prDouble.obj
 0001:0004abe0       _doubleSqrt                0045bbe0 f   prDouble.obj
 0001:0004ad20       _doubleLn                  0045bd20 f   prDouble.obj
 0001:0004ae60       _doubleExp                 0045be60 f   prDouble.obj
 0001:0004afa0       _doubleRaisedTo            0045bfa0 f   prDouble.obj
 0001:0004b160       _doubleFloorLog10          0045c160 f   prDouble.obj
 0001:0004b1d0       _smallIntegerAsDouble      0045c1d0 f   prDouble.obj
 0001:00046780       _cToOEint                  00457780 f   prCtoST.obj
 0001:000467e0       _cToOEfloat                004577e0 f   prCtoST.obj
 0001:00048c10       _cToOEdouble               00459c10 f   prCtoST.obj
 0001:000457a0       _intPlus                   004567a0 f   prArithmetic.obj
 0001:00045830       _intMinus                  00456830 f   prArithmetic.obj
 0001:000458b0       _intLt                     004568b0 f   prArithmetic.obj
 0001:000458f0       _intGt                     004568f0 f   prArithmetic.obj
 0001:00045930       _intLe                     00456930 f   prArithmetic.obj
 0001:00045970       _intGe                     00456970 f   prArithmetic.obj
 0001:000459b0       _intEq                     004569b0 f   prArithmetic.obj
 0001:000459f0       _intNe                     004569f0 f   prArithmetic.obj
 0001:00045a30       _intTimes                  00456a30 f   prArithmetic.obj
 0001:00045b00       _intDivide                 00456b00 f   prArithmetic.obj
 0001:00045b90       _intMod                    00456b90 f   prArithmetic.obj
 0001:00045c00       _intDiv                    00456c00 f   prArithmetic.obj
 0001:00045c90       _intQuo                    00456c90 f   prArithmetic.obj
 0001:00045d00       _bitAnd                    00456d00 f   prArithmetic.obj
 0001:00045d30       _bitOr                     00456d30 f   prArithmetic.obj
 0001:00045d60       _bitXor                    00456d60 f   prArithmetic.obj
 0001:00045d90       _bitShift                  00456d90 f   prArithmetic.obj
 0001:000460b0       _makePoint                 004570b0 f   prArithmetic.obj
 0001:000430d0       _DoCallbackReturn          004540d0 f   exThapi.obj
 0001:00043990       _KillOtherThread           00454990 f   exThapi.obj
 0001:00043ac0       _NewIOThread               00454ac0 f   exThapi.obj
 0001:000441c0       _IOStateMachine            004551c0 f   exThapi.obj
 0001:00044320       _InitialIOStateMachine@4   00455320 f   exThapi.obj
 0001:000450a0       _NewSmalltalkSemaphore     004560a0 f   exThapi.obj
 0001:00045200       _NBAPIError                00456200 f   exThapi.obj
 0001:00045270       _CurrentThreadPriority     00456270 f   exThapi.obj
 0001:00045280       _NewThread                 00456280 f   exThapi.obj
 0001:00045320       _InitSignals               00456320 f   exThapi.obj
 0001:00045330       _NewSemaphore              00456330 f   exThapi.obj
 0001:00045380       _DestroySemaphore          00456380 f   exThapi.obj
 0001:000410c0       _signalTimerSemaphore      004520c0 f   exTimer.obj
 0001:000410f0       _setAbsTimer               004520f0 f   exTimer.obj
 0001:00041180       _checkTimers               00452180 f   exTimer.obj
 0001:000412b0       _microseconds              004522b0 f   exTimer.obj
 0001:00041410       _signalAtMicroseconds      00452410 f   exTimer.obj
 0001:00040fc0       _registerCSCsem            00451fc0 f   exSignal.obj
 0001:00040960       _primScanCharacters        00451960 f   exScanCh.obj
 0001:00040c00       _primScanByteIndexed       00451c00 f   exScanCh.obj
 0001:0003f750       _checkIntArg               00450750 f   exOption.obj
 0001:0003da80       _saveCStack                0044ea80 f   exMessage.obj
 0001:0003dcd0       _markAndCallback           0044ecd0 f   exMessage.obj
 0001:0003dfc0       _sendMessageMany           0044efc0 f   exMessage.obj
 0001:0003eb80       _primExternalMessageReturn 0044fb80 f   exMessage.obj
 0001:0003ec30       _unsaveStack               0044fc30 f   exMessage.obj
 0001:0003ec40       _primExternalMessageInstall 0044fc40 f   exMessage.obj
 0001:0003ed20       _primCallbackInstall       0044fd20 f   exMessage.obj
 0001:0003eea0       _primReturnToThread        0044fea0 f   exMessage.obj
 0001:0003eef0       _primGetForeignCallbackProcess 0044fef0 f   exMessage.obj
 0001:0003ef10       _primSetForeignCallbackProcess 0044ff10 f   exMessage.obj
 0001:0003ef80       _primThreadAttachment      0044ff80 f   exMessage.obj
 0001:0003f050       _primGetThreadLevels       00450050 f   exMessage.obj
 0001:0003f130       _primSetThreadLevels       00450130 f   exMessage.obj
 0001:0003f190       _primInformSystemReady     00450190 f   exMessage.obj
 0001:0003b8f0       _exitToExec                0044c8f0 f   exLeave.obj
 0001:0003b910       _exitToExecWithErr         0044c910 f   exLeave.obj
 0001:0003b950       _invokeDebugger            0044c950 f   exLeave.obj
 0001:0003b960       _breakIfBogus              0044c960 f   exLeave.obj
 0001:0003b5d0       _cursorLocPut              0044c5d0 f   exIO.obj
 0001:0003b660       _getSelection              0044c660 f   exIO.obj
 0001:0003b750       _putSelection              0044c750 f   exIO.obj
 0001:0003b1c0       _lastRepaintFor            0044c1c0 f   exInQueue.obj
 0001:0003b300       _setInputSemaphore         0044c300 f   exInQueue.obj
 0001:0003b3a0       _enableInput               0044c3a0 f   exInQueue.obj
 0001:0003b3d0       _primNextEvent             0044c3d0 f   exInQueue.obj
 0001:0003b580       _primGetSizeOfInput        0044c580 f   exInQueue.obj
 0001:0003a0c0       _setHPSFlags               0044b0c0 f   exInit.obj
 0001:0003a180       _startHerald               0044b180 f   exInit.obj
 0001:0003a1d0       _registerKnownIndices      0044b1d0 f   exInit.obj
 0001:0003a5d0       _initInflation             0044b5d0 f   exInit.obj
 0001:0003a8f0       _oeConflateInitAlloc       0044b8f0 f   exInit.obj
 0001:0003a960       _oeConflateAlloc           0044b960 f   exInit.obj
 0001:0003abc0       _oeConflateFree            0044bbc0 f   exInit.obj
 0001:0003af40       _oeConflateInitHeapObj     0044bf40 f   exInit.obj
 0001:00039de0       _primRegisterExportTable   0044ade0 f   exExport.obj
 0001:00039ba0       _errorString               0044aba0 f   exError.obj
 0001:00039be0       _printBoth                 0044abe0 f   exError.obj
 0001:00037c30       _regBoolean                00448c30 f   exEnviron.obj
 0001:00037c70       _regStringOrNil            00448c70 f   exEnviron.obj
 0001:00037de0       _regSemaphoreOrNil         00448de0 f   exEnviron.obj
 0001:00037e10       _regNop                    00448e10 f   exEnviron.obj
 0001:00037ee0       _primTurnOffUnicode        00448ee0 f   exEnviron.obj
 0001:00037ef0       _getVersionId              00448ef0 f   exEnviron.obj
 0001:00038010       _platformStringEncoding    00449010 f   exEnviron.obj
 0001:00038680       _bePreferredStringClass    00449680 f   exEnviron.obj
 0001:00038750       _queryErrorCodes           00449750 f   exEnviron.obj
 0001:000387e0       _setErrorCodes             004497e0 f   exEnviron.obj
 0001:00038900       _primTurnOnUnicode         00449900 f   exEnviron.obj
 0001:00038910       _primRegisterObjectByName  00449910 f   exEnviron.obj
 0001:00038a70       _infoForName               00449a70 f   exEnviron.obj
 0001:00038b90       _primRegisteredObject      00449b90 f   exEnviron.obj
 0001:00039450       _primRegistrationNames     0044a450 f   exEnviron.obj
 0001:00037920       _ringBell                  00448920 f   exDisplay.obj
 0001:00037970       _openDisplay               00448970 f   exDisplay.obj
 0001:00034c40       _primFree                  00445c40 f   exCallSup.obj
 0001:00034cd0       _primNumBits               00445cd0 f   exCallSup.obj
 0001:00034d20       _primMalloc                00445d20 f   exCallSup.obj
 0001:00034e00       _primCalloc                00445e00 f   exCallSup.obj
 0001:00034f10       _primCopyFromExternalHeap  00445f10 f   exCallSup.obj
 0001:00034fa0       _validateCParams           00445fa0 f   exCallSup.obj
 0001:00035070       _primCopyToExternalHeap    00446070 f   exCallSup.obj
 0001:00035100       _primCopyCStringFromHeap   00446100 f   exCallSup.obj
 0001:000352d0       _primCopyDoubleByteStringFromHeap 004462d0 f   exCallSup.obj
 0001:000353e0       _primCopyCString           004463e0 f   exCallSup.obj
 0001:00035490       _primCopyDoubleByteString  00446490 f   exCallSup.obj
 0001:00035550       _primMemberContentsAt      00446550 f   exCallSup.obj
 0001:00035880       _contentsAt                00446880 f   exCallSup.obj
 0001:00036340       _primMemberContentsAtPut   00447340 f   exCallSup.obj
 0001:00036630       _contentsAtPut             00447630 f   exCallSup.obj
 0001:00037030       _primContentsAtIndex       00448030 f   exCallSup.obj
 0001:00037190       _primContentsAt            00448190 f   exCallSup.obj
 0001:000372b0       _primContentsAtIndexPut    004482b0 f   exCallSup.obj
 0001:00037390       _primContentsAtPut         00448390 f   exCallSup.obj
 0001:00037400       _primCompositeContentsAt   00448400 f   exCallSup.obj
 0001:00037610       _primCompositeContentsAtPut 00448610 f   exCallSup.obj
 0001:000377d0       _primIndexOfMember         004487d0 f   exCallSup.obj
 0001:000378d0       _initializeKindSizeTable   004488d0 f   exCallSup.obj
 0001:00033f00       _primThunkCreate           00444f00 f   exCallback.obj
 0001:000340b0       _primThunkDestroy          004450b0 f   exCallback.obj
 0001:00034140       _primCallbackProcess       00445140 f   exCallback.obj
 0001:00031660       _primRegisterCDatumClasses 00442660 f   exCallC.obj
 0001:000317b0       _primUnlinkedSendSelector  004427b0 f   exCallC.obj
 0001:00031860       _primCallVarArgC           00442860 f   exCallC.obj
 0001:00032680       _unlinkedCall              00443680 f   exCallC.obj
 0001:00032b00       _primCallCSlow             00443b00 f   exCallC.obj
 0001:000339b0       _primCallVarArgUserC       004449b0 f   exCallC.obj
 0001:0002f6a0       _primCOMMethodInstVarOffset 004406a0 f   exCOM.obj
 0001:0002f720       _primInterfaceInstVarOffset 00440720 f   exCOM.obj
 0001:0002f760       _primCallCOMMethod         00440760 f   exCOM.obj
 0001:00030410       _primCallCOMMethodSlow     00441410 f   exCOM.obj
 0001:000311b0       _primCreateCOMMethodTable  004421b0 f   exCOM.obj
 0001:00031300       _enumerateMethodSignatures 00442300 f   exCOM.obj
 0001:00031460       _primDestroyCOMMethodTable 00442460 f   exCOM.obj
 0001:00028720       _addWordwith               00439720 f   exBitBlt.obj
 0001:00028730       _alphaBlendwith            00439730 f   exBitBlt.obj
 0001:000287a0       _alphaBlendConstwith       004397a0 f   exBitBlt.obj
 0001:00028940       _alphaBlendScaledwith      00439940 f   exBitBlt.obj
 0001:00028a10       _alphaPaintConstwith       00439a10 f   exBitBlt.obj
 0001:00028bd0       _bitAndwith                00439bd0 f   exBitBlt.obj
 0001:00028be0       _bitAndInvertwith          00439be0 f   exBitBlt.obj
 0001:00028bf0       _bitInvertAndwith          00439bf0 f   exBitBlt.obj
 0001:00028c00       _bitInvertAndInvertwith    00439c00 f   exBitBlt.obj
 0001:00028c20       _bitInvertDestinationwith  00439c20 f   exBitBlt.obj
 0001:00028c30       _bitInvertOrwith           00439c30 f   exBitBlt.obj
 0001:00028c40       _bitInvertOrInvertwith     00439c40 f   exBitBlt.obj
 0001:00028c60       _bitInvertSourcewith       00439c60 f   exBitBlt.obj
 0001:00028c70       _bitInvertXorwith          00439c70 f   exBitBlt.obj
 0001:00028c80       _bitOrwith                 00439c80 f   exBitBlt.obj
 0001:00028c90       _bitOrInvertwith           00439c90 f   exBitBlt.obj
 0001:00028ca0       _bitXorwith                00439ca0 f   exBitBlt.obj
 0001:00028cb0       _clearWordwith             00439cb0 f   exBitBlt.obj
 0001:000291e0       _alphaSourceBlendBits16    0043a1e0 f   exBitBlt.obj
 0001:000295e0       _alphaSourceBlendBits32    0043a5e0 f   exBitBlt.obj
 0001:00029810       _alphaSourceBlendBits8     0043a810 f   exBitBlt.obj
 0001:00029b10       _clipRange                 0043ab10 f   exBitBlt.obj
 0001:00029cb0       _copyLoop                  0043acb0 f   exBitBlt.obj
 0001:0002a280       _copyLoopNoSource          0043b280 f   exBitBlt.obj
 0001:0002a480       _copyLoopPixMap            0043b480 f   exBitBlt.obj
 0001:0002a9d0       _default8To32Table         0043b9d0 f   exBitBlt.obj
 0001:0002a9e0       _destinationWordwith       0043b9e0 f   exBitBlt.obj
 0001:0002a9f0       _dstLongAt                 0043b9f0 f   exBitBlt.obj
 0001:0002aa30       _dstLongAtput              0043ba30 f   exBitBlt.obj
 0001:0002aa80       _fixAlphawith              0043ba80 f   exBitBlt.obj
 0001:0002ab00       _byteArrayCopyBitsstridewidthxysourcestridewidthxywidthheigthrule 0043bb00 f   exBitBlt.obj
 0001:0002ab50       _byteArrayCopyBitsstridewidthxysourcestridewidthxyhalftonestridewidthheigthrule 0043bb50 f   exBitBlt.obj
 0001:0002b5d0       _loadBitBltFromwarping     0043c5d0 f   exBitBlt.obj
 0001:0002bd40       _fetchIntOrFloatofObjectifNil 0043cd40 f   exBitBlt.obj
 0001:0002be00       _loadColorMapFromintoCLUTshiftsmasks 0043ce00 f   exBitBlt.obj
 0001:0002c0a0       _loadHalftoneForm          0043d0a0 f   exBitBlt.obj
 0001:0002c170       _lockSurfaces              0043d170 f   exBitBlt.obj
 0001:0002c3c0       _loadSurfacePlugin         0043d3c0 f   exBitBlt.obj
 0001:0002c440       _palettesMatch             0043d440 f   exBitBlt.obj
 0001:0002c530       _pixClearwith              0043d530 f   exBitBlt.obj
 0001:0002c590       _pixMaskwith               0043d590 f   exBitBlt.obj
 0001:0002c5d0       _pixPaintwith              0043d5d0 f   exBitBlt.obj
 0001:0002c610       _partitionedANDtonBitsnPartitions 0043d610 f   exBitBlt.obj
 0001:0002c650       _pixSwapwith               0043d650 f   exBitBlt.obj
 0001:0002ccd0       _fetchIntegerofObject      0043dcd0 f   exBitBlt.obj
 0001:0002d690       _queryDestSurface          0043e690 f   exBitBlt.obj
 0001:0002d6e0       _querySourceSurface        0043e6e0 f   exBitBlt.obj
 0001:0002d730       _rgbAddwith                0043e730 f   exBitBlt.obj
 0001:0002d7b0       _partitionedAddtonBitsnPartitions 0043e7b0 f   exBitBlt.obj
 0001:0002d800       _rgbDiffwith               0043e800 f   exBitBlt.obj
 0001:0002d8f0       _partitionedSubfromnBitsnPartitions 0043e8f0 f   exBitBlt.obj
 0001:0002d940       _rgbMaxwith                0043e940 f   exBitBlt.obj
 0001:0002da00       _partitionedMaxwithnBitsnPartitions 0043ea00 f   exBitBlt.obj
 0001:0002da40       _rgbMinwith                0043ea40 f   exBitBlt.obj
 0001:0002db00       _partitionedMinwithnBitsnPartitions 0043eb00 f   exBitBlt.obj
 0001:0002db40       _rgbMinInvertwith          0043eb40 f   exBitBlt.obj
 0001:0002dbf0       _rgbMulwith                0043ebf0 f   exBitBlt.obj
 0001:0002dc70       _partitionedMulwithnBitsnPartitions 0043ec70 f   exBitBlt.obj
 0001:0002dcf0       _rgbSubwith                0043ecf0 f   exBitBlt.obj
 0001:0002dd70       _setWordwith               0043ed70 f   exBitBlt.obj
 0001:0002e3f0       _sourceWordwith            0043f3f0 f   exBitBlt.obj
 0001:0002e400       _srcLongAt                 0043f400 f   exBitBlt.obj
 0001:0002e440       _subWordwith               0043f440 f   exBitBlt.obj
 0001:0002e450       _tileArrayCopyBitsstridewidthxysourcestridewidthxywidthheigthrule 0043f450 f   exBitBlt.obj
 0001:0002e4a0       _unlockSurfaces            0043f4a0 f   exBitBlt.obj
 0001:0002e570       _warpLoopSmoothing         0043f570 f   exBitBlt.obj
 0001:0002ee90       _deltaFromtonSteps         0043fe90 f   exBitBlt.obj
 0001:0002eee0       _fetchIntOrFloatofObject   0043fee0 f   exBitBlt.obj
 0001:0002ef90       _mapDestPixel              0043ff90 f   exBitBlt.obj
 0001:0002f000       _warpPickSmoothPixelsxDeltahyDeltahxDeltavyDeltavsmoothingdstShiftInc 00440000 f   exBitBlt.obj
 0001:00028440       _thunkArgumentsFar         00439440 f   ntcbk16.obj
 0001:000275e0       _processException          004385e0 f   ntcallc.obj
 0001:000257b0       _thunkProcess              004367b0 f   ntcallbk.obj
 0001:00025d00       _thunkArguments            00436d00 f   ntcallbk.obj
 0001:00024060       _invokeCOMMethod           00435060 f   ntcom.obj
 0001:00022c70       _pollEvents                00433c70 f   ntwin.obj
 0001:000228e0       _pdReInitTime              004338e0 f   nttime.obj
 0001:0001fef0       _primNewPrinter            00430ef0 f   ntprint.obj
 0001:00020130       _bInitCoordinateSystem     00431130 f   ntprint.obj
 0001:000201d0       _primBeginPrintJob         004311d0 f   ntprint.obj
 0001:000202d0       _primSendToPrinter         004312d0 f   ntprint.obj
 0001:00020370       _primClosePrinter          00431370 f   ntprint.obj
 0001:00020400       _primNewPage               00431400 f   ntprint.obj
 0001:000204b0       _primListPrinterFonts      004314b0 f   ntprint.obj
 0001:00020550       _primCreatePrinterFont     00431550 f   ntprint.obj
 0001:00020930       _primPrintImage            00431930 f   ntprint.obj
 0001:00020970       _bSTImageToDC              00431970 f   ntprint.obj
 0001:00020eb0       _primPrintMonoImage        00431eb0 f   ntprint.obj
 0001:00020f90       _primColorPrinterDepthAndBitsPerPixel 00431f90 f   ntprint.obj
 0001:00021060       _primCoveragePrinterDepthAndBitsPerPixel 00432060 f   ntprint.obj
 0001:00021100       _primGetPrinterDimensions  00432100 f   ntprint.obj
 0001:00021980       _primPrinterName           00432980 f   ntprint.obj
 0001:00021a40       _primChangePrinterExtent   00432a40 f   ntprint.obj
 0001:00021b50       _primSetLandscape          00432b50 f   ntprint.obj
 0001:00021c60       _primPrinterEscape         00432c60 f   ntprint.obj
 0001:00021d00       _primStartPage             00432d00 f   ntprint.obj
 0001:00021db0       _primEndPage               00432db0 f   ntprint.obj
 0001:00021e40       _primSendJobToPrinter      00432e40 f   ntprint.obj
 0001:0001c6e0       _outputWSALastError        0042d6e0 f   ntsock.obj
 0001:0001c930       _sockWSAEvent              0042d930 f   ntsock.obj
 0001:0001ca20       _sockSignalSemaphore       0042da20 f   ntsock.obj
 0001:0001cad0       _sockCleanup               0042dad0 f   ntsock.obj
 0001:0001ccd0       _sockInit                  0042dcd0 f   ntsock.obj
 0001:0001ce50       _setSem                    0042de50 f   ntsock.obj
 0001:0001d070       _sockOpen                  0042e070 f   ntsock.obj
 0001:0001d370       _sockAccept                0042e370 f   ntsock.obj
 0001:0001db10       _sockBind                  0042eb10 f   ntsock.obj
 0001:0001dc50       _sockListen                0042ec50 f   ntsock.obj
 0001:0001dd50       _sockConnect               0042ed50 f   ntsock.obj
 0001:0001de50       _sockRecvfrom              0042ee50 f   ntsock.obj
 0001:0001e0e0       _sockSendto                0042f0e0 f   ntsock.obj
 0001:0001e360       _sockShutdown              0042f360 f   ntsock.obj
 0001:0001e450       _sockSetOptions            0042f450 f   ntsock.obj
 0001:0001e610       _sockGetOptions            0042f610 f   ntsock.obj
 0001:0001e850       _sockGetName               0042f850 f   ntsock.obj
 0001:0001ea40       _sockGetPeer               0042fa40 f   ntsock.obj
 0001:0001ecd0       _sockAtMark                0042fcd0 f   ntsock.obj
 0001:0001edc0       _getIPHostNum              0042fdc0 f   ntsock.obj
 0001:0001efc0       _getIPProtoNum             0042ffc0 f   ntsock.obj
 0001:0001f080       _getIPServNum              00430080 f   ntsock.obj
 0001:0001f230       _getIPHostNam              00430230 f   ntsock.obj
 0001:0001f3c0       _getIPProtoNam             004303c0 f   ntsock.obj
 0001:0001f490       _getIPServNam              00430490 f   ntsock.obj
 0001:0001f590       _primGetHostname           00430590 f   ntsock.obj
 0001:0001f670       _sockClose                 00430670 f   ntsock.obj
 0001:0001f760       _loadSocketLibrary         00430760 f   ntsock.obj
 0001:0001f770       _bCreateSocketWindow       00430770 f   ntsock.obj
 0001:0001b390       _fileOpen                  0042c390 f   ntfio.obj
 0001:0001b6e0       _fileClose                 0042c6e0 f   ntfio.obj
 0001:0001b7d0       _fileRead                  0042c7d0 f   ntfio.obj
 0001:0001b960       _fileWrite                 0042c960 f   ntfio.obj
 0001:0001bae0       _fileSeek                  0042cae0 f   ntfio.obj
 0001:0001bca0       _fileTruncate              0042cca0 f   ntfio.obj
 0001:0001bdc0       _ioaCommit                 0042cdc0 f   ntfio.obj
 0001:0001beb0       _fileSize                  0042ceb0 f   ntfio.obj
 0001:0001c060       _lockOrUnlock              0042d060 f   ntfio.obj
 0001:0001c200       _outstanding               0042d200 f   ntfio.obj
 0001:0001c2e0       _bufferSize                0042d2e0 f   ntfio.obj
 0001:0001c330       _primGetDescriptor         0042d330 f   ntfio.obj
 0001:0001c3e0       _primGetStdHandle          0042d3e0 f   ntfio.obj
 0001:00017bf0       _bFileSize                 00428bf0 f   ntfile.obj
 0001:00017e00       _getDates                  00428e00 f   ntfile.obj
 0001:00018030       _listDir                   00429030 f   ntfile.obj
 0001:000187a0       _invalidDrive              004297a0 f   ntfile.obj
 0001:000187f0       _deleteFile                004297f0 f   ntfile.obj
 0001:000188b0       _isDirectory               004298b0 f   ntfile.obj
 0001:00018960       _renameFile                00429960 f   ntfile.obj
 0001:00018a60       _makeDir                   00429a60 f   ntfile.obj
 0001:00018b10       _defaultDir                00429b10 f   ntfile.obj
 0001:00018bb0       _primFileSize              00429bb0 f   ntfile.obj
 0001:00018ca0       _isWritable                00429ca0 f   ntfile.obj
 0001:00018da0       _setWritable               00429da0 f   ntfile.obj
 0001:00018e80       _fileExists                00429e80 f   ntfile.obj
 0001:00018ef0       _getVolumeStrings          00429ef0 f   ntfile.obj
 0001:000193a0       _fileSystem                0042a3a0 f   ntfile.obj
 0001:00019540       _fileSystemAttributes      0042a540 f   ntfile.obj
 0001:0001a670       _primPrintPostScriptFile   0042b670 f   ntfile.obj
 0001:0001a760       _primPrintTextFile         0042b760 f   ntfile.obj
 0001:0001a870       _primEnvironment           0042b870 f   ntfile.obj
 0001:0001ac00       _commandLineArguments      0042bc00 f   ntfile.obj
 0001:0001af70       _primProcessId             0042bf70 f   ntfile.obj
 0001:0001afb0       _IOinform                  0042bfb0 f   ntfile.obj
 0001:0001b150       _primGetLocale             0042c150 f   ntfile.obj
 0001:00017770       _imeSetSpot                00428770 f   ntnls.obj
 0001:000177f0       _hAllocIME                 004287f0 f   ntnls.obj
 0001:00017810       _imeSetRoot                00428810 f   ntnls.obj
 0001:00017880       _imeSetArea                00428880 f   ntnls.obj
 0001:000178c0       _imeSetFont                004288c0 f   ntnls.obj
 0001:000178d0       _initIMEFuncs              004288d0 f   ntnls.obj
 0001:000164c0       _realOeMain                004274c0 f   ntmain.obj
 0001:000165d0       _getWinPlatformId          004275d0 f   ntmain.obj
 0001:00016620       _initProgramOptions        00427620 f   ntmain.obj
 0001:000166b0       _initFloatingPoint         004276b0 f   ntmain.obj
 0001:000166d0       _exceptionHandler          004276d0 f   ntmain.obj
 0001:00016760       _innerOeMain               00427760 f   ntmain.obj
 0001:00016a70       _verifyCurrentDirectory    00427a70 f   ntmain.obj
 0001:00016c30       _parseCommandLine          00427c30 f   ntmain.obj
 0001:00016d10       _bRegisterWinClasses       00427d10 f   ntmain.obj
 0001:00016d80       _bRegisterPopupWinClass    00427d80 f   ntmain.obj
 0001:00016dd0       _bRegisterDialogWinClass   00427dd0 f   ntmain.obj
 0001:00016e20       _bRegisterNormalWinClass   00427e20 f   ntmain.obj
 0001:00016e70       _bRegisterFullScreenHiddenWinClass 00427e70 f   ntmain.obj
 0001:00016f40       _HiddenWndProc@16          00427f40 f   ntmain.obj
 0001:00016f70       _bRegisterHiddenSocketWinClass 00427f70 f   ntmain.obj
 0001:00016fc0       _MonitorSizeCallback@16    00427fc0 f   ntmain.obj
 0001:00015c00       _InsertIOBlock             00426c00 f   ntioblok.obj
 0001:00015ca0       _isOnList                  00426ca0 f   ntioblok.obj
 0001:00015d00       _bInitIOSem                00426d00 f   ntioblok.obj
 0001:00015290       _primDisplayImage          00426290 f   ntimage.obj
 0001:00015490       _hbmCreateImage            00426490 f   ntimage.obj
 0001:00015850       _primDisplayMonoImage      00426850 f   ntimage.obj
 0001:000150f0       _callIs686OrHigher         004260f0 f   nticache.obj
 0001:00014110       _heraldWndProc@16          00425110 f   ntherald.obj
 0001:000145f0       _ReadResourceBitmap        004255f0 f   ntherald.obj
 0001:00014690       _ReadBitmapFromFile        00425690 f   ntherald.obj
 0001:000148a0       _MakeDIBPalette            004258a0 f   ntherald.obj
 0001:00013f80       _primDeviceColormap        00424f80 f   ntgraph.obj
 0001:00010160       _extractPort               00421160 f   ntgc.obj
 0001:00010a50       _primDisplayLine           00421a50 f   ntgc.obj
 0001:00010d10       _primDisplayPolyLine       00421d10 f   ntgc.obj
 0001:00010e40       _primDisplayPolygon        00421e40 f   ntgc.obj
 0001:00010f70       _primDisplayRectangle      00421f70 f   ntgc.obj
 0001:00011120       _primDisplayRectangularBorder 00422120 f   ntgc.obj
 0001:00011350       _primDisplayArc            00422350 f   ntgc.obj
 0001:000118d0       _calcArcPoint              004228d0 f   ntgc.obj
 0001:00011970       _primDisplayWedge          00422970 f   ntgc.obj
 0001:00011e50       _primDisplayMask           00422e50 f   ntgc.obj
 0001:00012090       _primCopyRectangularArea   00423090 f   ntgc.obj
 0001:00012610       _primCopyMaskedArea        00423610 f   ntgc.obj
 0001:00012ce0       _primIdentifierString      00423ce0 f   ntgc.obj
 0001:0000deb0       _iWinEnumFonts             0041eeb0 f   ntfont.obj
 0001:0000e070       _appendFontToInfo          0041f070 f   ntfont.obj
 0001:0000e130       _collectFontFacesCallback@16 0041f130 f   ntfont.obj
 0001:0000e230       _printFontSizeCallback@16  0041f230 f   ntfont.obj
 0001:0000e4a0       _primDisplayMappedString   0041f4a0 f   ntfont.obj
 0001:0000e770       _primDisplayWideChars      0041f770 f   ntfont.obj
 0001:0000e9d0       _primDisplayCharacter      0041f9d0 f   ntfont.obj
 0001:0000eaf0       _primOpenFontOnly          0041faf0 f   ntfont.obj
 0001:0000eea0       _primGetFontWidths         0041fea0 f   ntfont.obj
 0001:0000f420       _primUnLoadFont            00420420 f   ntfont.obj
 0001:0000f4a0       _primListFonts             004204a0 f   ntfont.obj
 0001:0000d6d0       _getCursorPositions        0041e6d0 f   ntevent.obj
 0001:0000d720       _updateMetaState           0041e720 f   ntevent.obj
 0001:0000d810       _EnumAllMenus@8            0041e810 f   ntevent.obj
 0001:0000bc80       _nameOfError               0041cc80 f   ntecode.obj
 0001:0000bd50       _cmpei                     0041cd50 f   ntecode.obj
 0001:0000bd70       _getErrMsg                 0041cd70 f   ntecode.obj
 0001:0000be30       _errorCodesAreSorted       0041ce30 f   ntecode.obj
 0001:0000b6b0       _primLoadLibrary           0041c6b0 f   ntdynld.obj
 0001:0000b900       _primUnloadLibrary         0041c900 f   ntdynld.obj
 0001:0000ba60       _primMapExternalName       0041ca60 f   ntdynld.obj
 0001:0000b080       _createCursorResource      0041c080 f   ntcurs.obj
 0001:0000b2b0       _enableHostCursors         0041c2b0 f   ntcurs.obj
 0001:0000b2e0       _showCursorResource        0041c2e0 f   ntcurs.obj
 0001:0000b350       _loadSystemCursorFor       0041c350 f   ntcurs.obj
 0001:0000b3e0       _freeCursorResource        0041c3e0 f   ntcurs.obj
 0001:00006ca0       _undoModality              00417ca0 f   ntcanvas.obj
 0001:00006d20       _dwGetWindowProcessId      00417d20 f   ntcanvas.obj
 0001:00006f90       _primDestroyWindow         00417f90 f   ntcanvas.obj
 0001:00007050       _getDrawableAndGC          00418050 f   ntcanvas.obj
 0001:000070f0       _primSetMinMaxConstraints  004180f0 f   ntcanvas.obj
 0001:000071d0       _hwndOfWindowOop           004181d0 f   ntcanvas.obj
 0001:00007250       _primStoreLabels           00418250 f   ntcanvas.obj
 0001:000072c0       _primGetDimensions         004182c0 f   ntcanvas.obj
 0001:00007740       _primXMoveResizeWindow     00418740 f   ntcanvas.obj
 0001:000078e0       _primXRaiseWindow          004188e0 f   ntcanvas.obj
 0001:00007980       _primXLowerWindow          00418980 f   ntcanvas.obj
 0001:00007a20       _primCollapseWindow        00418a20 f   ntcanvas.obj
 0001:00007a60       _primExpandWindow          00418a60 f   ntcanvas.obj
 0001:00007ac0       _primCreateWindowOnScreen  00418ac0 f   ntcanvas.obj
 0001:00007ea0       _hwndCreate                00418ea0 f   ntcanvas.obj
 0001:00008260       _primWindowActivate        00419260 f   ntcanvas.obj
 0001:000082e0       _primSetIcon               004192e0 f   ntcanvas.obj
 0001:000083c0       _createAndSetIcon          004193c0 f   ntcanvas.obj
 0001:000084a0       _primSetTransparentIcon    004194a0 f   ntcanvas.obj
 0001:000085d0       _primWinFlush              004195d0 f   ntcanvas.obj
 0001:000085e0       _primGetScreenDimensions   004195e0 f   ntcanvas.obj
 0001:000087c0       _MonitorSizeCallback@16    004197c0 f   ntcanvas.obj
 0001:00008a70       _primWindowUnmap           00419a70 f   ntcanvas.obj
 0001:00008ac0       _primNewPixmap             00419ac0 f   ntcanvas.obj
 0001:00008cc0       _primNewMask               00419cc0 f   ntcanvas.obj
 0001:00008f20       _primDestroyPixmap         00419f20 f   ntcanvas.obj
 0001:00008f80       _primPixmapFromClipboard   00419f80 f   ntcanvas.obj
 0001:00009410       _primPixmapToClipboard     0041a410 f   ntcanvas.obj
 0001:000095c0       _primWindowBackground      0041a5c0 f   ntcanvas.obj
 0001:00009710       _primQueryStackingOrder    0041a710 f   ntcanvas.obj
 0001:00009800       _primPixmapMaskContentsInto 0041a800 f   ntcanvas.obj
 0001:00009cf0       _getDrawableContentsInto   0041acf0 f   ntcanvas.obj
 0001:00009fb0       _primWindowContentsInto    0041afb0 f   ntcanvas.obj
 0001:0000a700       _primScreenContentsInto    0041b700 f   ntcanvas.obj
 0001:0000ad60       _primColorScreenDepthAndBitsPerPixel 0041bd60 f   ntcanvas.obj
 0001:0000adb0       _primCoverageScreenDepthAndBitsPerPixel 0041bdb0 f   ntcanvas.obj
 0001:0000ae30       _primWindowAtPoint         0041be30 f   ntcanvas.obj
 0001:0000ae90       _primHostColors            0041be90 f   ntcanvas.obj
 0001:0000af80       _primWindowHandle          0041bf80 f   ntcanvas.obj
 0001:00004430       _primDragShape             00415430 f   ntanim.obj
 0001:000054b0       _GetButtonState            004164b0 f   ntanim.obj
 0001:00005500       _trackUser                 00416500 f   ntanim.obj
 0001:00005560       _calculateBounds           00416560 f   ntanim.obj
 0001:000055d0       _getShape                  004165d0 f   ntanim.obj
 0001:00005660       _displayShape              00416660 f   ntanim.obj
 0001:00005720       _primResizeRectangle       00416720 f   ntanim.obj
 0001:00006910       _primDisplayShape          00417910 f   ntanim.obj
 0001:00006ad0       _createHiddenFullScreenWindow 00417ad0 f   ntanim.obj
 0001:00006b30       _destroyHiddenFullScreenWindow 00417b30 f   ntanim.obj
 0001:00006b50       _processDummyEvents        00417b50 f   ntanim.obj
 0001:00003b30       _changePollTimerState      00414b30 f   ntalarm.obj
 0001:00003d80       _delayStateMachine@4       00414d80 f   ntalarm.obj
 0001:00003ea0       _pollHeartbeat@4           00414ea0 f   ntalarm.obj
 0001:00003f50       _killTimerThread           00414f50 f   ntalarm.obj
 0001:00004140       _startProfileThread        00415140 f   ntalarm.obj
 0001:00004230       _profileHeartbeat@4        00415230 f   ntalarm.obj
 0001:00004310       _changeProfileTimerState   00415310 f   ntalarm.obj
 0001:00000320       _cToSTint                  00411320 f   prUdummy.obj
 0001:000003b0       _cToSTfloat                004113b0 f   prUdummy.obj
 0001:000031a0       _cToSTdouble               004141a0 f   prUdummy.obj
 0001:000c3300       _huft_build                004d4300 f   zlib:inftrees.obj
 0001:000c0fd0       _tr_static_init            004d1fd0 f   zlib:trees.obj
 0001:000c0fe0       _init_block                004d1fe0 f   zlib:trees.obj
 0001:000c1500       _build_tree                004d2500 f   zlib:trees.obj
 0001:000c1730       _pqdownheap                004d2730 f   zlib:trees.obj
 0001:000c1810       _gen_bitlen                004d2810 f   zlib:trees.obj
 0001:000c1a20       _gen_codes                 004d2a20 f   zlib:trees.obj
 0001:000c1aa0       _build_bl_tree             004d2aa0 f   zlib:trees.obj
 0001:000c1b20       _scan_tree                 004d2b20 f   zlib:trees.obj
 0001:000c1c20       _send_all_trees            004d2c20 f   zlib:trees.obj
 0001:000c1e50       _send_tree                 004d2e50 f   zlib:trees.obj
 0001:000c2460       _compress_block            004d3460 f   zlib:trees.obj
 0001:000c28a0       _set_data_type             004d38a0 f   zlib:trees.obj
 0001:000c2920       _bi_reverse                004d3920 f   zlib:trees.obj
 0001:000c2950       _bi_flush                  004d3950 f   zlib:trees.obj
 0001:000c29d0       _bi_windup                 004d39d0 f   zlib:trees.obj
 0001:000c2a40       _copy_block                004d3a40 f   zlib:trees.obj
 0001:000beef0       _putShortMSB               004cfef0 f   zlib:deflate.obj
 0001:000bef20       _flush_pending             004cff20 f   zlib:deflate.obj
 0001:000bf200       _lm_init                   004d0200 f   zlib:deflate.obj
 0001:000bf2a0       _deflate_stored            004d02a0 f   zlib:deflate.obj
 0001:000bf400       _fill_window               004d0400 f   zlib:deflate.obj
 0001:000bf540       _read_buf                  004d0540 f   zlib:deflate.obj
 0001:000bf5c0       _deflate_fast              004d05c0 f   zlib:deflate.obj
 0001:000bf8e0       _longest_match             004d08e0 f   zlib:deflate.obj
 0001:000bfa50       _deflate_slow              004d0a50 f   zlib:deflate.obj
 0001:000bd880       _gz_open                   004ce880 f   zlib:gzio.obj
 0001:000bdb80       _check_header              004ceb80 f   zlib:gzio.obj
 0001:000bdce0       _get_byte                  004cece0 f   zlib:gzio.obj
 0001:000bdd60       _destroy                   004ced60 f   zlib:gzio.obj
 0001:000be290       _do_flush                  004cf290 f   zlib:gzio.obj
 0001:000be570       _getLong                   004cf570 f   zlib:gzio.obj
 0001:000be620       _putLong                   004cf620 f   zlib:gzio.obj
