 visual

 Timestamp is 42557c53 (Thu Apr 07 11:30:43 2005)

 Preferred load address is 00400000

 Start         Length     Name                   Class
 0001:00000000 000871a0H .text                   CODE
 0002:00000000 00000cdcH CODE                    CODE
 0003:00000000 00000538H .idata$5                DATA
 0003:00000538 0000af31H .rdata                  DATA
 0003:0000b46c 000000c8H .idata$2                DATA
 0003:0000b534 00000014H .idata$3                DATA
 0003:0000b548 00000538H .idata$4                DATA
 0003:0000ba80 00001238H .idata$6                DATA
 0003:0000ccb8 00000000H .edata                  DATA
 0004:00000000 00000004H .CRT$XCA                DATA
 0004:00000004 00000004H .CRT$XCZ                DATA
 0004:00000008 00000004H .CRT$XIA                DATA
 0004:0000000c 00000004H .CRT$XIZ                DATA
 0004:00000010 00002bdcH .data                   DATA
 0004:00002bf0 00004140H .bss                    DATA
 0005:00000000 0000002cH DATA                    DATA
 0006:00000000 000000a0H .rsrc$01                DATA
 0006:000000a0 00000300H .rsrc$02                DATA

  Address         Publics by Value              Rva+Base     Lib:Object

 0001:00000000       __ftext                    00401000 f   ntstart.obj
 0001:00000010       _UPfail                    00401010 f   prUdummy.obj
 0001:00000030       _oeFail                    00401030 f   prUdummy.obj
 0001:00000050       __UPaddPrimitive           00401050 f   prUdummy.obj
 0001:00000090       _UPstartLongPrimitive      00401090 f   prUdummy.obj
 0001:000000a0       _UPfinishLongPrimitive     004010a0 f   prUdummy.obj
 0001:000000b0       _UPnil                     004010b0 f   prUdummy.obj
 0001:000000c0       _UPSTtoCbool               004010c0 f   prUdummy.obj
 0001:00000140       _UPSTtoCint                00401140 f   prUdummy.obj
 0001:000001c0       _UPSTtoCchar               004011c0 f   prUdummy.obj
 0001:00000240       _UPSTtoCfloat              00401240 f   prUdummy.obj
 0001:000002e0       _UPCtoSTbool               004012e0 f   prUdummy.obj
 0001:00000300       _UPCtoSTint                00401300 f   prUdummy.obj
 0001:00000360       _UPCtoSTchar               00401360 f   prUdummy.obj
 0001:00000370       _UPCtoSTfloat              00401370 f   prUdummy.obj
 0001:00000420       _UPallocString             00401420 f   prUdummy.obj
 0001:00000520       _UPallocByteArray          00401520 f   prUdummy.obj
 0001:00000620       _UPallocArray              00401620 f   prUdummy.obj
 0001:000007e0       _UPcopySTtoCstring         004017e0 f   prUdummy.obj
 0001:000008f0       _UPcopySTtoCbytes          004018f0 f   prUdummy.obj
 0001:000009f0       _UPcopySTtoCintArray       004019f0 f   prUdummy.obj
 0001:00000b70       _UPcopySTtoCfloatArray     00401b70 f   prUdummy.obj
 0001:00000d20       _UPcopyCtoSTstring         00401d20 f   prUdummy.obj
 0001:00000e30       _UPcopyCtoSTbytes          00401e30 f   prUdummy.obj
 0001:00000f30       _UPcopyCtoSTintArray       00401f30 f   prUdummy.obj
 0001:000010a0       _UPcopyCtoSTfloatArray     004020a0 f   prUdummy.obj
 0001:000012c0       _UPinstVarSize             004022c0 f   prUdummy.obj
 0001:00001330       _UPindexVarSize            00402330 f   prUdummy.obj
 0001:00001420       _UPbasicAt                 00402420 f   prUdummy.obj
 0001:00001530       _UPinstVarAt               00402530 f   prUdummy.obj
 0001:00001620       _UPbyteAt                  00402620 f   prUdummy.obj
 0001:00001700       _UPintegerAt               00402700 f   prUdummy.obj
 0001:00001850       _UPfloatAt                 00402850 f   prUdummy.obj
 0001:000019b0       _UPdoubleAt                004029b0 f   prUdummy.obj
 0001:00001b30       _UPbasicAtPut              00402b30 f   prUdummy.obj
 0001:00001d10       _UPinstVarAtPut            00402d10 f   prUdummy.obj
 0001:00001ed0       _UPbyteAtPut               00402ed0 f   prUdummy.obj
 0001:00001fc0       _UPintegerAtPut            00402fc0 f   prUdummy.obj
 0001:00002170       _UPfloatAtPut              00403170 f   prUdummy.obj
 0001:00002340       _UPisCharacter             00403340 f   prUdummy.obj
 0001:00002360       _UPisInteger               00403360 f   prUdummy.obj
 0001:00002370       _UPisString                00403370 f   prUdummy.obj
 0001:00002400       _UPisByteArray             00403400 f   prUdummy.obj
 0001:00002490       _UPisArrayOfInteger        00403490 f   prUdummy.obj
 0001:00002580       _UPisArrayOfFloat          00403580 f   prUdummy.obj
 0001:00002690       _UPisBoolean               00403690 f   prUdummy.obj
 0001:00002700       _UPisFloat                 00403700 f   prUdummy.obj
 0001:00002790       _UPisByteLike              00403790 f   prUdummy.obj
 0001:00002800       _UPinstallErrorHandler     00403800 f   prUdummy.obj
 0001:00002820       _UPisImmediate             00403820 f   prUdummy.obj
 0001:00002830       _UPclass                   00403830 f   prUdummy.obj
 0001:000028a0       _UPSTtoCdouble             004038a0 f   prUdummy.obj
 0001:00002950       _UPCtoSTdouble             00403950 f   prUdummy.obj
 0001:00002a00       _UPisDouble                00403a00 f   prUdummy.obj
 0001:00002a80       _UPisKindOf                00403a80 f   prUdummy.obj
 0001:00002b40       _UPinstallPollHandler      00403b40 f   prUdummy.obj
 0001:00002b60       _UPsignalSemaphore         00403b60 f   prUdummy.obj
 0001:00002bd0       _UPpostInterrupt           00403bd0 f   prUdummy.obj
 0001:00002be0       _UPregisteredHandleAt      00403be0 f   prUdummy.obj
 0001:00002c30       _UPregisteredHandleAtPut   00403c30 f   prUdummy.obj
 0001:00002c70       _UPallocRegistrySlot       00403c70 f   prUdummy.obj
 0001:00002ca0       _UPallocFsObject           00403ca0 f   prUdummy.obj
 0001:00002d50       _UPallocVsObject           00403d50 f   prUdummy.obj
 0001:00002e20       _UPclassType               00403e20 f   prUdummy.obj
 0001:00002e80       _UPreturnHandle            00403e80 f   prUdummy.obj
 0001:00002ed0       _UPreturnNil               00403ed0 f   prUdummy.obj
 0001:00002ee0       _UPreturnTrue              00403ee0 f   prUdummy.obj
 0001:00002ef0       _UPreturnFalse             00403ef0 f   prUdummy.obj
 0001:00002f00       _UPmustBeByteLike          00403f00 f   prUdummy.obj
 0001:00002f20       _UPmustBeCharacter         00403f20 f   prUdummy.obj
 0001:00002f40       _UPmustBeInteger           00403f40 f   prUdummy.obj
 0001:00002f60       _UPmustBeString            00403f60 f   prUdummy.obj
 0001:00002f80       _UPmustBeByteArray         00403f80 f   prUdummy.obj
 0001:00002fa0       _UPmustBeArrayOfInteger    00403fa0 f   prUdummy.obj
 0001:00002fc0       _UPmustBeArrayOfFloat      00403fc0 f   prUdummy.obj
 0001:00002fe0       _UPmustBeBoolean           00403fe0 f   prUdummy.obj
 0001:00003000       _UPmustBeFloat             00404000 f   prUdummy.obj
 0001:00003020       _main                      00404020 f   prUdummy.obj
 0001:00003040       _CrtUPrimGlue0             00404040 f   prUdummy.obj
 0001:00003050       _CrtUPrimGlue1             00404050 f   prUdummy.obj
 0001:00003060       _CrtUPrimGlue2             00404060 f   prUdummy.obj
 0001:00003070       _CrtUPrimGlue3             00404070 f   prUdummy.obj
 0001:00003080       _CrtUPrimGlueMany          00404080 f   prUdummy.obj
 0001:00003090       _initUserPrimitives        00404090 f   prUdummy.obj
 0001:000030a0       _UPInitLinkRegistry        004040a0 f   prUdummy.obj
 0001:000030b0       _initUPprotocol            004040b0 f   prUdummy.obj
 0001:000030c0       _pdTerminateTimer          004040c0 f   ntalarm.obj
 0001:00003130       _pdSignalAtMicroseconds    00404130 f   ntalarm.obj
 0001:00003240       _startPollTimer            00404240 f   ntalarm.obj
 0001:000032c0       _stopPollTimer             004042c0 f   ntalarm.obj
 0001:000032f0       _pdBeginCritical           004042f0 f   ntalarm.obj
 0001:00003310       _pdEndCritical             00404310 f   ntalarm.obj
 0001:00003330       _pdResetCritical           00404330 f   ntalarm.obj
 0001:00003340       _pdInitTimers              00404340 f   ntalarm.obj
 0001:00003620       _pdExitTimers              00404620 f   ntalarm.obj
 0001:000036b0       _platBlockUntilEvent       004046b0 f   ntalarm.obj
 0001:000037b0       _pdWakeup                  004047b0 f   ntalarm.obj
 0001:00003800       _pdStartProfileTimer       00404800 f   ntalarm.obj
 0001:00003a40       _pdStopProfileTimer        00404a40 f   ntalarm.obj
 0001:00003a70       _pdInitProfile             00404a70 f   ntalarm.obj
 0001:00003ac0       _initNTAnimationPrims      00404ac0 f   ntanim.obj
 0001:000057e0       _freeWindowResources       004067e0 f   ntcanvas.obj
 0001:00005970       _initNTCanvasPrims         00406970 f   ntcanvas.obj
 0001:00008ff0       _pdMoveMouse               00409ff0 f   ntcurs.obj
 0001:00009010       _initNTCursPrims           0040a010 f   ntcurs.obj
 0001:00009460       _initDynamicLoadPrimitives 0040a460 f   ntdynld.obj
 0001:00009c00       _initOSErrorCodePrims      0040ac00 f   ntecode.obj
 0001:00009da0       _pdErrorString             0040ada0 f   nterror.obj
 0001:00009dc0       _pdPrint                   0040adc0 f   nterror.obj
 0001:00009e90       _openConsole               0040ae90 f   nterror.obj
 0001:00009f70       _pdDebugLog                0040af70 f   nterror.obj
 0001:00009fe0       _pdCloseDebugLog           0040afe0 f   nterror.obj
 0001:0000a020       _pdSizeOfEvent             0040b020 f   ntevent.obj
 0001:0000a030       _PopupWndProc@16           0040b030 f   ntevent.obj
 0001:0000a0c0       _MainWndProc@16            0040b0c0 f   ntevent.obj
 0001:0000b7e0       _hfWinQueryFont            0040c7e0 f   ntfont.obj
 0001:0000ba10       _listFonts                 0040ca10 f   ntfont.obj
 0001:0000c150       _initNTFontPrims           0040d150 f   ntfont.obj
 0001:0000cfc0       _flushWindowCachedDC       0040dfc0 f   ntgc.obj
 0001:0000d010       _flushPixmapCachedDC       0040e010 f   ntgc.obj
 0001:0000d050       _bDeinstallGraphicsState   0040e050 f   ntgc.obj
 0001:0000d410       _bInstallGraphicsState     0040e410 f   ntgc.obj
 0001:0000ddd0       _buildPoints               0040edd0 f   ntgc.obj
 0001:0000e060       _bGetMask                  0040f060 f   ntgc.obj
 0001:0000e130       _vw_GetWindowRgn           0040f130 f   ntgc.obj
 0001:0000e250       _initNTGCPrims             0040f250 f   ntgc.obj
 0001:00010380       _CreateColorMapOop         00411380 f   ntgraph.obj
 0001:00010ae0       _BuildPalette              00411ae0 f   ntgraph.obj
 0001:00010c90       _RemovePalette             00411c90 f   ntgraph.obj
 0001:00010cd0       _InitPalette               00411cd0 f   ntgraph.obj
 0001:00010d00       _TermPalette               00411d00 f   ntgraph.obj
 0001:00010d10       _InitScreen                00411d10 f   ntgraph.obj
 0001:00010da0       _initWindowPrimitives      00411da0 f   ntgraph.obj
 0001:00010e60       _pdHerald                  00411e60 f   ntherald.obj
 0001:00011380       _pdTearDownHerald          00412380 f   ntherald.obj
 0001:000113b0       _pdReportVersion           004123b0 f   ntherald.obj
 0001:000117f0       _initPixmapRegistry        004127f0 f   nthreg.obj
 0001:000118a0       _bFreeHandleRegistry       004128a0 f   nthreg.obj
 0001:00011a70       _registerHandle            00412a70 f   nthreg.obj
 0001:00011be0       _iHandleOfKey              00412be0 f   nthreg.obj
 0001:00011c50       _iKeyOfHandle              00412c50 f   nthreg.obj
 0001:00011cc0       _unRegisterHandle          00412cc0 f   nthreg.obj
 0001:00011d40       _pdMustFlushICache         00412d40 f   nticache.obj
 0001:00011dd0       _convert32BETo24LE         00412dd0 f   ntimage.obj
 0001:00011e00       _convert24LETo32BE         00412e00 f   ntimage.obj
 0001:00011e30       _getImage                  00412e30 f   ntimage.obj
 0001:00011ed0       _initNTImagePrims          00412ed0 f   ntimage.obj
 0001:00012790       _initIOBlock               00413790 f   ntioblok.obj
 0001:000128b0       _freeIOBlock               004138b0 f   ntioblok.obj
 0001:00012960       _pioblockOfHandle          00413960 f   ntioblok.obj
 0001:000129a0       _pioblockFirst             004139a0 f   ntioblok.obj
 0001:000129c0       _pioblockNext              004139c0 f   ntioblok.obj
 0001:000129e0       _logErrorInformation       004139e0 f   ntleave.obj
 0001:00012a20       _pdExit                    00413a20 f   ntleave.obj
 0001:00012a60       _pdInvokeDebugger          00413a60 f   ntleave.obj
 0001:00012a70       _InitMultipleMonitorStubs  00413a70 f   ntmain.obj
 0001:00012b50       _xGetSystemMetrics@4       00413b50 f   ntmain.obj
 0001:00012bc0       _xMonitorFromPoint@12      00413bc0 f   ntmain.obj
 0001:00012c30       _xMonitorFromRect@8        00413c30 f   ntmain.obj
 0001:00012ca0       _xMonitorFromWindow@8      00413ca0 f   ntmain.obj
 0001:00012d20       _xGetMonitorInfo@8         00413d20 f   ntmain.obj
 0001:00012de0       _xEnumDisplayMonitors@16   00413de0 f   ntmain.obj
 0001:00012f10       _oeMain                    00413f10 f   ntmain.obj
 0001:00013570       _dllCMain                  00414570 f   ntmain.obj
 0001:00013590       _WinMain@16                00414590 f   ntmain.obj
 0001:000135e0       _dllWMain                  004145e0 f   ntmain.obj
 0001:000136d0       _pdInformSystemReady       004146d0 f   ntmain.obj
 0001:00013a00       _profileInt                00414a00 f   ntmain.obj
 0001:00013a20       _profileString             00414a20 f   ntmain.obj
 0001:00013a40       _UPInitInternalLinkRegistry 00414a40 f   ntmain.obj
 0001:00013a50       _pdSetMemExecPerm          00414a50 f   ntmem.obj
 0001:00013a60       _pdMoreMemory              00414a60 f   ntmem.obj
 0001:00013bb0       _pdMapMemory               00414bb0 f   ntmem.obj
 0001:00013db0       _pdUnmapMemory             00414db0 f   ntmem.obj
 0001:00013e10       _pdStringLength            00414e10 f   ntmem.obj
 0001:00013eb0       _pdCopyFromExternalHeap    00414eb0 f   ntmem.obj
 0001:00013f50       _pdCopyToExternalHeap      00414f50 f   ntmem.obj
 0001:00013ff0       _pdAllocMemory             00414ff0 f   ntmem.obj
 0001:00014020       _pdFreeMemory              00415020 f   ntmem.obj
 0001:00014050       _pdMemStrategy             00415050 f   ntmem.obj
 0001:00014060       _pdGetPagesize             00415060 f   ntmem.obj
 0001:00014090       _pdMapFile                 00415090 f   ntmem.obj
 0001:000140a0       _cleanUpNTNLS              004150a0 f   ntnls.obj
 0001:000140c0       _initNTNLS                 004150c0 f   ntnls.obj
 0001:000142c0       _checkResources            004152c0 f   ntfile.obj
 0001:000142e0       _pdOpenImageResource       004152e0 f   ntfile.obj
 0001:00014370       _pdBlessSnapshot           00415370 f   ntfile.obj
 0001:000143b0       _pdOpenImage               004153b0 f   ntfile.obj
 0001:00014450       _pdCloseImage              00415450 f   ntfile.obj
 0001:00014490       _pdCloseImageResource      00415490 f   ntfile.obj
 0001:000144a0       _pdRead                    004154a0 f   ntfile.obj
 0001:000144f0       _pdWrite                   004154f0 f   ntfile.obj
 0001:00014550       _pdSeek                    00415550 f   ntfile.obj
 0001:00014600       _initFileUtilityPrims      00415600 f   ntfile.obj
 0001:00016ba0       _bDoFileReadFunc           00417ba0 f   ntfio.obj
 0001:00016be0       _bDoFileWriteFunc          00417be0 f   ntfio.obj
 0001:00016c60       _bDoFileBytesToReadFunc    00417c60 f   ntfio.obj
 0001:00016c70       _initFileIOPrims           00417c70 f   ntfio.obj
 0001:00017cb0       _initNewIO                 00418cb0 f   ntfio.obj
 0001:00017cc0       _freeSocketLibrary         00418cc0 f   ntsock.obj
 0001:00017db0       _bDoSockRecvFunc           00418db0 f   ntsock.obj
 0001:00017e50       _bDoSockSendFunc           00418e50 f   ntsock.obj
 0001:00017f00       _bDoSockBytesToReadFunc    00418f00 f   ntsock.obj
 0001:00017f40       _HiddenSocketWndProc@16    00418f40 f   ntsock.obj
 0001:00018170       _initSocketPrims           00419170 f   ntsock.obj
 0001:0001a4a0       _pdInitPlatform            0041b4a0 f   ntplat.obj
 0001:0001a4b0       _pdFPUType                 0041b4b0 f   ntplat.obj
 0001:0001a4c0       _pdSupportNBAPI            0041b4c0 f   ntplat.obj
 0001:0001a4d0       _PrintTextFile             0041b4d0 f   ntplat.obj
 0001:0001a7b0       _PrintPostScriptFile       0041b7b0 f   ntplat.obj
 0001:0001aa00       _PrinterAbortProc@8        0041ba00 f   ntprint.obj
 0001:0001aa60       _initNTPrinterPrims        0041ba60 f   ntprint.obj
 0001:0001c600       _pdInitSelection           0041d600 f   ntsel.obj
 0001:0001c610       _pdGetSelection            0041d610 f   ntsel.obj
 0001:0001c6b0       _pdGetSelectionDone        0041d6b0 f   ntsel.obj
 0001:0001c6d0       _pdSetSelection            0041d6d0 f   ntsel.obj
 0001:0001c740       _setIOSemSlot              0041d740 f   ntsem.obj
 0001:0001c810       _getIOSemSlot              0041d810 f   ntsem.obj
 0001:0001c830       _iAllocIOSemSlot           0041d830 f   ntsem.obj
 0001:0001ca40       _freeIOSemSlot             0041da40 f   ntsem.obj
 0001:0001ca70       _bInitIOSemRegistry        0041da70 f   ntsem.obj
 0001:0001cb90       _pdAckChildSignal          0041db90 f   ntsig.obj
 0001:0001cba0       _pdInitTime                0041dba0 f   nttime.obj
 0001:0001ccf0       _pdMicrosecondClock        0041dcf0 f   nttime.obj
 0001:0001ce20       _FileToSmalltalkSeconds    0041de20 f   nttime.obj
 0001:0001ce90       _pdStringEncoding          0041de90 f   ntwin.obj
 0001:0001ceb0       _pdInitWindow              0041deb0 f   ntwin.obj
 0001:0001ced0       _pdTerminateWindow         0041ded0 f   ntwin.obj
 0001:0001cef0       _pdSynchronizeInput        0041def0 f   ntwin.obj
 0001:0001cfc0       _pdThunkProcess            0041dfc0 f   ntwin.obj
 0001:0001cff0       _pdBlockUntilEvent         0041dff0 f   ntwin.obj
 0001:0001d020       _pdRingBell                0041e020 f   ntwin.obj
 0001:0001d030       _pdCallFar                 0041e030 f   ntcall16.obj
 0001:0001df20       _pdCOMMethodThunkSize      0041ef20 f   ntcom.obj
 0001:0001df50       _pdCOMPlaceThunkInto       0041ef50 f   ntcom.obj
 0001:0001ee30       _pdThunkCreate             0041fe30 f   ntcallbk.obj
 0001:0001efc0       _pdThunkDestroy            0041ffc0 f   ntcallbk.obj
 0001:0001f6f0       _NBAPICallbackArgsInto     004206f0 f   ntcallbk.obj
 0001:0001f740       _NBAPIReapCallbackReturn   00420740 f   ntcallbk.obj
 0001:0001fac0       _pdCallC                   00420ac0 f   ntcallc.obj
 0001:00020bc0       _pdNumBitsForKind          00421bc0 f   ntcallc.obj
 0001:00020c40       _NBAPIInnerCall            00421c40 f   ntcallc.obj
 0001:00020ec0       _NBAPIReapInnerCall        00421ec0 f   ntcallc.obj
 0001:000211e0       _thunkCreateFar            004221e0 f   ntcbk16.obj
 0001:00021410       _thunkDestroyFar           00422410 f   ntcbk16.obj
 0001:00021420       _thunkProcessFar@16        00422420 f   ntcbk16.obj
 0001:00022110       _copyBits                  00423110 f   exBitBlt.obj
 0001:000230d0       _copyBitsFromtoat          004240d0 f   exBitBlt.obj
 0001:00023f10       _getModuleName             00424f10 f   exBitBlt.obj
 0001:00023f20       _initBitBltPrimitives      00424f20 f   exBitBlt.obj
 0001:000249a0       _initialiseModule          004259a0 f   exBitBlt.obj
 0001:000249b0       _loadBitBltFrom            004259b0 f   exBitBlt.obj
 0001:000257b0       _moduleUnloaded            004267b0 f   exBitBlt.obj
 0001:00025aa0       _primitiveCopyBits         00426aa0 f   exBitBlt.obj
 0001:00025b10       _primitiveCopyBitstranslucency 00426b10 f   exBitBlt.obj
 0001:00025ba0       _primitiveDisplayStringstringfromtomapxTablekern 00426ba0 f   exBitBlt.obj
 0001:00026070       _primitiveDrawLoopXY       00427070 f   exBitBlt.obj
 0001:00026490       _primitiveWarpBitssmoothing 00427490 f   exBitBlt.obj
 0001:00026ec0       _sourceBLTstridedeststridedxdysxsywhruledoTile 00427ec0 f   exBitBlt.obj
 0001:000284b0       _countTableSlots           004294b0 f   exCOM.obj
 0001:00028560       _populateMethodTable       00429560 f   exCOM.obj
 0001:00028770       _initCOMPrimitives         00429770 f   exCOM.obj
 0001:00029a60       _maybeCallCFatalError      0042aa60 f   exCallC.obj
 0001:00029ac0       _initCPrimitives           0042aac0 f   exCallC.obj
 0001:0002b2b0       _initCallbackPrimitives    0042c2b0 f   exCallback.obj
 0001:0002b570       _stOopToCValue             0042c570 f   exCallSup.obj
 0001:0002b730       _cSignedToOop              0042c730 f   exCallSup.obj
 0001:0002b850       _cUnsignedToOop            0042c850 f   exCallSup.obj
 0001:0002b930       _coerceToCString           0042c930 f   exCallSup.obj
 0001:0002bbe0       _initCSupportPrimitives    0042cbe0 f   exCallSup.obj
 0001:0002e350       _initDisplayPrimitives     0042f350 f   exDisplay.obj
 0001:0002e4b0       _objReverseFourQ8s         0042f4b0 f   exEndian.obj
 0001:0002e520       _objReverseTwoQ8s          0042f520 f   exEndian.obj
 0001:0002e570       _objReverseTwoQ16s         0042f570 f   exEndian.obj
 0001:0002e750       _initEnvironmentPrimitives 0042f750 f   exEnviron.obj
 0001:0002f850       _initError                 00430850 f   exError.obj
 0001:0002f900       _doReportError             00430900 f   exError.obj
 0001:0002fb80       _exportTableAt             00430b80 f   exExport.obj
 0001:0002fbe0       _exportTableReleaseAt      00430be0 f   exExport.obj
 0001:0002fc60       _initExportTablePrimitives 00430c60 f   exExport.obj
 0001:0002fd00       _initExternPrimitives      00430d00 f   exInit.obj
 0001:0002fd40       _loadImageHeader           00430d40 f   exInit.obj
 0001:0002fe90       _startSupervisor           00430e90 f   exInit.obj
 0001:0002fff0       _initSuper                 00430ff0 f   exInit.obj
 0001:00030130       _readImageFile             00431130 f   exInit.obj
 0001:00030300       _closeImageFile            00431300 f   exInit.obj
 0001:00030490       _wellFormedZone            00431490 f   exInit.obj
 0001:000306e0       _oeInitZlibLinkRegistry    004316e0 f   exInit.obj
 0001:00030990       _extendedQueueNewAscii     00431990 f   exInQueue.obj
 0001:00030a00       _extendedQueueTypedEvent   00431a00 f   exInQueue.obj
 0001:00030c10       _queueTypedEvent           00431c10 f   exInQueue.obj
 0001:00030c50       _initInput                 00431c50 f   exInQueue.obj
 0001:00030f80       _initIOPrimitives          00431f80 f   exIO.obj
 0001:00031200       _initGUIPrimitives         00432200 f   exIO.obj
 0001:00031210       _vmExit                    00432210 f   exLeave.obj
 0001:00031260       _initLeavePrimitives       00432260 f   exLeave.obj
 0001:00031370       _moreMemory                00432370 f   exMemory.obj
 0001:00031420       _lessMemory                00432420 f   exMemory.obj
 0001:00031460       _memStrategy               00432460 f   exMemory.obj
 0001:00031480       _UPSendMessageMany         00432480 f   exMessage.obj
 0001:000314b0       _oeSendMessageMany         004324b0 f   exMessage.obj
 0001:00032430       _UPSendMessage0            00433430 f   exMessage.obj
 0001:00032600       _oeSendMessage0            00433600 f   exMessage.obj
 0001:00032630       _UPSendMessage1            00433630 f   exMessage.obj
 0001:00032660       _oeSendMessage1            00433660 f   exMessage.obj
 0001:00032690       _UPSendMessage2            00433690 f   exMessage.obj
 0001:000326d0       _oeSendMessage2            004336d0 f   exMessage.obj
 0001:00032710       _oeSendMessage3            00433710 f   exMessage.obj
 0001:00032750       _UPSendMessage3            00433750 f   exMessage.obj
 0001:00032790       _UPCSendMessageMany        00433790 f   exMessage.obj
 0001:000327c0       _oeCSendMessageMany        004337c0 f   exMessage.obj
 0001:00032990       _UPCSendMessage0           00433990 f   exMessage.obj
 0001:000329c0       _oeCSendMessage0           004339c0 f   exMessage.obj
 0001:000329f0       _UPCSendMessage1           004339f0 f   exMessage.obj
 0001:00032a20       _oeCSendMessage1           00433a20 f   exMessage.obj
 0001:00032a50       _UPCSendMessage2           00433a50 f   exMessage.obj
 0001:00032a90       _oeCSendMessage2           00433a90 f   exMessage.obj
 0001:00032ad0       _UPCSendMessage3           00433ad0 f   exMessage.obj
 0001:00032b10       _oeCSendMessage3           00433b10 f   exMessage.obj
 0001:00032b50       _UPFailPrimitive           00433b50 f   exMessage.obj
 0001:00032b80       _UPFailPrimitiveAtLine     00433b80 f   exMessage.obj
 0001:00032bd0       _UPReturn                  00433bd0 f   exMessage.obj
 0001:00032c70       _initMessagePrimitives     00433c70 f   exMessage.obj
 0001:00033350       _stringToInt               00434350 f   exOption.obj
 0001:000334b0       _setOption                 004344b0 f   exOption.obj
 0001:00033980       _reportUsage               00434980 f   exOption.obj
 0001:00033a00       _copySubStringToC          00434a00 f   exPrimUtil.obj
 0001:00033bd0       _isValidPlatformString     00434bd0 f   exPrimUtil.obj
 0001:00033de0       _promoteToFixedSpace       00434de0 f   exPrimUtil.obj
 0001:00033e70       _copyToCString             00434e70 f   exPrimUtil.obj
 0001:00033ef0       _tempCString               00434ef0 f   exPrimUtil.obj
 0001:00033f80       _STStringWithSize          00434f80 f   exPrimUtil.obj
 0001:00033fd0       _setStringEncoding         00434fd0 f   exPrimUtil.obj
 0001:000340c0       _isKindOf                  004350c0 f   exPrimUtil.obj
 0001:00034100       _inheritsFrom1             00435100 f   exPrimUtil.obj
 0001:00034130       _inheritsFrom2             00435130 f   exPrimUtil.obj
 0001:00034170       _inheritsFrom3             00435170 f   exPrimUtil.obj
 0001:000341c0       _inheritsFrom4             004351c0 f   exPrimUtil.obj
 0001:00034210       _cloneErrorWith            00435210 f   exPrimUtil.obj
 0001:000342f0       _cloneCallCError           004352f0 f   exPrimUtil.obj
 0001:00034540       _initScanCharPrimitives    00435540 f   exScanCh.obj
 0001:00034b70       _signalChildStatusSemaphore 00435b70 f   exSignal.obj
 0001:00034b90       _initSignalPrimitives      00435b90 f   exSignal.obj
 0001:00034c30       _initTime                  00435c30 f   exTimer.obj
 0001:00034c50       _timeExpired               00435c50 f   exTimer.obj
 0001:00034e30       _isTimerActive             00435e30 f   exTimer.obj
 0001:00034e40       _initTimePrimitives        00435e40 f   exTimer.obj
 0001:000350c0       _InitializeNBAPI           004360c0 f   exThapi.obj
 0001:000352d0       _NBAPISemaphoreForCurrentProcess 004362d0 f   exThapi.obj
 0001:00035370       _NBAPITInfoForThread       00436370 f   exThapi.obj
 0001:000353c0       _NBAPISignalThreadForCallout 004363c0 f   exThapi.obj
 0001:00035400       _NBAPIThreadForCall        00436400 f   exThapi.obj
 0001:000356b0       _NBAPIProcessHasAttachedThread 004366b0 f   exThapi.obj
 0001:00035720       _NBAPIAttachProcessToThread 00436720 f   exThapi.obj
 0001:00035760       _NBAPIDetachProcessFromThread 00436760 f   exThapi.obj
 0001:000357e0       _NBAPIGetThreadLevels      004367e0 f   exThapi.obj
 0001:00035880       _NBAPISetThreadLevels      00436880 f   exThapi.obj
 0001:000358d0       _NBAPIInvokeCallback       004368d0 f   exThapi.obj
 0001:00035a20       _NBAPICallbackReturn       00436a20 f   exThapi.obj
 0001:00035b40       _NBAPIReleaseThreadIfUnwound 00436b40 f   exThapi.obj
 0001:00035c50       _NBAPICheckProcessTermination 00436c50 f   exThapi.obj
 0001:00035e80       _NBAPIYield                00436e80 f   exThapi.obj
 0001:00036320       _NBAPIServiceThreads       00437320 f   exThapi.obj
 0001:00036c30       _stateof                   00437c30 f   exThapi.obj
 0001:00036cb0       _allegianceName            00437cb0 f   exThapi.obj
 0001:00036ce0       _printTInfo                00437ce0 f   exThapi.obj
 0001:00036df0       _printNBAPIList            00437df0 f   exThapi.obj
 0001:00036e40       _printNBAPI                00437e40 f   exThapi.obj
 0001:00036eb0       _initPrimitives            00437eb0 f   pr.obj
 0001:00036ed0       _initArithmeticPrims       00437ed0 f   prArithmetic.obj
 0001:00037a00       _oeGetErrorCode            00438a00 f   prCtoST.obj
 0001:00037a10       _oeStartLongComputation    00438a10 f   prCtoST.obj
 0001:00037a20       _oeFinishLongComputation   00438a20 f   prCtoST.obj
 0001:00037a30       _oeNil                     00438a30 f   prCtoST.obj
 0001:00037a40       _oeTrue                    00438a40 f   prCtoST.obj
 0001:00037a50       _oeFalse                   00438a50 f   prCtoST.obj
 0001:00037a60       _oeSmallIntegerClass       00438a60 f   prCtoST.obj
 0001:00037a70       _oeCharacterClass          00438a70 f   prCtoST.obj
 0001:00037a80       _oeFloatClass              00438a80 f   prCtoST.obj
 0001:00037a90       _oePointClass              00438a90 f   prCtoST.obj
 0001:00037aa0       _oeArrayClass              00438aa0 f   prCtoST.obj
 0001:00037ab0       _oeSemaphoreClass          00438ab0 f   prCtoST.obj
 0001:00037ac0       _oeByteStringClass         00438ac0 f   prCtoST.obj
 0001:00037ad0       _oeLargePositiveIntegerClass 00438ad0 f   prCtoST.obj
 0001:00037ae0       _oeLargeNegativeIntegerClass 00438ae0 f   prCtoST.obj
 0001:00037af0       _oeByteArrayClass          00438af0 f   prCtoST.obj
 0001:00037b00       _oeTwoByteStringClass      00438b00 f   prCtoST.obj
 0001:00037b10       _oeTwoByteSymbolClass      00438b10 f   prCtoST.obj
 0001:00037b20       _oeDoubleClass             00438b20 f   prCtoST.obj
 0001:00037b30       _oeOEToCbool               00438b30 f   prCtoST.obj
 0001:00037ba0       _oeOEToCint                00438ba0 f   prCtoST.obj
 0001:00037c00       _oeOEToCchar               00438c00 f   prCtoST.obj
 0001:00037c60       _oeOEToCfloat              00438c60 f   prCtoST.obj
 0001:00037ce0       _oeCtoOEbool               00438ce0 f   prCtoST.obj
 0001:00037d00       _oeCtoOEint                00438d00 f   prCtoST.obj
 0001:00037d50       _oeCtoOEchar               00438d50 f   prCtoST.obj
 0001:00037d60       _oeCtoOEfloat              00438d60 f   prCtoST.obj
 0001:00037df0       _oeAllocString             00438df0 f   prCtoST.obj
 0001:00037ee0       _oeAllocByteArray          00438ee0 f   prCtoST.obj
 0001:00037fd0       _oeAllocArray              00438fd0 f   prCtoST.obj
 0001:00038170       _oeCopyOEtoCstring         00439170 f   prCtoST.obj
 0001:00038270       _oeCopyOEtoCbytes          00439270 f   prCtoST.obj
 0001:00038340       _oeCopyOEtoCintArray       00439340 f   prCtoST.obj
 0001:00038480       _oeCopyOEtoCfloatArray     00439480 f   prCtoST.obj
 0001:000385e0       _oeCopyCtoOEstring         004395e0 f   prCtoST.obj
 0001:000386e0       _oeCopyCtoOEbytes          004396e0 f   prCtoST.obj
 0001:000387b0       _oeCopyCtoOEintArray       004397b0 f   prCtoST.obj
 0001:000388f0       _oeCopyCtoOEfloatArray     004398f0 f   prCtoST.obj
 0001:00038af0       _oeOopDataPtr              00439af0 f   prCtoST.obj
 0001:00038b20       _oeInstVarSize             00439b20 f   prCtoST.obj
 0001:00038b80       _oeIndexVarSize            00439b80 f   prCtoST.obj
 0001:00038c40       _oeBasicAt                 00439c40 f   prCtoST.obj
 0001:00038d00       _oeInstVarAt               00439d00 f   prCtoST.obj
 0001:00038da0       _oeByteAt                  00439da0 f   prCtoST.obj
 0001:00038e50       _oeIntegerAt               00439e50 f   prCtoST.obj
 0001:00038f40       _oeFloatAt                 00439f40 f   prCtoST.obj
 0001:00039060       _oeDoubleAt                0043a060 f   prCtoST.obj
 0001:00039180       _oeBasicAtPut              0043a180 f   prCtoST.obj
 0001:00039320       _oeInstVarAtPut            0043a320 f   prCtoST.obj
 0001:00039490       _oeByteAtPut               0043a490 f   prCtoST.obj
 0001:00039540       _oeIntegerAtPut            0043a540 f   prCtoST.obj
 0001:000396e0       _oeFloatAtPut              0043a6e0 f   prCtoST.obj
 0001:00039880       _oeIsCharacter             0043a880 f   prCtoST.obj
 0001:000398a0       _oeIsInteger               0043a8a0 f   prCtoST.obj
 0001:000398c0       _oeIsString                0043a8c0 f   prCtoST.obj
 0001:00039920       _oeIsByteArray             0043a920 f   prCtoST.obj
 0001:00039980       _oeIsArrayOfInteger        0043a980 f   prCtoST.obj
 0001:00039a50       _oeIsArrayOfFloat          0043aa50 f   prCtoST.obj
 0001:00039b40       _oeIsBoolean               0043ab40 f   prCtoST.obj
 0001:00039b90       _oeIsFloat                 0043ab90 f   prCtoST.obj
 0001:00039bf0       _oeIsByteLike              0043abf0 f   prCtoST.obj
 0001:00039c30       _oeIsImmediate             0043ac30 f   prCtoST.obj
 0001:00039c40       _oeCouldBeOop              0043ac40 f   prCtoST.obj
 0001:00039c80       _oeClass                   0043ac80 f   prCtoST.obj
 0001:00039cd0       _oeOEToCdouble             0043acd0 f   prCtoST.obj
 0001:00039d60       _oeCtoOEdouble             0043ad60 f   prCtoST.obj
 0001:00039e10       _oeIsDouble                0043ae10 f   prCtoST.obj
 0001:00039e60       _oeIsKindOf                0043ae60 f   prCtoST.obj
 0001:00039ee0       _oeInstallPollHandler      0043aee0 f   prCtoST.obj
 0001:00039f00       _oeSignalSemaphore         0043af00 f   prCtoST.obj
 0001:00039f70       _oePostInterrupt           0043af70 f   prCtoST.obj
 0001:00039f80       _oeRegisteredHandleAt      0043af80 f   prCtoST.obj
 0001:00039fb0       _oeRegisteredHandleAtPut   0043afb0 f   prCtoST.obj
 0001:0003a020       _oeAddPrimitive            0043b020 f   prCtoST.obj
 0001:0003a040       _oeAllocRegistrySlot       0043b040 f   prCtoST.obj
 0001:0003a060       _oeAllocFsObject           0043b060 f   prCtoST.obj
 0001:0003a0d0       _oeAllocVsObject           0043b0d0 f   prCtoST.obj
 0001:0003a160       _oeClassType               0043b160 f   prCtoST.obj
 0001:0003a1a0       _initOEprotocol            0043b1a0 f   prCtoST.obj
 0001:0003a1b0       _initDoublePrims           0043b1b0 f   prDouble.obj
 0001:0003bd50       _initFloatPrims            0043cd50 f   prFloat.obj
 0001:0003d310       _initLargeIntPrims         0043e310 f   prLarge.obj
 0001:00040c70       _UPRegisterSymbolAndHandle 00441c70 f   prLinkRegistry.obj
 0001:00040d40       _UPHandleForSymbol         00441d40 f   prLinkRegistry.obj
 0001:00040db0       _oeRegisterSymbolAndHandle 00441db0 f   prLinkRegistry.obj
 0001:00040dd0       _initLinkRegistryPrimitives 00441dd0 f   prLinkRegistry.obj
 0001:00040e80       _recycleObj                00441e80 f   mm.obj
 0001:00041070       _maximumIdentityHashValue  00442070 f   mm.obj
 0001:00041080       _getObjHash                00442080 f   mm.obj
 0001:000410d0       _initObjectPrims           004420d0 f   mm.obj
 0001:00041bc0       _classCheckIfMetaclassHasSubclasses 00442bc0 f   mmAllocate.obj
 0001:00041c00       _classType                 00442c00 f   mmAllocate.obj
 0001:00041c50       _allocFSObj                00442c50 f   mmAllocate.obj
 0001:00041d60       _allocVSObj                00442d60 f   mmAllocate.obj
 0001:00041f40       _createShallowCopyOf       00442f40 f   mmAllocate.obj
 0001:00042220       _allocSmallObj             00443220 f   mmAllocate.obj
 0001:00042280       _allocLargePointerObj      00443280 f   mmAllocate.obj
 0001:000422c0       _allocLargeByteObj         004432c0 f   mmAllocate.obj
 0001:00042310       _shrinkOrCopyPtrObj        00443310 f   mmAllocate.obj
 0001:00042390       _initAllocationPrims       00443390 f   mmAllocate.obj
 0001:000430d0       _tryBecome                 004440d0 f   mmBecome.obj
 0001:00045410       _initBecomePrims           00446410 f   mmBecome.obj
 0001:00045b90       _dbObjHeader               00446b90 f   mmDebug.obj
 0001:00045e40       _dbxHeader                 00446e40 f   mmDebug.obj
 0001:00045e60       _dbObjData                 00446e60 f   mmDebug.obj
 0001:00046060       _dbxData                   00447060 f   mmDebug.obj
 0001:00046080       _dbObjDataField            00447080 f   mmDebug.obj
 0001:000460c0       _dbSetObjDataField         004470c0 f   mmDebug.obj
 0001:000460f0       _dbObjDataPtr              004470f0 f   mmDebug.obj
 0001:00046130       _dbObjClass                00447130 f   mmDebug.obj
 0001:00046150       _dbObjClassName            00447150 f   mmDebug.obj
 0001:00046180       _dbfObjClassName           00447180 f   mmDebug.obj
 0001:00046800       _dbxClassName              00447800 f   mmDebug.obj
 0001:00046820       _dbClassNameIs             00447820 f   mmDebug.obj
 0001:00046ad0       _printIfClassNameIs        00447ad0 f   mmDebug.obj
 0001:00046b00       _dbObjClassNameIs          00447b00 f   mmDebug.obj
 0001:00046f80       _printIfObjClassNameIs     00447f80 f   mmDebug.obj
 0001:00046fb0       _dbObjMayBeClass           00447fb0 f   mmDebug.obj
 0001:00047120       _dbObjDataSize             00448120 f   mmDebug.obj
 0001:000471a0       _dbObjHasPtrs              004481a0 f   mmDebug.obj
 0001:000471d0       _dbObjInOldRt              004481d0 f   mmDebug.obj
 0001:00047200       _dbObjIsMarked             00448200 f   mmDebug.obj
 0001:00047230       _dbObjIsForwarded          00448230 f   mmDebug.obj
 0001:00047260       _dbObjInRt                 00448260 f   mmDebug.obj
 0001:00047290       _dbObjHash                 00448290 f   mmDebug.obj
 0001:000472c0       _dbSelectorName            004482c0 f   mmDebug.obj
 0001:00047380       _dbxSelectorName           00448380 f   mmDebug.obj
 0001:000473a0       _dbResidence               004483a0 f   mmDebug.obj
 0001:000477a0       _dbxResidence              004487a0 f   mmDebug.obj
 0001:000477c0       _dbObjOwners               004487c0 f   mmDebug.obj
 0001:000479b0       _dbxOwners                 004489b0 f   mmDebug.obj
 0001:000479d0       _dbPrintIndicesOfIn        004489d0 f   mmDebug.obj
 0001:00047a60       _initDebugPrims            00448a60 f   mmDebug.obj
 0001:00047b70       _oopInObj                  00448b70 f   mmEnumerate.obj
 0001:00047c10       _initEnumerationPrims      00448c10 f   mmEnumerate.obj
 0001:000488c0       _signalFinalizationSemaphoreIfRequired 004498c0 f   mmFinal.obj
 0001:00048900       _reserveOnEphemeronQueue   00449900 f   mmFinal.obj
 0001:00048950       _addToEphemeronQueue       00449950 f   mmFinal.obj
 0001:00048970       _addToFinalQueue           00449970 f   mmFinal.obj
 0001:00048ae0       _shrinkFinalQueue          00449ae0 f   mmFinal.obj
 0001:00048ba0       _shiftFinalQueueEntries    00449ba0 f   mmFinal.obj
 0001:00048d10       _initFinalQueue            00449d10 f   mmFinal.obj
 0001:00048df0       _updateFinalQueuePtrs      00449df0 f   mmFinal.obj
 0001:00048ec0       _initFinalizationPrims     00449ec0 f   mmFinal.obj
 0001:00049280       _addToMarkListFunc         0044a280 f   mmGarbage.obj
 0001:000492d0       _compact                   0044a2d0 f   mmGarbage.obj
 0001:000492f0       _initGarbagePrims          0044a2f0 f   mmGarbage.obj
 0001:0004a030       _addToIncWeakListFunc      0044b030 f   mmIncGC.obj
 0001:0004a0e0       _blowAwayIncGC             0044b0e0 f   mmIncGC.obj
 0001:0004a400       _incMarkObj                0044b400 f   mmIncGC.obj
 0001:0004a500       _incMarkPermObjRefs        0044b500 f   mmIncGC.obj
 0001:0004a740       _chStOldObjInNonNew        0044b740 f   mmIncGC.obj
 0001:0004afe0       _validateOldObj            0044bfe0 f   mmIncGC.obj
 0001:0004b080       _initIncGCPrims            0044c080 f   mmIncGC.obj
 0001:0004b1c0       _getImageFileFormat        0044c1c0 f   mmInit.obj
 0001:0004b1d0       _getImageType              0044c1d0 f   mmInit.obj
 0001:0004b1e0       _getImageSubType           0044c1e0 f   mmInit.obj
 0001:0004b1f0       _setImageSubType           0044c1f0 f   mmInit.obj
 0001:0004b200       _startKernel               0044c200 f   mmInit.obj
 0001:0004b780       _readImageHeader           0044c780 f   mmInit.obj
 0001:0004c220       _getDecompressionWorkspaces 0044d220 f   mmInit.obj
 0001:0004c510       _realSlotsInStackSpace     0044d510 f   mmInit.obj
 0001:0004cf70       _updateOopFunc             0044df70 f   mmInit.obj
 0001:0004cff0       _updatePermDataPtrFunc     0044dff0 f   mmInit.obj
 0001:0004dec0       _sweepLt                   0044eec0 f   mmLargeSpace.obj
 0001:0004df20       _sweepAndCompactLargeSpace 0044ef20 f   mmLargeSpace.obj
 0001:0004e020       _findFreeLsBlock           0044f020 f   mmLargeSpace.obj
 0001:0004e050       _compactLargeSpace         0044f050 f   mmLargeSpace.obj
 0001:0004e2e0       _resetLargeSpaceAfterScavenge 0044f2e0 f   mmLargeSpace.obj
 0001:0004e3c0       _compactLargeSpaceResponse 0044f3c0 f   mmLargeSpace.obj
 0001:0004e650       _reRegisterLargeObj        0044f650 f   mmLargeSpace.obj
 0001:0004e6b0       _largeSlotsToTenure        0044f6b0 f   mmLargeSpace.obj
 0001:0004e6d0       _numLargeSpaceObjects      0044f6d0 f   mmLargeSpace.obj
 0001:0004e6f0       _occupiedLsDataSlots       0044f6f0 f   mmLargeSpace.obj
 0001:0004e710       _writeLargeSpace           0044f710 f   mmLargeSpace.obj
 0001:0004e7b0       _allocInLargeSpace         0044f7b0 f   mmLargeSpace.obj
 0001:0004e9c0       _initializeEmptyFixedSpaceSegment 0044f9c0 f   mmFixedSpace.obj
 0001:0004ea20       _sweepFt                   0044fa20 f   mmFixedSpace.obj
 0001:0004eaa0       _sweepAndCompactFixedSpace 0044faa0 f   mmFixedSpace.obj
 0001:0004eb70       _compactFixedSpace         0044fb70 f   mmFixedSpace.obj
 0001:0004ec90       _resetFixedSpaceAfterScavenge 0044fc90 f   mmFixedSpace.obj
 0001:0004eda0       _existsFixedSpaceSegmentFor 0044fda0 f   mmFixedSpace.obj
 0001:0004ee50       _reRegisterFixedObj        0044fe50 f   mmFixedSpace.obj
 0001:0004eec0       _occupiedFsDataSlotsIn     0044fec0 f   mmFixedSpace.obj
 0001:0004ef00       _occupiedFsDataSlots       0044ff00 f   mmFixedSpace.obj
 0001:0004ef40       _occupiedFtSlots           0044ff40 f   mmFixedSpace.obj
 0001:0004ef90       _writeFixedSpace           0044ff90 f   mmFixedSpace.obj
 0001:0004f0b0       _allocInFixedSpace         004500b0 f   mmFixedSpace.obj
 0001:0004f3b0       _growFixedSpace            004503b0 f   mmFixedSpace.obj
 0001:0004f4f0       _discardFixedSpaceSegment  004504f0 f   mmFixedSpace.obj
 0001:0004f500       _numFixedSpaceSegs         00450500 f   mmFixedSpace.obj
 0001:0004f520       _sweepNewSpace             00450520 f   mmNewSpace.obj
 0001:0004f6d0       _getNextNewSpaceObj        004506d0 f   mmNewSpace.obj
 0001:0004f770       _searchNewSpace            00450770 f   mmNewSpace.obj
 0001:0004f7d0       _recycleNewObj             004507d0 f   mmNewSpace.obj
 0001:0004f870       _recycleNewOtEntry         00450870 f   mmNewSpace.obj
 0001:0004f890       _allocInNewSpace           00450890 f   mmNewSpace.obj
 0001:0004f9b0       _allocInPastSpace          004509b0 f   mmNewSpace.obj
 0001:0004faa0       _shrinkOrCopyNewObj        00450aa0 f   mmNewSpace.obj
 0001:0004fc30       _printSomeNewSpace         00450c30 f   mmNewSpace.obj
 0001:0004fcd0       _printNewSpace             00450cd0 f   mmNewSpace.obj
 0001:0004fd90       _registerInOldRt           00450d90 f   mmOldRt.obj
 0001:0004fe00       _initOldRt                 00450e00 f   mmOldRt.obj
 0001:0004fe50       _initPermObjIfNotSystemObj 00450e50 f   mmOldRt.obj
 0001:0004fea0       _initPermObj               00450ea0 f   mmOldRt.obj
 0001:0004ff20       _createOldRt               00450f20 f   mmOldRt.obj
 0001:0004ffd0       _scanOldRtCreatingBackPtrs 00450fd0 f   mmOldRt.obj
 0001:00050040       _updateOldRtPtrs           00451040 f   mmOldRt.obj
 0001:00050080       _cacheOldRtOop             00451080 f   mmOldRt.obj
 0001:000500a0       _compactOldRt              004510a0 f   mmOldRt.obj
 0001:000500e0       _sweepOldRt                004510e0 f   mmOldRt.obj
 0001:000501d0       _shrinkOldRt               004511d0 f   mmOldRt.obj
 0001:000501e0       _emptyOldRt                004511e0 f   mmOldRt.obj
 0001:00050220       _prepareOldRtForIncMark    00451220 f   mmOldRt.obj
 0001:00050240       _incMarkOldRtEntries       00451240 f   mmOldRt.obj
 0001:00050290       _incMarkOldRtEntriesNBL    00451290 f   mmOldRt.obj
 0001:00050300       _objReallyInOldRt          00451300 f   mmOldRt.obj
 0001:00050380       _createOopStack            00451380 f   mmOopStack.obj
 0001:000503d0       _releaseOopStack           004513d0 f   mmOopStack.obj
 0001:00050410       _shrinkOopStack            00451410 f   mmOopStack.obj
 0001:00050450       _emptyOopStack             00451450 f   mmOopStack.obj
 0001:000504f0       _recycleOopStack           004514f0 f   mmOopStack.obj
 0001:00050530       _pushOopStackCallout       00451530 f   mmOopStack.obj
 0001:000505c0       _popOopStackCallout        004515c0 f   mmOopStack.obj
 0001:000505e0       _enumOopStack              004515e0 f   mmOopStack.obj
 0001:00050610       _incEnumOopStack           00451610 f   mmOopStack.obj
 0001:00050820       _incEnumOopStackNBL        00451820 f   mmOopStack.obj
 0001:000509e0       _neverCalled               004519e0 f   mmOopStack.obj
 0001:000509f0       _initOopStack              004519f0 f   mmOopStack.obj
 0001:00050ad0       _sweepOopStack             00451ad0 f   mmOopStack.obj
 0001:00050b10       _markOopStack              00451b10 f   mmOopStack.obj
 0001:00050b70       _objIsOopStackSeg          00451b70 f   mmOopStack.obj
 0001:00050bb0       _totalEntriesInOopStack    00451bb0 f   mmOopStack.obj
 0001:00050be0       _liveEntriesInOopStack     00451be0 f   mmOopStack.obj
 0001:00050c10       _recommendedOsReserveSlots 00451c10 f   mmOldSpace.obj
 0001:00050c40       _objPointsToOldSpace       00451c40 f   mmOldSpace.obj
 0001:00050cc0       _growOldObject             00451cc0 f   mmOldSpace.obj
 0001:00051100       _shrinkOldObject           00452100 f   mmOldSpace.obj
 0001:00051290       _resetIncUnmarkCounts      00452290 f   mmOldSpace.obj
 0001:000512a0       _resetIncSweepCounts       004522a0 f   mmOldSpace.obj
 0001:000512c0       _resetFragmentationCounts  004522c0 f   mmOldSpace.obj
 0001:000512e0       _initOldSpaceBounds        004522e0 f   mmOldSpace.obj
 0001:00051390       _freeLargeOldDataNoOop     00452390 f   mmOldSpace.obj
 0001:00051410       _allocOldData              00452410 f   mmOldSpace.obj
 0001:00051840       _prepareThreadedFreeListForSnapshot 00452840 f   mmOldSpace.obj
 0001:000518d0       _updateThreadedDataPointers 004528d0 f   mmOldSpace.obj
 0001:000519e0       _assimilateOldFreeList     004529e0 f   mmOldSpace.obj
 0001:00051a90       _flattenThreadedDataForPermLoad 00452a90 f   mmOldSpace.obj
 0001:00051b80       _addressInOldSegment       00452b80 f   mmOldSpace.obj
 0001:00051bc0       _addressInOldSegmentData   00452bc0 f   mmOldSpace.obj
 0001:00051c00       _addressInAnySegment       00452c00 f   mmOldSpace.obj
 0001:00051c30       _addressInAnySegmentData   00452c30 f   mmOldSpace.obj
 0001:00051c60       _addressInOldOt            00452c60 f   mmOldSpace.obj
 0001:00051ca0       _addressInAnyOt            00452ca0 f   mmOldSpace.obj
 0001:00051cd0       _addressInOldNewOt         00452cd0 f   mmOldSpace.obj
 0001:00051d10       _addressInAnyNewOt         00452d10 f   mmOldSpace.obj
 0001:00051d40       _addressInPermSegment      00452d40 f   mmOldSpace.obj
 0001:00051d70       _addressInPermOt           00452d70 f   mmOldSpace.obj
 0001:00051da0       _absorbPermFreeList        00452da0 f   mmOldSpace.obj
 0001:00051e70       _absorbPermSpace           00452e70 f   mmOldSpace.obj
 0001:00051f10       _restorePermSpace          00452f10 f   mmOldSpace.obj
 0001:00051f90       _growOldSpace              00452f90 f   mmOldSpace.obj
 0001:00052110       _findContiguousSlotsInOldSpaceSlowly 00453110 f   mmOldSpace.obj
 0001:00052210       _resetThreadedData         00453210 f   mmOldSpace.obj
 0001:00052230       _sweepAndCompactOldSpace   00453230 f   mmOldSpace.obj
 0001:00052f10       _updateOopAfterOtCompFunc  00453f10 f   mmOldSpace.obj
 0001:00052f40       _saveOtBaseAfterIncMark    00453f40 f   mmOldSpace.obj
 0001:00052f80       _resetAfterIncSweepOfOldSpace 00453f80 f   mmOldSpace.obj
 0001:00052f90       _incSweepOldSpace          00453f90 f   mmOldSpace.obj
 0001:000532f0       _slotsLeftInOldSpace       004542f0 f   mmOldSpace.obj
 0001:00053330       _slotsUsedInOldSpace       00454330 f   mmOldSpace.obj
 0001:00053370       _sufficientFreeContiguousSpace 00454370 f   mmOldSpace.obj
 0001:000533c0       _searchObjectMemory        004543c0 f   mmOldSpace.obj
 0001:00053520       _collectAllSpecifiedObjects 00454520 f   mmOldSpace.obj
 0001:00053890       _scanObjectMemory          00454890 f   mmOldSpace.obj
 0001:00053a40       _scanReferentsOf           00454a40 f   mmOldSpace.obj
 0001:00053ce0       _writeOldSpace             00454ce0 f   mmOldSpace.obj
 0001:00053e90       _otEntriesUsedInOldSpace   00454e90 f   mmOldSpace.obj
 0001:00053ee0       _numOldSpaceSegs           00454ee0 f   mmOldSpace.obj
 0001:00053f00       _prepareToUnmarkOldSpace   00454f00 f   mmOldSpace.obj
 0001:00053f40       _incUnmarkOldSpace         00454f40 f   mmOldSpace.obj
 0001:00054120       _allocInOldSpace           00455120 f   mmOldSpace.obj
 0001:000545d0       _reversePointersInOldSpace 004555d0 f   mmOldSpace.obj
 0001:00054650       _prepareThreadedDataForCompaction 00455650 f   mmOldSpace.obj
 0001:000546e0       _compactOldSpace           004556e0 f   mmOldSpace.obj
 0001:00054940       _printOldSpaceSegs         00455940 f   mmOldSpace.obj
 0001:000549d0       _initOldSpacePrims         004559d0 f   mmOldSpace.obj
 0001:00055aa0       _rebootSystem              00456aa0 f   mmProcess.obj
 0001:00055cc0       _asynchSignal              00456cc0 f   mmProcess.obj
 0001:00055fa0       _processSwitch             00456fa0 f   mmProcess.obj
 0001:000564f0       _couldBeCodeAllowedAsNPC   004574f0 f   mmProcess.obj
 0001:000568e0       _highestProcessPriority    004578e0 f   mmProcess.obj
 0001:00056930       _requestActiveProcessPriority 00457930 f   mmProcess.obj
 0001:00056960       _removeHighestPriorityProcess 00457960 f   mmProcess.obj
 0001:00056eb0       _waitOnCalloutSemaphore    00457eb0 f   mmProcess.obj
 0001:00057130       _initProcessPrims          00458130 f   mmProcess.obj
 0001:000581a0       _recyclePermOtEntry        004591a0 f   mmPermSpace.obj
 0001:00058250       _recyclePermData           00459250 f   mmPermSpace.obj
 0001:00058290       _recyclePermObj            00459290 f   mmPermSpace.obj
 0001:000583a0       _recycleNonNewData         004593a0 f   mmPermSpace.obj
 0001:00058450       _markPermSpace             00459450 f   mmPermSpace.obj
 0001:00058490       _writePermSpace            00459490 f   mmPermSpace.obj
 0001:00058540       _nilPermSpacePtrs          00459540 f   mmPermSpace.obj
 0001:00058560       _slotsFreeInOldSpaceMinusReserve 00459560 f   mmResources.obj
 0001:00058590       _lowSpaceResponse          00459590 f   mmResources.obj
 0001:000585c0       _initResourcePrims         004595c0 f   mmResources.obj
 0001:000591d0       _registerInRt              0045a1d0 f   mmRt.obj
 0001:00059380       _canonicalizeRt            0045a380 f   mmRt.obj
 0001:000593a0       _compactRt                 0045a3a0 f   mmRt.obj
 0001:00059420       _shrinkRt                  0045a420 f   mmRt.obj
 0001:00059510       _updateRtPtrs              0045a510 f   mmRt.obj
 0001:000595d0       _sweepRt                   0045a5d0 f   mmRt.obj
 0001:00059600       _initRt                    0045a600 f   mmRt.obj
 0001:00059790       _objReallyInRt             0045a790 f   mmRt.obj
 0001:000597d0       _getTenureThreshold        0045a7d0 f   mmScavenge.obj
 0001:000597e0       _initScavenger             0045a7e0 f   mmScavenge.obj
 0001:00059820       _flushEden                 0045a820 f   mmScavenge.obj
 0001:00059840       _flushNewSpace             0045a840 f   mmScavenge.obj
 0001:00059880       _scavengeNewSpace          0045a880 f   mmScavenge.obj
 0001:000598b0       _scavengeTenuringEveryone  0045a8b0 f   mmScavenge.obj
 0001:000598e0       _scavengeTenuringInstancesOf 0045a8e0 f   mmScavenge.obj
 0001:00059900       _scavengeTenuringOwnersOf  0045a900 f   mmScavenge.obj
 0001:00059920       _scavengeTenuringTheseObjs 0045a920 f   mmScavenge.obj
 0001:0005af50       _copyAndForward            0045bf50 f   mmScavenge.obj
 0001:0005b610       _updateNewObjRef           0045c610 f   mmScavenge.obj
 0001:0005b8b0       _initScavengePrims         0045c8b0 f   mmScavenge.obj
 0001:0005bfb0       _mapAllNPCs                0045cfb0 f   mmSnapshot.obj
 0001:0005c230       _initSnapshotPrims         0045d230 f   mmSnapshot.obj
 0001:0005cdd0       _initSubscriptPrims        0045ddd0 f   mmSubscript.obj
 0001:00060dc0       _registerSysOop            00461dc0 f   mmSysOop.obj
 0001:00060e70       _registerNewSysOop         00461e70 f   mmSysOop.obj
 0001:00060f70       _allocSysOopSlot           00461f70 f   mmSysOop.obj
 0001:00060fd0       _freeSysOopSlot            00461fd0 f   mmSysOop.obj
 0001:000610f0       _initSysOopRegistry        004620f0 f   mmSysOop.obj
 0001:00061270       _shrinkSysOopRegistry      00462270 f   mmSysOop.obj
 0001:000612d0       _updateSysOopRegistryPtrs  004622d0 f   mmSysOop.obj
 0001:00061350       _maxValidSysOopX           00462350 f   mmSysOop.obj
 0001:00061360       _reportAllocFailure        00462360 f   checks.obj
 0001:000613f0       _doPanic                   004623f0 f   checks.obj
 0001:00061430       _isAllocatedStack          00462430 f   checks.obj
 0001:00061460       _isFP                      00462460 f   checks.obj
 0001:000614d0       _isStack                   004624d0 f   checks.obj
 0001:00061510       _stackOfFrameFunc          00462510 f   checks.obj
 0001:00061530       _printStackHeader          00462530 f   checks.obj
 0001:00061680       _printSelector             00462680 f   checks.obj
 0001:00061840       _printNameOfClass          00462840 f   checks.obj
 0001:00061950       _printClassName            00462950 f   checks.obj
 0001:00061cd0       _printFrame                00462cd0 f   checks.obj
 0001:00062080       _frameAbove                00463080 f   checks.obj
 0001:000620d0       _rawPrintFrame             004630d0 f   checks.obj
 0001:00062330       _rawPrintThisFrame         00463330 f   checks.obj
 0001:000623b0       _printContext              004633b0 f   checks.obj
 0001:00062440       _printThisFrame            00463440 f   checks.obj
 0001:000624c0       _briefPrintFrame           004634c0 f   checks.obj
 0001:000625c0       _printAllFrames            004635c0 f   checks.obj
 0001:00062650       _printNFrames              00463650 f   checks.obj
 0001:000626f0       _briefPrintAllFrames       004636f0 f   checks.obj
 0001:00062760       _briefPrintFrames          00463760 f   checks.obj
 0001:000627c0       _checkGetSender            004637c0 f   checks.obj
 0001:00062890       _printNFramesAndContextsFrom 00463890 f   checks.obj
 0001:00062990       _printNFramesAndContexts   00463990 f   checks.obj
 0001:000629b0       _printAllFramesAndContextsFrom 004639b0 f   checks.obj
 0001:000629d0       _dPrintNFramesAndContextsFrom 004639d0 f   checks.obj
 0001:000629f0       _dPrintAllFramesAndContextsFrom 004639f0 f   checks.obj
 0001:00062a10       _printAllFramesAndContextsFromContext 00463a10 f   checks.obj
 0001:00062b40       _printAllFramesAndContexts 00463b40 f   checks.obj
 0001:00062bb0       _dumpAll                   00463bb0 f   checks.obj
 0001:00062e90       _dumpAllProcesses          00463e90 f   checks.obj
 0001:00063170       _dumpAllProcessesToFile    00464170 f   checks.obj
 0001:000631c0       _dumpAllToFileCalling      004641c0 f   checks.obj
 0001:00063240       _dumpAllToFileWithString   00464240 f   checks.obj
 0001:000632b0       _dumpAllToFileWithChars    004642b0 f   checks.obj
 0001:000632d0       _dumpAllToFile             004642d0 f   checks.obj
 0001:000632f0       _printStack                004642f0 f   checks.obj
 0001:00063310       _printTopFrame             00464310 f   checks.obj
 0001:00063330       _printCurrent              00464330 f   checks.obj
 0001:00063390       _printChain                00464390 f   checks.obj
 0001:00063490       _logSend                   00464490 f   checks.obj
 0001:000634f0       _className                 004644f0 f   checks.obj
 0001:00063640       _printSendLogFor           00464640 f   checks.obj
 0001:00063750       _printSendLog              00464750 f   checks.obj
 0001:00063760       _isLiveHybrid              00464760 f   contexts.obj
 0001:000637e0       _shouldBeLiveHybrid        004647e0 f   contexts.obj
 0001:000638d0       _CLoadContextInstVar       004648d0 f   contexts.obj
 0001:00063ab0       _contextInstVarNoReify     00464ab0 f   contexts.obj
 0001:00063c50       _CrtStoreContextInstVar    00464c50 f   contexts.obj
 0001:00063c80       _storeContextInstVar       00464c80 f   contexts.obj
 0001:00063f40       _replaceReferencesInHybridFrames 00464f40 f   contexts.obj
 0001:00063fd0       _initContextPrimitives     00464fd0 f   contexts.obj
 0001:00064ff0       _doesNotUnderstandWA       00465ff0 f   dnu.obj
 0001:00065520       _CrtMNUFromPIC             00466520 f   dnu.obj
 0001:00065be0       _Cdnu0                     00466be0 f   dnu.obj
 0001:00065c10       _Cdnu1                     00466c10 f   dnu.obj
 0001:00065c40       _Cdnu2                     00466c40 f   dnu.obj
 0001:00065c80       _Cdnu3                     00466c80 f   dnu.obj
 0001:00065ce0       _CdnuMany                  00466ce0 f   dnu.obj
 0001:00065da0       _doesNotUnderstand         00466da0 f   dnu.obj
 0001:00065df0       _CcantReturn               00466df0 f   dnu.obj
 0001:00065e70       _CrtCannotResume           00466e70 f   dnu.obj
 0001:00065f30       _nilContexts               00466f30 f   nlreturn.obj
 0001:000660b0       _CrtMethodReturn           004670b0 f   nlreturn.obj
 0001:00066460       _handleStackOverflow       00467460 f   nsupport.obj
 0001:000664e0       _CrtAbortPrimFail          004674e0 f   nsupport.obj
 0001:000665d0       _CrtAbortSend              004675d0 f   nsupport.obj
 0001:000666b0       _CrtEndLoop                004676b0 f   nsupport.obj
 0001:000666e0       _CrtCarefulCallPrim        004676e0 f   nsupport.obj
 0001:00066ab0       _CLoadThisContext          00467ab0 f   nsupport.obj
 0001:00066ad0       _CrtCheckStore             00467ad0 f   nsupport.obj
 0001:00066b80       _CrtCheckStoreFrameless    00467b80 f   nsupport.obj
 0001:00066c30       _CrtMakeCopyingBlock       00467c30 f   nsupport.obj
 0001:00067010       _CrtMakeCopyingBlock1      00468010 f   nsupport.obj
 0001:000671f0       _CrtMakeFullBlock          004681f0 f   nsupport.obj
 0001:000673f0       _CrtMakeFullCopyingBlock   004683f0 f   nsupport.obj
 0001:000678c0       _CrtConsArray              004688c0 f   nsupport.obj
 0001:00067aa0       _CrtCreateArray            00468aa0 f   nsupport.obj
 0001:00067b90       _CrtNotBoolean             00468b90 f   nsupport.obj
 0001:00067c50       _CrtNotBooleanTrue         00468c50 f   nsupport.obj
 0001:00067c70       _CrtNotBooleanFalse        00468c70 f   nsupport.obj
 0001:00067c90       _CrtAttemptToAssign        00468c90 f   nsupport.obj
 0001:00067d50       _CrtBadBytecode            00468d50 f   nsupport.obj
 0001:00067e40       _buildSendWithArgs         00468e40 f   primSends.obj
 0001:00067fd0       _buildActivationOfSendWithArgs 00468fd0 f   primSends.obj
 0001:000681b0       _initEvaluationPrimitives  004691b0 f   primSends.obj
 0001:00069580       _CunlinkedSend             0046a580 f   send.obj
 0001:00069670       _CunlinkedSendNonImmediate 0046a670 f   send.obj
 0001:00069720       _CunlinkedSendNoCheck      0046a720 f   send.obj
 0001:00069810       _CunlinkedSendSuper        0046a810 f   send.obj
 0001:000698e0       _handleTranFailure         0046a8e0 f   send.obj
 0001:00069ae0       _outputMeasurements        0046aae0 f   send.obj
 0001:00069af0       _relinkSend                0046aaf0 f   send.obj
 0001:00069bd0       _CrtAbortSendMiss          0046abd0 f   send.obj
 0001:00069c20       _anyAsyncRequests          0046ac20 f   services.obj
 0001:00069c60       _isRequested               0046ac60 f   services.obj
 0001:00069c90       _clearRequest              0046ac90 f   services.obj
 0001:00069cb0       _setRequest                0046acb0 f   services.obj
 0001:00069d00       _handleAsyncRequests       0046ad00 f   services.obj
 0001:00069e20       _handleRequests            0046ae20 f   services.obj
 0001:00069ed0       _asyncSetRequest           0046aed0 f   services.obj
 0001:00069ef0       _frameMakeHybrid           0046aef0 f   stackframe.obj
 0001:0006a150       _stackReify                0046b150 f   stackframe.obj
 0001:0006a1e0       _stackStabilize            0046b1e0 f   stackframe.obj
 0001:0006a320       _relocateDownTo            0046b320 f   stackframe.obj
 0001:0006a570       _frameEnsureStack          0046b570 f   stackframe.obj
 0001:0006aa90       _stabilizeThisContext      0046ba90 f   stackframe.obj
 0001:0006ad00       _stabilizeContextsWithMethod 0046bd00 f   stackframe.obj
 0001:0006adc0       _mustAddNMethod            0046bdc0 f   stackframe.obj
 0001:0006ae10       _mustMapVToNPC             0046be10 f   stackframe.obj
 0001:0006aec0       _stableToHybrid            0046bec0 f   stackframe.obj
 0001:0006b180       _CrootReturn               0046c180 f   stackframe.obj
 0001:0006b220       _resumeContext             0046c220 f   stackframe.obj
 0001:0006b2f0       _suspendTopContext         0046c2f0 f   stackframe.obj
 0001:0006b310       _initStacks                0046c310 f   stackzone.obj
 0001:0006b400       _stackAlloc                0046c400 f   stackzone.obj
 0001:0006b4e0       _stabilizeAllStacks        0046c4e0 f   stackzone.obj
 0001:0006b520       _stabilizeMostStacks       0046c520 f   stackzone.obj
 0001:0006b560       _reifyAllStacks            0046c560 f   stackzone.obj
 0001:0006b600       _stackAtHead               0046c600 f   stackzone.obj
 0001:0006b660       _promoteStack              0046c660 f   stackzone.obj
 0001:0006b6a0       _stackDeAlloc              0046c6a0 f   stackzone.obj
 0001:0006b6f0       _scavengeStacks            0046c6f0 f   vmsupport.obj
 0001:0006b800       _stackEnumerateOopsForGC   0046c800 f   vmsupport.obj
 0001:0006b8a0       _stackEnumerateRefsForGC   0046c8a0 f   vmsupport.obj
 0001:0006b930       _enumerateFramesAndReturns 0046c930 f   vmsupport.obj
 0001:0006b9d0       _commitPrimitive           0046c9d0 f   vmsupport.obj
 0001:0006bb80       _commitPrimitiveAndHandleRequests 0046cb80 f   vmsupport.obj
 0001:0006bbb0       _commitPrimitiveWithRestart 0046cbb0 f   vmsupport.obj
 0001:0006bc00       _convertRestartToReturn    0046cc00 f   vmsupport.obj
 0001:0006bc80       _asynchReCommitOrFailPrimitive 0046cc80 f   vmsupport.obj
 0001:0006bdf0       _topOfStack                0046cdf0 f   vmsupport.obj
 0001:0006bea0       _failPrimitive             0046cea0 f   vmsupport.obj
 0001:0006c020       _reInitNMethods            0046d020 f   nmalloc.obj
 0001:0006c050       _initNMethodAlloc          0046d050 f   nmalloc.obj
 0001:0006c100       _scratchNmzBounds          0046d100 f   nmalloc.obj
 0001:0006c120       _nMethodPermAlloc          0046d120 f   nmalloc.obj
 0001:0006c190       _nMethodAlloc              0046d190 f   nmalloc.obj
 0001:0006c300       _nMethodDealloc            0046d300 f   nmalloc.obj
 0001:0006c360       _nMethodShorten            0046d360 f   nmalloc.obj
 0001:0006c400       _nMethodAllocScratch       0046d400 f   nmalloc.obj
 0001:0006c440       _nMethodAddToList          0046d440 f   nmalloc.obj
 0001:0006c470       _nMethodSelectFromList     0046d470 f   nmalloc.obj
 0001:0006c4d0       _compactNMethods           0046d4d0 f   nmalloc.obj
 0001:0006c4f0       _compactAllNMethods        0046d4f0 f   nmalloc.obj
 0001:0006c580       _printNMZone               0046d580 f   nmalloc.obj
 0001:0006c670       _printNMethodsForVMethod   0046d670 f   nmalloc.obj
 0001:0006c700       _isNMethod                 0046d700 f   nmalloc.obj
 0001:0006c7d0       _nMethodForPC              0046d7d0 f   nmalloc.obj
 0001:0006c880       _nMethodForPCVal           0046d880 f   nmalloc.obj
 0001:0006c8a0       _dbPrintNMethod            0046d8a0 f   nmalloc.obj
 0001:0006c8c0       _printNMethod              0046d8c0 f   nmalloc.obj
 0001:0006cc70       _printNM                   0046dc70 f   nmalloc.obj
 0001:0006cc90       _printNMAtPC               0046dc90 f   nmalloc.obj
 0001:0006ccc0       _printUnlinkedNMethods     0046dcc0 f   nmalloc.obj
 0001:0006cd70       _nmUpdateNewRefs           0046dd70 f   nmcompact.obj
 0001:0006cd90       _invalidateNMethods        0046dd90 f   nmcompact.obj
 0001:0006ce20       _invalidatePostFreeNMethods 0046de20 f   nmcompact.obj
 0001:0006cf10       _nmCompact                 0046df10 f   nmcompact.obj
 0001:0006d0f0       _markNMethodsWithMarkedObjs 0046e0f0 f   nmcompact.obj
 0001:0006d1a0       _markNMethodsAsNotReferringTo 0046e1a0 f   nmcompact.obj
 0001:0006d270       _unlinkAndFreeUnmarkedNMethods 0046e270 f   nmcompact.obj
 0001:0006d370       _listNMethod               0046e370 f   nmcompact.obj
 0001:0006d820       _clearNTable               0046e820 f   nmlookup.obj
 0001:0006d850       _vToNMethod                0046e850 f   nmlookup.obj
 0001:0006d9e0       _nMethodIsInTables         0046e9e0 f   nmlookup.obj
 0001:0006db00       _blockVToNMethod           0046eb00 f   nmlookup.obj
 0001:0006db30       _addNMethod                0046eb30 f   nmlookup.obj
 0001:0006dbc0       _findNMethodLinkBefore     0046ebc0 f   nmlookup.obj
 0001:0006dc00       _findMethod                0046ec00 f   nmlookup.obj
 0001:0006df40       _findMethodForOpenPIC      0046ef40 f   nmlookup.obj
 0001:0006e3e0       _initMCache                0046f3e0 f   nmlookup.obj
 0001:0006e420       _clearMCache               0046f420 f   nmlookup.obj
 0001:0006e490       _nmFlushLookupCache        0046f490 f   nmlookup.obj
 0001:0006e4a0       _nmFlushLookupEntriesForSelector 0046f4a0 f   nmlookup.obj
 0001:0006e540       _nmFlushCachedCodeForMethod 0046f540 f   nmlookup.obj
 0001:0006e630       _basicAccessClass          0046f630 f   nmlookup.obj
 0001:0006e950       _getPrimitiveNumber        0046f950 f   nmlookup.obj
 0001:0006ea00       _nmUpdateNewRefsFromMCache 0046fa00 f   nmlookup.obj
 0001:0006eab0       _printMethodName           0046fab0 f   nmlookup.obj
 0001:0006ede0       _printMethod               0046fde0 f   nmlookup.obj
 0001:0006ee00       _actionInit                0046fe00 f   taction.obj
 0001:0006ee80       _actionReset               0046fe80 f   taction.obj
 0001:0006eeb0       _addAction                 0046feb0 f   taction.obj
 0001:0006f110       _loopBegin                 00470110 f   taction.obj
 0001:0006f180       _loopEnd                   00470180 f   taction.obj
 0001:0006f1d0       _optReFix                  004701d0 f   taction.obj
 0001:0006f250       _initFirstTime             00470250 f   taux.obj
 0001:0006f2d0       _initTemps                 004702d0 f   taux.obj
 0001:0006f620       _tPushArgs                 00470620 f   taux.obj
 0001:0006f650       _tFinishMethod             00470650 f   taux.obj
 0001:0006fae0       _saveSelectorInNMethod     00470ae0 f   taux.obj
 0001:0006faf0       _restoreSelectorFromNMethod 00470af0 f   taux.obj
 0001:0006ff00       _cgenPutB                  00470f00 f   tcgencode.obj
 0001:0006ff10       _cgenPutW                  00470f10 f   tcgencode.obj
 0001:0006ff30       _cgenPutL                  00470f30 f   tcgencode.obj
 0001:0006ff40       _cNopGenTo                 00470f40 f   tcgencode.obj
 0001:0006ffc0       _cgenDiv                   00470fc0 f   tcgencode.obj
 0001:000700d0       _cgenByteRN                004710d0 f   tcgencode.obj
 0001:000701d0       _cgenByteRXn               004711d0 f   tcgencode.obj
 0001:000702a0       _is686OrHigher             004712a0 f   tcgencode.obj
 0001:000702e0       _tcInlineIFlush            004712e0 f   tcgencode.obj
 0001:00070320       _initClearICache           00471320 f   tcgencode.obj
 0001:00070390       _tFJumpCond                00471390 f   tcgencode.obj
 0001:000703e0       _initBxpNotBoolean         004713e0 f   tcodes.obj
 0001:000704c0       _tDup                      004714c0 f   tcodes.obj
 0001:00070560       _tJmp                      00471560 f   tcodes.obj
 0001:000706e0       _tLoopHead                 004716e0 f   tcodes.obj
 0001:00070730       _tJmpBack                  00471730 f   tcodes.obj
 0001:000709d0       _tBxp                      004719d0 f   tcodes.obj
 0001:00070c60       _tCopyingBlock             00471c60 f   tcodes.obj
 0001:00070d10       _tFullBlock                00471d10 f   tcodes.obj
 0001:00070d80       _tFullCopyingBlock         00471d80 f   tcodes.obj
 0001:00070e10       _tConsArray                00471e10 f   tcodes.obj
 0001:00070ea0       _tCreateArray              00471ea0 f   tcodes.obj
 0001:00070f40       _tCopyValues               00471f40 f   tcodes.obj
 0001:00070ff0       _initNMethods              00471ff0 f   tinit.obj
 0001:000710a0       _initTranAfter             004720a0 f   tinit.obj
 0001:000710d0       _initSendTypeTable         004720d0 f   tinit.obj
 0001:00071110       _tMainLoop                 00472110 f   tloop.obj
 0001:00072590       _initStoreInst             00473590 f   tloadstore.obj
 0001:00072720       _tLoadInst                 00473720 f   tloadstore.obj
 0001:00072840       _tStoreInst                00473840 f   tloadstore.obj
 0001:00072b30       _tLoadLocalIndirect        00473b30 f   tloadstore.obj
 0001:00072c60       _tStoreLocalIndirect       00473c60 f   tloadstore.obj
 0001:00072c90       _tStoreCheck               00473c90 f   tloadstore.obj
 0001:00073000       _nmTranslate               00474000 f   tmain.obj
 0001:00073450       _tGenerate                 00474450 f   tmain.obj
 0001:000736a0       _tGenerate1                004746a0 f   tmain.obj
 0001:00073710       _unpackVMethod             00474710 f   tmain.obj
 0001:000739a0       _mapNToVPC                 004749a0 f   tmain.obj
 0001:00073ae0       _mapVToNPC                 00474ae0 f   tmain.obj
 0001:00073b60       _TAbortFunc                00474b60 f   tmain.obj
 0001:00073d60       _printEntireNMethod        00474d60 f   tmain.obj
 0001:00073f30       _fprintNCode               00474f30 f   tmain.obj
 0001:000743a0       _regProc                   004753a0 f   tmain.obj
 0001:00074480       _nmGetXNumArgs             00475480 f   tmaprt.obj
 0001:000744b0       _nmGetXNumTemps            004754b0 f   tmaprt.obj
 0001:000744e0       _nmGetXFrameSize           004754e0 f   tmaprt.obj
 0001:00074510       _nMethodUnlink             00475510 f   tmaprt.obj
 0001:000745b0       _CrtAbortRelinkSendToUnlinked 004755b0 f   tmaprt.obj
 0001:00074650       _mapDataForNpc             00475650 f   tmaprt.obj
 0001:000747b0       _nmInvalidateLinks         004757b0 f   tmaprt.obj
 0001:000748a0       _nmInvalidateLinksTo       004758a0 f   tmaprt.obj
 0001:000749a0       _nmInvalidateLinksToFree   004759a0 f   tmaprt.obj
 0001:00074aa0       _nmInvalidateLinksToUnmarked 00475aa0 f   tmaprt.obj
 0001:00074be0       _nMethodRelocateLinks      00475be0 f   tmaprt.obj
 0001:00074d60       _smashInlineCache          00475d60 f   tmaprt.obj
 0001:00074d80       _smashInlineCall           00475d80 f   tmaprt.obj
 0001:00074da0       _updateInlineCache         00475da0 f   tmaprt.obj
 0001:00074dd0       _updateInlineCacheToPIC    00475dd0 f   tmaprt.obj
 0001:00074df0       _nmUpdateNewLiterals       00475df0 f   tmaprt.obj
 0001:00074fd0       _nMethodRefersTo           00475fd0 f   tmaprt.obj
 0001:00075140       _nMethodRefersToMustScanNMethod 00476140 f   tmaprt.obj
 0001:000751a0       _lastValidNPCOf            004761a0 f   tmaprt.obj
 0001:000751f0       _mapPrimitiveRestart       004761f0 f   tmaprt.obj
 0001:00075260       _mapPrimitiveReturn        00476260 f   tmaprt.obj
 0001:00075280       _nmethFromPrimReturn       00476280 f   tmaprt.obj
 0001:000752a0       _nPCofFirstNonPrimitiveVPC 004762a0 f   tmaprt.obj
 0001:000752c0       _findPCMapStart            004762c0 f   tmaprt.obj
 0001:000752e0       _fprintPCMap               004762e0 f   tmaprt.obj
 0001:00075330       _fprintPCMapByte           00476330 f   tmaprt.obj
 0001:00075520       _printSelectorIfExists     00476520 f   tmaprt.obj
 0001:00075690       _genMapAlloc               00476690 f   tmaptran.obj
 0001:000756c0       _genMapInit                004766c0 f   tmaptran.obj
 0001:000756f0       _genMapMark                004766f0 f   tmaptran.obj
 0001:00075710       _genMapBackToMark          00476710 f   tmaptran.obj
 0001:00075730       _genMapSend                00476730 f   tmaptran.obj
 0001:00075860       _genMapRelCall             00476860 f   tmaptran.obj
 0001:000758e0       _genMapLocProg             004768e0 f   tmaptran.obj
 0001:00075960       _genMapLit                 00476960 f   tmaptran.obj
 0001:00075a10       _genMapOnly                00476a10 f   tmaptran.obj
 0001:00075a50       _genMapTest                00476a50 f   tmaptran.obj
 0001:00075aa0       _genMapClose               00476aa0 f   tmaptran.obj
 0001:00075af0       _genMapCopy                00476af0 f   tmaptran.obj
 0001:00075b40       _incrementProfile          00476b40 f   tnmprim.obj
 0001:00075ba0       _recordCompacted           00476ba0 f   tnmprim.obj
 0001:00075c00       _initNMethodPrims          00476c00 f   tnmprim.obj
 0001:00076e90       _initPrimitiveTable        00477e90 f   tprim.obj
 0001:00076ec0       _addPrimitiveWithParams    00477ec0 f   tprim.obj
 0001:00076f60       _addAsmPrimitive           00477f60 f   tprim.obj
 0001:00076f80       _addCPrimitive             00477f80 f   tprim.obj
 0001:00076fa0       _addVarArgCPrimitive       00477fa0 f   tprim.obj
 0001:00076fc0       _addVarArgCPrimitiveForRange 00477fc0 f   tprim.obj
 0001:00076ff0       _addFastCPrimitive         00477ff0 f   tprim.obj
 0001:00077010       _addUPrimitive             00478010 f   tprim.obj
 0001:00077030       _addVarArgUPrimitive       00478030 f   tprim.obj
 0001:00077050       _getPrimEntry              00478050 f   tprim.obj
 0001:00077090       _tInitRegs                 00478090 f   tregs.obj
 0001:000770b0       _regLoad                   004780b0 f   tregs.obj
 0001:00077180       _regLoadBase               00478180 f   tregs.obj
 0001:00077260       _regNoteStore              00478260 f   tregs.obj
 0001:000772c0       _regFlush                  004782c0 f   tregs.obj
 0001:000772e0       _regLoadup                 004782e0 f   tregs.obj
 0001:000773b0       _regReconcile              004783b0 f   tregs.obj
 0001:00077580       _regCleanup                00478580 f   tregs.obj
 0001:00077680       _tAddSub                   00478680 f   tspecial.obj
 0001:00077a50       _tReln                     00478a50 f   tspecial.obj
 0001:00077fc0       _tEqNeq                    00478fc0 f   tspecial.obj
 0001:000780d0       _tNone                     004790d0 f   tspecial.obj
 0001:000780e0       _tStackInit                004790e0 f   tstack.obj
 0001:00078250       _localFrameOffset          00479250 f   tstack.obj
 0001:00078280       _tStackClear               00479280 f   tstack.obj
 0001:000782c0       _tStackFlush               004792c0 f   tstack.obj
 0001:00078420       _tStackPush                00479420 f   tstack.obj
 0001:00078660       _tStackLoad                00479660 f   tstack.obj
 0001:000788c0       _tStackLoadValue           004798c0 f   tstack.obj
 0001:00078a30       _tStackLoadBase            00479a30 f   tstack.obj
 0001:00078ba0       _tStackLoadDataPtr         00479ba0 f   tstack.obj
 0001:00078c70       _tStackStore               00479c70 f   tstack.obj
 0001:00078ef0       _tStackCompare             00479ef0 f   tstack.obj
 0001:000790b0       _tStackCompareBase         0047a0b0 f   tstack.obj
 0001:00079160       _emitArgs                  0047a160 f   tstack.obj
 0001:00079550       _lookBranch                0047a550 f   tsubr.obj
 0001:000795e0       _tReturn                   0047a5e0 f   tsubr.obj
 0001:00079650       _initTxArithPrims          0047a650 f   txarith.obj
 0001:0007a6d0       _initTxAborts              0047b6d0 f   txcontrol.obj
 0001:0007a730       _initTxControlPrims        0047b730 f   txcontrol.obj
 0001:0007aac0       _tCallMethodForKnownSelector 0047bac0 f   txcontrol.obj
 0001:0007aff0       _initTxMemPrims            0047bff0 f   txmem.obj
 0001:0007b6c0       _tAllocFloat               0047c6c0 f   txmem.obj
 0001:0007baa0       _tranNoteEdenWarningThresholdChanged 0047caa0 f   txmem.obj
 0001:0007bae0       _tcCmpEdenWarningThresholdB 0047cae0 f   txmem.obj
 0001:0007bbf0       _makeTranslatedPrimitives  0047cbf0 f   txprim.obj
 0001:0007bd20       _txFixShortList            0047cd20 f   txprim.obj
 0001:0007bd50       _txMakeBoolean             0047cd50 f   txprim.obj
 0001:0007bd90       _txGetClassTag             0047cd90 f   txprim.obj
 0001:0007bf90       _txUseCPrim                0047cf90 f   txprim.obj
 0001:0007c040       _initTxSubscriptPrims      0047d040 f   txsubscript.obj
 0001:0007d040       _tMoveSizeR                0047e040 f   txsubscript.obj
 0001:0007d900       _initPICs                  0047e900 f   tpic.obj
 0001:0007daf0       _CrtOpenPICSendMiss        0047eaf0 f   tpic.obj
 0001:0007db80       _CrtExtendClosedPIC        0047eb80 f   tpic.obj
 0001:0007ddb0       _nPICMNUNMethod            0047edb0 f   tpic.obj
 0001:0007ddd0       _bindToMNUPIC              0047edd0 f   tpic.obj
 0001:0007e1b0       _CrtPICAbortSendMiss       0047f1b0 f   tpic.obj
 0001:0007e510       _shouldFreePIC             0047f510 f   tpic.obj
 0001:0007e5d0       _nPICRelocateLinks         0047f5d0 f   tpic.obj
 0001:0007e740       _nPICHasLinksToUnmarked    0047f740 f   tpic.obj
 0001:0007e860       _saveSelectorInNPIC        0047f860 f   tpic.obj
 0001:0007e870       _restoreSelectorFromNPIC   0047f870 f   tpic.obj
 0001:0007e890       _nPICUpdateNewLits         0047f890 f   tpic.obj
 0001:0007e920       _flushCachedMNUMethodEntriesFor 0047f920 f   tpic.obj
 0001:0007e990       _printPICSelectors         0047f990 f   tpic.obj
 0001:0007ea40       _printNPIC                 0047fa40 f   tpic.obj
 0001:0007ecf0       _printEntireNPIC           0047fcf0 f   tpic.obj
 0001:0007ee00       _findNPICEnd               0047fe00 f   tpic.obj
 0001:0007ee40       _dis80286                  0047fe40 f   procPentiumdis.obj
 0001:0007ee60       _dis80386                  0047fe60 f   procPentiumdis.obj
 0001:0007ee80       _dis80x86                  0047fe80 f   procPentiumdis.obj
 0001:0007fa70       _oprintf                   00480a70 f   procPentiumdis.obj
 0001:0007fdb0       _modrm                     00480db0 f   procPentiumdis.obj
 0001:0007ff10       _memop                     00480f10 f   procPentiumdis.obj
 0001:00080040       _printReg                  00481040 f   procPentiumdis.obj
 0001:00080080       __aulldiv                  00481080 f   msvcrt:ulldiv.obj
 0001:000800e8       __ftol                     004810e8 f   msvcrt:MSVCRT.dll
 0001:000800f0       __chkstk                   004810f0 f   msvcrt:chkstk.obj
 0001:000800f0       __alloca_probe             004810f0 f   msvcrt:chkstk.obj
 0001:00080120       _sin                       00481120 f   msvcrt:MSVCRT.dll
 0001:00080126       _cos                       00481126 f   msvcrt:MSVCRT.dll
 0001:0008012c       __except_handler3          0048112c f   msvcrt:MSVCRT.dll
 0001:00080132       __controlfp                00481132 f   msvcrt:MSVCRT.dll
 0001:00080140       __allmul                   00481140 f   msvcrt:llmul.obj
 0001:00080180       __aullrem                  00481180 f   msvcrt:ullrem.obj
 0001:00080200       __alldiv                   00481200 f   msvcrt:lldiv.obj
 0001:000802aa       _tan                       004812aa f   msvcrt:MSVCRT.dll
 0001:000802b0       _asin                      004812b0 f   msvcrt:MSVCRT.dll
 0001:000802b6       _acos                      004812b6 f   msvcrt:MSVCRT.dll
 0001:000802bc       _atan                      004812bc f   msvcrt:MSVCRT.dll
 0001:000802c2       _sqrt                      004812c2 f   msvcrt:MSVCRT.dll
 0001:000802c8       _log                       004812c8 f   msvcrt:MSVCRT.dll
 0001:000802ce       _exp                       004812ce f   msvcrt:MSVCRT.dll
 0001:000802d4       _pow                       004812d4 f   msvcrt:MSVCRT.dll
 0001:000802da       _log10                     004812da f   msvcrt:MSVCRT.dll
 0001:000802e0       __allshl                   004812e0 f   msvcrt:llshl.obj
 0001:000802ff       _WinMainCRTStartup         004812ff f   msvcrt:crtexew.obj
 0001:0008045e       __XcptFilter               0048145e f   msvcrt:MSVCRT.dll
 0001:00080464       __initterm                 00481464 f   msvcrt:MSVCRT.dll
 0001:0008046a       __setdefaultprecision      0048146a f   msvcrt:fp8.obj
 0001:0008047c       __matherr                  0048147c f   msvcrt:merr.obj
 0001:0008047f       __setargv                  0048147f f   msvcrt:dllargv.obj
 0001:00080480       _PrintDlgA@4               00481480 f   comdlg32:comdlg32.dll
 0001:00080486       _WNetGetConnectionA@12     00481486 f   mpr:MPR.dll
 0001:00080490       _inflateReset              00481490 f   zlib:inflate.obj
 0001:000804e0       _inflateEnd                004814e0 f   zlib:inflate.obj
 0001:00080530       _inflateInit2_             00481530 f   zlib:inflate.obj
 0001:00080640       _inflateInit_              00481640 f   zlib:inflate.obj
 0001:00080660       _inflate                   00481660 f   zlib:inflate.obj
 0001:00080a30       _inflateSetDictionary      00481a30 f   zlib:inflate.obj
 0001:00080ac0       _inflateSync               00481ac0 f   zlib:inflate.obj
 0001:00080b90       _inflateSyncPoint          00481b90 f   zlib:inflate.obj
 0001:00080bc0       _zlibVersion               00481bc0 f   zlib:zutil.obj
 0001:00080bd0       _zError                    00481bd0 f   zlib:zutil.obj
 0001:00080bf0       _zcalloc                   00481bf0 f   zlib:zutil.obj
 0001:00080c10       _zcfree                    00481c10 f   zlib:zutil.obj
 0001:00080c30       _gzopen                    00481c30 f   zlib:gzio.obj
 0001:00080ea0       _gzdopen                   00481ea0 f   zlib:gzio.obj
 0001:00080ee0       _gzsetparams               00481ee0 f   zlib:gzio.obj
 0001:000811e0       _gzread                    004821e0 f   zlib:gzio.obj
 0001:00081420       _gzgetc                    00482420 f   zlib:gzio.obj
 0001:00081450       _gzgets                    00482450 f   zlib:gzio.obj
 0001:000814b0       _gzwrite                   004824b0 f   zlib:gzio.obj
 0001:00081560       _gzprintf                  00482560 f   zlib:gzio.obj
 0001:000815c0       _gzputc                    004825c0 f   zlib:gzio.obj
 0001:000815f0       _gzputs                    004825f0 f   zlib:gzio.obj
 0001:00081620       _gzflush                   00482620 f   zlib:gzio.obj
 0001:00081720       _gzseek                    00482720 f   zlib:gzio.obj
 0001:00081880       _gzrewind                  00482880 f   zlib:gzio.obj
 0001:00081900       _gztell                    00482900 f   zlib:gzio.obj
 0001:00081920       _gzeof                     00482920 f   zlib:gzio.obj
 0001:00081990       _gzclose                   00482990 f   zlib:gzio.obj
 0001:00081a30       _gzerror                   00482a30 f   zlib:gzio.obj
 0001:00081b50       _deflateInit_              00482b50 f   zlib:deflate.obj
 0001:00081b80       _deflateInit2_             00482b80 f   zlib:deflate.obj
 0001:00081d90       _deflateSetDictionary      00482d90 f   zlib:deflate.obj
 0001:00081e90       _deflateReset              00482e90 f   zlib:deflate.obj
 0001:00081f10       _deflateParams             00482f10 f   zlib:deflate.obj
 0001:00082000       _deflate                   00483000 f   zlib:deflate.obj
 0001:00082360       _deflateEnd                00483360 f   zlib:deflate.obj
 0001:00082410       _deflateCopy               00483410 f   zlib:deflate.obj
 0001:00083260       _get_crc_table             00484260 f   zlib:crc32.obj
 0001:00083270       _crc32                     00484270 f   zlib:crc32.obj
 0001:000833b0       _adler32                   004843b0 f   zlib:adler32.obj
 0001:000834f0       _inflate_blocks_reset      004844f0 f   zlib:infblock.obj
 0001:00083570       _inflate_blocks_new        00484570 f   zlib:infblock.obj
 0001:00083620       _inflate_blocks            00484620 f   zlib:infblock.obj
 0001:00084290       _inflate_blocks_free       00485290 f   zlib:infblock.obj
 0001:000842d0       _inflate_set_dictionary    004852d0 f   zlib:infblock.obj
 0001:00084310       _inflate_blocks_sync_point 00485310 f   zlib:infblock.obj
 0001:00084320       __tr_init                  00485320 f   zlib:trees.obj
 0001:00084420       __tr_stored_block          00485420 f   zlib:trees.obj
 0001:000844c0       __tr_align                 004854c0 f   zlib:trees.obj
 0001:000846f0       __tr_flush_block           004856f0 f   zlib:trees.obj
 0001:00085780       __tr_tally                 00486780 f   zlib:trees.obj
 0001:00085e90       _inflate_codes_new         00486e90 f   zlib:infcodes.obj
 0001:00085ed0       _inflate_codes             00486ed0 f   zlib:infcodes.obj
 0001:00086600       _inflate_codes_free        00487600 f   zlib:infcodes.obj
 0001:00086620       _inflate_trees_bits        00487620 f   zlib:inftrees.obj
 0001:00086ae0       _inflate_trees_dynamic     00487ae0 f   zlib:inftrees.obj
 0001:00086c70       _inflate_trees_fixed       00487c70 f   zlib:inftrees.obj
 0001:00086ca0       _inflate_flush             00487ca0 f   zlib:infutil.obj
 0001:00086de0       _inflate_fast              00487de0 f   zlib:inffast.obj
 0002:00000000       _minGlueInstr              00489000     glueNT86.obj
 0002:00000004       _rootReturn                00489004     glueNT86.obj
 0002:00000028       _rtBadBytecode             00489028     glueNT86.obj
 0002:0000004c       _unlinkedSendSuper0        0048904c     glueNT86.obj
 0002:0000007c       _unlinkedSendSuper1        0048907c     glueNT86.obj
 0002:000000ac       _unlinkedSendSuper2        004890ac     glueNT86.obj
 0002:000000dc       _unlinkedSendSuper3        004890dc     glueNT86.obj
 0002:0000010c       _unlinkedSendSuperMany     0048910c     glueNT86.obj
 0002:00000138       _unlinkedSendNonImmediate0 00489138     glueNT86.obj
 0002:00000164       _unlinkedSendNonImmediate1 00489164     glueNT86.obj
 0002:00000190       _unlinkedSendNonImmediate2 00489190     glueNT86.obj
 0002:000001bc       _unlinkedSendNonImmediate3 004891bc     glueNT86.obj
 0002:000001e8       _unlinkedSendNonImmediateMany 004891e8     glueNT86.obj
 0002:00000210       _unlinkedSendNoCheck0      00489210     glueNT86.obj
 0002:0000023c       _unlinkedSendNoCheck1      0048923c     glueNT86.obj
 0002:00000268       _unlinkedSendNoCheck2      00489268     glueNT86.obj
 0002:00000294       _unlinkedSendNoCheck3      00489294     glueNT86.obj
 0002:000002c0       _unlinkedSendNoCheckMany   004892c0     glueNT86.obj
 0002:000002e8       _rtExtendClosedPIC         004892e8     glueNT86.obj
 0002:0000030c       _rtOpenPICSendMiss         0048930c     glueNT86.obj
 0002:00000330       _rtMNUFromPIC              00489330     glueNT86.obj
 0002:00000358       _cantReturn                00489358     glueNT86.obj
 0002:0000037c       _dnu0                      0048937c     glueNT86.obj
 0002:000003a0       _dnu1                      004893a0     glueNT86.obj
 0002:000003c4       _dnu2                      004893c4     glueNT86.obj
 0002:000003ec       _dnu3                      004893ec     glueNT86.obj
 0002:00000414       _dnuMany                   00489414     glueNT86.obj
 0002:0000043c       _rtPrimGlueVarArgMany      0048943c     glueNT86.obj
 0002:000004a8       _rtPrimGlueMany            004894a8     glueNT86.obj
 0002:00000524       _primFailGlue              00489524     glueNT86.obj
 0002:0000053c       _primFailShort             0048953c     glueNT86.obj
 0002:0000054c       _rtAbortRelinkSendToUnlinked 0048954c     glueNT86.obj
 0002:00000570       _rtPICAbortSendMiss        00489570     glueNT86.obj
 0002:0000059c       _rtUPrimGlue0              0048959c     glueNT86.obj
 0002:000005ec       _rtUPrimGlue1              004895ec     glueNT86.obj
 0002:00000640       _rtUPrimGlue2              00489640     glueNT86.obj
 0002:00000698       _rtUPrimGlue3              00489698     glueNT86.obj
 0002:000006f0       _rtUPrimGlueMany           004896f0     glueNT86.obj
 0002:00000748       _rtPrimGlue3               00489748     glueNT86.obj
 0002:00000754       _rtPrimGlue2               00489754     glueNT86.obj
 0002:000007a0       _rtPrimGlue1               004897a0     glueNT86.obj
 0002:000007e8       _rtPrimGlue0               004897e8     glueNT86.obj
 0002:0000082c       _rtCarefulCallPrim         0048982c     glueNT86.obj
 0002:00000854       _rtLoadThisContext         00489854     glueNT86.obj
 0002:00000864       _LoadThisContext           00489864     glueNT86.obj
 0002:00000888       _rtAbortSend               00489888     glueNT86.obj
 0002:000008ac       _rtAbortPrimFail           004898ac     glueNT86.obj
 0002:000008d0       _rtEndLoop                 004898d0     glueNT86.obj
 0002:000008f4       _rtNotBoolean              004898f4     glueNT86.obj
 0002:00000918       _rtNotBooleanTrue          00489918     glueNT86.obj
 0002:0000093c       _rtNotBooleanFalse         0048993c     glueNT86.obj
 0002:00000960       _rtMakeFullBlock           00489960     glueNT86.obj
 0002:00000988       _rtMakeFullCopyingBlock    00489988     glueNT86.obj
 0002:000009b0       _rtConsArray               004899b0     glueNT86.obj
 0002:000009d8       _rtCreateArray             004899d8     glueNT86.obj
 0002:00000a00       _rtMakeCopyingBlock        00489a00     glueNT86.obj
 0002:00000a28       _rtMakeCopyingBlock1       00489a28     glueNT86.obj
 0002:00000a50       _rtMethodReturn            00489a50     glueNT86.obj
 0002:00000a78       _rtLoadContextInstVar      00489a78     glueNT86.obj
 0002:00000a8c       _LoadContextInstVar        00489a8c     glueNT86.obj
 0002:00000ab4       _rtStoreContextInstVar     00489ab4     glueNT86.obj
 0002:00000adc       _rtCheckStore              00489adc     glueNT86.obj
 0002:00000b00       _rtAttemptToAssign         00489b00     glueNT86.obj
 0002:00000b28       _rtCannotResume            00489b28     glueNT86.obj
 0002:00000b4c       _unlinkedSend0             00489b4c     glueNT86.obj
 0002:00000b78       _unlinkedSend1             00489b78     glueNT86.obj
 0002:00000ba4       _unlinkedSend2             00489ba4     glueNT86.obj
 0002:00000bd0       _unlinkedSend3             00489bd0     glueNT86.obj
 0002:00000bfc       _unlinkedSendMany          00489bfc     glueNT86.obj
 0002:00000c24       _backToNcode               00489c24     glueNT86.obj
 0002:00000c34       _inToNcode                 00489c34     glueNT86.obj
 0002:00000c44       _inToNcodePopResult        00489c44     glueNT86.obj
 0002:00000c54       _backToNcodePopping        00489c54     glueNT86.obj
 0002:00000c64       _backToNcodePop2           00489c64     glueNT86.obj
 0002:00000c74       _backToNcodePop1           00489c74     glueNT86.obj
 0002:00000c84       _backToNcodePop0           00489c84     glueNT86.obj
 0002:00000c94       _backToNcodePopResult      00489c94     glueNT86.obj
 0002:00000ca4       _maxGlueInstr              00489ca4     glueNT86.obj
 0002:00000ca8       _markStack                 00489ca8     glueNT86.obj
 0002:00000cc4       _unMarkStack               00489cc4     glueNT86.obj
 0002:00000cdc       __etext                    00489cdc     glueNT86.obj
 0003:00000000       __imp__DeregisterEventSource@4 0048a000     advapi32:ADVAPI32.dll
 0003:00000004       __imp__RegisterEventSourceA@8 0048a004     advapi32:ADVAPI32.dll
 0003:00000008       __imp__ReportEventA@36     0048a008     advapi32:ADVAPI32.dll
 0003:0000000c       \177ADVAPI32_NULL_THUNK_DATA 0048a00c     advapi32:ADVAPI32.dll
 0003:00000010       __imp__Polyline@12         0048a010     gdi32:GDI32.dll
 0003:00000014       __imp__SetViewportOrgEx@16 0048a014     gdi32:GDI32.dll
 0003:00000018       __imp__BitBlt@36           0048a018     gdi32:GDI32.dll
 0003:0000001c       __imp__GetBitmapBits@12    0048a01c     gdi32:GDI32.dll
 0003:00000020       __imp__GetObjectA@12       0048a020     gdi32:GDI32.dll
 0003:00000024       __imp__GdiFlush@0          0048a024     gdi32:GDI32.dll
 0003:00000028       __imp__CreateCompatibleBitmap@12 0048a028     gdi32:GDI32.dll
 0003:0000002c       __imp__PatBlt@24           0048a02c     gdi32:GDI32.dll
 0003:00000030       __imp__CreateBitmapIndirect@4 0048a030     gdi32:GDI32.dll
 0003:00000034       __imp__DeleteDC@4          0048a034     gdi32:GDI32.dll
 0003:00000038       __imp__CreateCompatibleDC@4 0048a038     gdi32:GDI32.dll
 0003:0000003c       __imp__CreatePalette@4     0048a03c     gdi32:GDI32.dll
 0003:00000040       __imp__CreateSolidBrush@4  0048a040     gdi32:GDI32.dll
 0003:00000044       __imp__RealizePalette@4    0048a044     gdi32:GDI32.dll
 0003:00000048       __imp__SelectPalette@12    0048a048     gdi32:GDI32.dll
 0003:0000004c       __imp__GetDIBits@28        0048a04c     gdi32:GDI32.dll
 0003:00000050       __imp__GetRgnBox@8         0048a050     gdi32:GDI32.dll
 0003:00000054       __imp__CombineRgn@16       0048a054     gdi32:GDI32.dll
 0003:00000058       __imp__SetROP2@8           0048a058     gdi32:GDI32.dll
 0003:0000005c       __imp__UpdateColors@4      0048a05c     gdi32:GDI32.dll
 0003:00000060       __imp__SetBrushOrgEx@16    0048a060     gdi32:GDI32.dll
 0003:00000064       __imp__GetStockObject@4    0048a064     gdi32:GDI32.dll
 0003:00000068       __imp__GetTextMetricsA@8   0048a068     gdi32:GDI32.dll
 0003:0000006c       __imp__CreateFontIndirectA@4 0048a06c     gdi32:GDI32.dll
 0003:00000070       __imp__SetTextAlign@8      0048a070     gdi32:GDI32.dll
 0003:00000074       __imp__GetTextFaceA@12     0048a074     gdi32:GDI32.dll
 0003:00000078       __imp__EnumFontFamiliesA@16 0048a078     gdi32:GDI32.dll
 0003:0000007c       __imp__GetTextExtentPoint32A@16 0048a07c     gdi32:GDI32.dll
 0003:00000080       __imp__TextOutA@20         0048a080     gdi32:GDI32.dll
 0003:00000084       __imp__SetBkColor@8        0048a084     gdi32:GDI32.dll
 0003:00000088       __imp__SetTextColor@8      0048a088     gdi32:GDI32.dll
 0003:0000008c       __imp__GetClipBox@8        0048a08c     gdi32:GDI32.dll
 0003:00000090       __imp__IntersectClipRect@20 0048a090     gdi32:GDI32.dll
 0003:00000094       __imp__SelectClipRgn@8     0048a094     gdi32:GDI32.dll
 0003:00000098       __imp__SetWindowExtEx@16   0048a098     gdi32:GDI32.dll
 0003:0000009c       __imp__GetDeviceCaps@8     0048a09c     gdi32:GDI32.dll
 0003:000000a0       __imp__SetBkMode@8         0048a0a0     gdi32:GDI32.dll
 0003:000000a4       __imp__OffsetRgn@12        0048a0a4     gdi32:GDI32.dll
 0003:000000a8       __imp__CreatePen@12        0048a0a8     gdi32:GDI32.dll
 0003:000000ac       __imp__SelectObject@8      0048a0ac     gdi32:GDI32.dll
 0003:000000b0       __imp__CreateRectRgn@16    0048a0b0     gdi32:GDI32.dll
 0003:000000b4       __imp__DeleteObject@4      0048a0b4     gdi32:GDI32.dll
 0003:000000b8       __imp__SetRectRgn@20       0048a0b8     gdi32:GDI32.dll
 0003:000000bc       __imp__Polygon@12          0048a0bc     gdi32:GDI32.dll
 0003:000000c0       __imp__Ellipse@20          0048a0c0     gdi32:GDI32.dll
 0003:000000c4       __imp__Arc@36              0048a0c4     gdi32:GDI32.dll
 0003:000000c8       __imp__Pie@36              0048a0c8     gdi32:GDI32.dll
 0003:000000cc       __imp__ExcludeClipRect@20  0048a0cc     gdi32:GDI32.dll
 0003:000000d0       __imp__GetNearestColor@8   0048a0d0     gdi32:GDI32.dll
 0003:000000d4       __imp__SetDIBits@28        0048a0d4     gdi32:GDI32.dll
 0003:000000d8       __imp__GetDCOrgEx@8        0048a0d8     gdi32:GDI32.dll
 0003:000000dc       __imp__EndDoc@4            0048a0dc     gdi32:GDI32.dll
 0003:000000e0       __imp__EndPage@4           0048a0e0     gdi32:GDI32.dll
 0003:000000e4       __imp__Escape@20           0048a0e4     gdi32:GDI32.dll
 0003:000000e8       __imp__StartPage@4         0048a0e8     gdi32:GDI32.dll
 0003:000000ec       __imp__StartDocA@8         0048a0ec     gdi32:GDI32.dll
 0003:000000f0       __imp__SetAbortProc@8      0048a0f0     gdi32:GDI32.dll
 0003:000000f4       __imp__SetMapMode@8        0048a0f4     gdi32:GDI32.dll
 0003:000000f8       __imp__SetViewportExtEx@16 0048a0f8     gdi32:GDI32.dll
 0003:000000fc       __imp__StretchDIBits@52    0048a0fc     gdi32:GDI32.dll
 0003:00000100       __imp__ResetDCA@8          0048a100     gdi32:GDI32.dll
 0003:00000104       \177GDI32_NULL_THUNK_DATA  0048a104     gdi32:GDI32.dll
 0003:00000108       __imp__Sleep@4             0048a108     kernel32:KERNEL32.dll
 0003:0000010c       __imp__ReleaseSemaphore@12 0048a10c     kernel32:KERNEL32.dll
 0003:00000110       __imp__SetThreadPriority@8 0048a110     kernel32:KERNEL32.dll
 0003:00000114       __imp__CreateSemaphoreA@16 0048a114     kernel32:KERNEL32.dll
 0003:00000118       __imp__GetLastError@0      0048a118     kernel32:KERNEL32.dll
 0003:0000011c       __imp__SetPriorityClass@8  0048a11c     kernel32:KERNEL32.dll
 0003:00000120       __imp__WaitForSingleObject@8 0048a120     kernel32:KERNEL32.dll
 0003:00000124       __imp__GetThreadContext@8  0048a124     kernel32:KERNEL32.dll
 0003:00000128       __imp__DuplicateHandle@28  0048a128     kernel32:KERNEL32.dll
 0003:0000012c       __imp__GetCurrentThread@0  0048a12c     kernel32:KERNEL32.dll
 0003:00000130       __imp__GetCurrentProcessId@0 0048a130     kernel32:KERNEL32.dll
 0003:00000134       __imp__LoadLibraryA@4      0048a134     kernel32:KERNEL32.dll
 0003:00000138       __imp__GetProcAddress@8    0048a138     kernel32:KERNEL32.dll
 0003:0000013c       __imp__FreeLibrary@4       0048a13c     kernel32:KERNEL32.dll
 0003:00000140       __imp__DebugBreak@0        0048a140     kernel32:KERNEL32.dll
 0003:00000144       __imp__SetConsoleTextAttribute@8 0048a144     kernel32:KERNEL32.dll
 0003:00000148       __imp__SetConsoleScreenBufferSize@8 0048a148     kernel32:KERNEL32.dll
 0003:0000014c       __imp__GetStdHandle@4      0048a14c     kernel32:KERNEL32.dll
 0003:00000150       __imp__AllocConsole@0      0048a150     kernel32:KERNEL32.dll
 0003:00000154       __imp__GlobalAlloc@8       0048a154     kernel32:KERNEL32.dll
 0003:00000158       __imp__GlobalFree@4        0048a158     kernel32:KERNEL32.dll
 0003:0000015c       __imp__GetModuleHandleA@4  0048a15c     kernel32:KERNEL32.dll
 0003:00000160       __imp__GlobalUnlock@4      0048a160     kernel32:KERNEL32.dll
 0003:00000164       __imp__GlobalLock@4        0048a164     kernel32:KERNEL32.dll
 0003:00000168       __imp__LockResource@4      0048a168     kernel32:KERNEL32.dll
 0003:0000016c       __imp__LoadResource@8      0048a16c     kernel32:KERNEL32.dll
 0003:00000170       __imp__FindResourceA@12    0048a170     kernel32:KERNEL32.dll
 0003:00000174       __imp__SizeofResource@8    0048a174     kernel32:KERNEL32.dll
 0003:00000178       __imp__CloseHandle@4       0048a178     kernel32:KERNEL32.dll
 0003:0000017c       __imp__ReadFile@20         0048a17c     kernel32:KERNEL32.dll
 0003:00000180       __imp__GetFileSize@8       0048a180     kernel32:KERNEL32.dll
 0003:00000184       __imp__CreateFileA@28      0048a184     kernel32:KERNEL32.dll
 0003:00000188       __imp__lstrcpyA@8          0048a188     kernel32:KERNEL32.dll
 0003:0000018c       __imp__SetErrorMode@4      0048a18c     kernel32:KERNEL32.dll
 0003:00000190       __imp__GetVersionExA@4     0048a190     kernel32:KERNEL32.dll
 0003:00000194       __imp__GetCurrentProcess@0 0048a194     kernel32:KERNEL32.dll
 0003:00000198       __imp__GetModuleFileNameA@12 0048a198     kernel32:KERNEL32.dll
 0003:0000019c       __imp__SetCurrentDirectoryA@4 0048a19c     kernel32:KERNEL32.dll
 0003:000001a0       __imp__lstrcmpiA@8         0048a1a0     kernel32:KERNEL32.dll
 0003:000001a4       __imp__lstrlenA@4          0048a1a4     kernel32:KERNEL32.dll
 0003:000001a8       __imp__GetCurrentDirectoryA@8 0048a1a8     kernel32:KERNEL32.dll
 0003:000001ac       __imp__GetCommandLineA@0   0048a1ac     kernel32:KERNEL32.dll
 0003:000001b0       __imp__GetProfileIntA@12   0048a1b0     kernel32:KERNEL32.dll
 0003:000001b4       __imp__GetProfileStringA@20 0048a1b4     kernel32:KERNEL32.dll
 0003:000001b8       __imp__VirtualAlloc@16     0048a1b8     kernel32:KERNEL32.dll
 0003:000001bc       __imp__VirtualQuery@12     0048a1bc     kernel32:KERNEL32.dll
 0003:000001c0       __imp__VirtualFree@12      0048a1c0     kernel32:KERNEL32.dll
 0003:000001c4       __imp__GetSystemInfo@4     0048a1c4     kernel32:KERNEL32.dll
 0003:000001c8       __imp__FlushFileBuffers@4  0048a1c8     kernel32:KERNEL32.dll
 0003:000001cc       __imp__WriteFile@20        0048a1cc     kernel32:KERNEL32.dll
 0003:000001d0       __imp__SetFilePointer@16   0048a1d0     kernel32:KERNEL32.dll
 0003:000001d4       __imp__FindClose@4         0048a1d4     kernel32:KERNEL32.dll
 0003:000001d8       __imp__GetFileAttributesA@4 0048a1d8     kernel32:KERNEL32.dll
 0003:000001dc       __imp__FindFirstFileA@8    0048a1dc     kernel32:KERNEL32.dll
 0003:000001e0       __imp__FindNextFileA@8     0048a1e0     kernel32:KERNEL32.dll
 0003:000001e4       __imp__GetLogicalDrives@0  0048a1e4     kernel32:KERNEL32.dll
 0003:000001e8       __imp__DeleteFileA@4       0048a1e8     kernel32:KERNEL32.dll
 0003:000001ec       __imp__RemoveDirectoryA@4  0048a1ec     kernel32:KERNEL32.dll
 0003:000001f0       __imp__MoveFileA@8         0048a1f0     kernel32:KERNEL32.dll
 0003:000001f4       __imp__CreateDirectoryA@8  0048a1f4     kernel32:KERNEL32.dll
 0003:000001f8       __imp__GetDriveTypeA@4     0048a1f8     kernel32:KERNEL32.dll
 0003:000001fc       __imp__SetFileAttributesA@8 0048a1fc     kernel32:KERNEL32.dll
 0003:00000200       __imp__GetVolumeInformationA@32 0048a200     kernel32:KERNEL32.dll
 0003:00000204       __imp__GetFullPathNameA@16 0048a204     kernel32:KERNEL32.dll
 0003:00000208       __imp__GetLocaleInfoA@16   0048a208     kernel32:KERNEL32.dll
 0003:0000020c       __imp__GetFileType@4       0048a20c     kernel32:KERNEL32.dll
 0003:00000210       __imp__SetEndOfFile@4      0048a210     kernel32:KERNEL32.dll
 0003:00000214       __imp__UnlockFile@20       0048a214     kernel32:KERNEL32.dll
 0003:00000218       __imp__LockFile@20         0048a218     kernel32:KERNEL32.dll
 0003:0000021c       __imp__QueryPerformanceFrequency@4 0048a21c     kernel32:KERNEL32.dll
 0003:00000220       __imp__SystemTimeToFileTime@8 0048a220     kernel32:KERNEL32.dll
 0003:00000224       __imp__GetSystemTimeAsFileTime@4 0048a224     kernel32:KERNEL32.dll
 0003:00000228       __imp__QueryPerformanceCounter@4 0048a228     kernel32:KERNEL32.dll
 0003:0000022c       __imp__GetCurrentThreadId@0 0048a22c     kernel32:KERNEL32.dll
 0003:00000230       __imp__InitializeCriticalSection@4 0048a230     kernel32:KERNEL32.dll
 0003:00000234       __imp__LeaveCriticalSection@4 0048a234     kernel32:KERNEL32.dll
 0003:00000238       __imp__EnterCriticalSection@4 0048a238     kernel32:KERNEL32.dll
 0003:0000023c       __imp__TerminateThread@8   0048a23c     kernel32:KERNEL32.dll
 0003:00000240       __imp__GetThreadPriority@4 0048a240     kernel32:KERNEL32.dll
 0003:00000244       __imp__GetStartupInfoA@4   0048a244     kernel32:KERNEL32.dll
 0003:00000248       \177KERNEL32_NULL_THUNK_DATA 0048a248     kernel32:KERNEL32.dll
 0003:0000024c       __imp__WNetGetConnectionA@12 0048a24c     mpr:MPR.dll
 0003:00000250       \177MPR_NULL_THUNK_DATA    0048a250     mpr:MPR.dll
 0003:00000254       __imp___strdup             0048a254     msvcrt:MSVCRT.dll
 0003:00000254       __imp__strdup              0048a254     msvcrt:MSVCRT.dll
 0003:00000258       __imp__swab                0048a258     msvcrt:MSVCRT.dll
 0003:00000258       __imp___swab               0048a258     msvcrt:MSVCRT.dll
 0003:0000025c       __imp__calloc              0048a25c     msvcrt:MSVCRT.dll
 0003:00000260       __imp___fdopen             0048a260     msvcrt:MSVCRT.dll
 0003:00000264       __imp__vsprintf            0048a264     msvcrt:MSVCRT.dll
 0003:00000268       __imp____set_app_type      0048a268     msvcrt:MSVCRT.dll
 0003:0000026c       __imp____p__fmode          0048a26c     msvcrt:MSVCRT.dll
 0003:00000270       __imp____p__commode        0048a270     msvcrt:MSVCRT.dll
 0003:00000274       __imp___adjust_fdiv        0048a274     msvcrt:MSVCRT.dll
 0003:00000278       __imp____setusermatherr    0048a278     msvcrt:MSVCRT.dll
 0003:0000027c       __imp___initterm           0048a27c     msvcrt:MSVCRT.dll
 0003:00000280       __imp____getmainargs       0048a280     msvcrt:MSVCRT.dll
 0003:00000284       __imp___acmdln             0048a284     msvcrt:MSVCRT.dll
 0003:00000288       __imp___XcptFilter         0048a288     msvcrt:MSVCRT.dll
 0003:0000028c       __imp___exit               0048a28c     msvcrt:MSVCRT.dll
 0003:00000290       __imp__fputs               0048a290     msvcrt:MSVCRT.dll
 0003:00000294       __imp__fputc               0048a294     msvcrt:MSVCRT.dll
 0003:00000298       __imp__tmpfile             0048a298     msvcrt:MSVCRT.dll
 0003:0000029c       __imp__fseek               0048a29c     msvcrt:MSVCRT.dll
 0003:000002a0       __imp__ftell               0048a2a0     msvcrt:MSVCRT.dll
 0003:000002a4       __imp__rewind              0048a2a4     msvcrt:MSVCRT.dll
 0003:000002a8       __imp__fread               0048a2a8     msvcrt:MSVCRT.dll
 0003:000002ac       __imp__fwrite              0048a2ac     msvcrt:MSVCRT.dll
 0003:000002b0       __imp__putc                0048a2b0     msvcrt:MSVCRT.dll
 0003:000002b4       __imp__log10               0048a2b4     msvcrt:MSVCRT.dll
 0003:000002b8       __imp__floor               0048a2b8     msvcrt:MSVCRT.dll
 0003:000002bc       __imp__pow                 0048a2bc     msvcrt:MSVCRT.dll
 0003:000002c0       __imp__exp                 0048a2c0     msvcrt:MSVCRT.dll
 0003:000002c4       __imp__log                 0048a2c4     msvcrt:MSVCRT.dll
 0003:000002c8       __imp__sqrt                0048a2c8     msvcrt:MSVCRT.dll
 0003:000002cc       __imp__atan                0048a2cc     msvcrt:MSVCRT.dll
 0003:000002d0       __imp__acos                0048a2d0     msvcrt:MSVCRT.dll
 0003:000002d4       __imp__asin                0048a2d4     msvcrt:MSVCRT.dll
 0003:000002d8       __imp__tan                 0048a2d8     msvcrt:MSVCRT.dll
 0003:000002dc       __imp__stricmp             0048a2dc     msvcrt:MSVCRT.dll
 0003:000002dc       __imp___stricmp            0048a2dc     msvcrt:MSVCRT.dll
 0003:000002e0       __imp__strncmp             0048a2e0     msvcrt:MSVCRT.dll
 0003:000002e4       __imp__strncpy             0048a2e4     msvcrt:MSVCRT.dll
 0003:000002e8       __imp___errno              0048a2e8     msvcrt:MSVCRT.dll
 0003:000002ec       __imp__fgets               0048a2ec     msvcrt:MSVCRT.dll
 0003:000002f0       __imp__fprintf             0048a2f0     msvcrt:MSVCRT.dll
 0003:000002f4       __imp____p__environ        0048a2f4     msvcrt:MSVCRT.dll
 0003:000002f8       __imp__strchr              0048a2f8     msvcrt:MSVCRT.dll
 0003:000002fc       __imp__toupper             0048a2fc     msvcrt:MSVCRT.dll
 0003:00000300       __imp___fullpath           0048a300     msvcrt:MSVCRT.dll
 0003:00000304       __imp__strrchr             0048a304     msvcrt:MSVCRT.dll
 0003:00000308       __imp___controlfp          0048a308     msvcrt:MSVCRT.dll
 0003:0000030c       __imp___splitpath          0048a30c     msvcrt:MSVCRT.dll
 0003:00000310       __imp__exit                0048a310     msvcrt:MSVCRT.dll
 0003:00000314       __imp___except_handler3    0048a314     msvcrt:MSVCRT.dll
 0003:00000318       __imp__memmove             0048a318     msvcrt:MSVCRT.dll
 0003:0000031c       __imp__cos                 0048a31c     msvcrt:MSVCRT.dll
 0003:00000320       __imp__sin                 0048a320     msvcrt:MSVCRT.dll
 0003:00000324       __imp__realloc             0048a324     msvcrt:MSVCRT.dll
 0003:00000328       __imp__sscanf              0048a328     msvcrt:MSVCRT.dll
 0003:0000032c       __imp__fclose              0048a32c     msvcrt:MSVCRT.dll
 0003:00000330       __imp__fopen               0048a330     msvcrt:MSVCRT.dll
 0003:00000334       __imp__freopen             0048a334     msvcrt:MSVCRT.dll
 0003:00000338       __imp__setvbuf             0048a338     msvcrt:MSVCRT.dll
 0003:0000033c       __imp__putchar             0048a33c     msvcrt:MSVCRT.dll
 0003:00000340       __imp__sprintf             0048a340     msvcrt:MSVCRT.dll
 0003:00000344       __imp__printf              0048a344     msvcrt:MSVCRT.dll
 0003:00000348       __imp___iob                0048a348     msvcrt:MSVCRT.dll
 0003:0000034c       __imp__fflush              0048a34c     msvcrt:MSVCRT.dll
 0003:00000350       __imp__strerror            0048a350     msvcrt:MSVCRT.dll
 0003:00000354       __imp__bsearch             0048a354     msvcrt:MSVCRT.dll
 0003:00000358       __imp__malloc              0048a358     msvcrt:MSVCRT.dll
 0003:0000035c       __imp__free                0048a35c     msvcrt:MSVCRT.dll
 0003:00000360       __imp___ftol               0048a360     msvcrt:MSVCRT.dll
 0003:00000364       __imp___beginthreadex      0048a364     msvcrt:MSVCRT.dll
 0003:00000368       \177MSVCRT_NULL_THUNK_DATA 0048a368     msvcrt:MSVCRT.dll
 0003:0000036c       __imp__SHGetPathFromIDListA@8 0048a36c     shell32:SHELL32.dll
 0003:00000370       __imp__SHGetSpecialFolderLocation@12 0048a370     shell32:SHELL32.dll
 0003:00000374       \177SHELL32_NULL_THUNK_DATA 0048a374     shell32:SHELL32.dll
 0003:00000378       __imp__GetSysColor@4       0048a378     user32:USER32.dll
 0003:0000037c       __imp__GetSystemMetrics@4  0048a37c     user32:USER32.dll
 0003:00000380       __imp__DestroyCursor@4     0048a380     user32:USER32.dll
 0003:00000384       __imp__CreateCursor@28     0048a384     user32:USER32.dll
 0003:00000388       __imp__SetCursor@4         0048a388     user32:USER32.dll
 0003:0000038c       __imp__LoadCursorA@8       0048a38c     user32:USER32.dll
 0003:00000390       __imp__MessageBoxA@16      0048a390     user32:USER32.dll
 0003:00000394       __imp__PostMessageA@16     0048a394     user32:USER32.dll
 0003:00000398       __imp__DefWindowProcA@16   0048a398     user32:USER32.dll
 0003:0000039c       __imp__EndPaint@8          0048a39c     user32:USER32.dll
 0003:000003a0       __imp__GetWindowDC@4       0048a3a0     user32:USER32.dll
 0003:000003a4       __imp__DrawIcon@16         0048a3a4     user32:USER32.dll
 0003:000003a8       __imp__BeginPaint@8        0048a3a8     user32:USER32.dll
 0003:000003ac       __imp__FillRect@12         0048a3ac     user32:USER32.dll
 0003:000003b0       __imp__IsWindow@4          0048a3b0     user32:USER32.dll
 0003:000003b4       __imp__EnumWindows@8       0048a3b4     user32:USER32.dll
 0003:000003b8       __imp__GetClassNameA@12    0048a3b8     user32:USER32.dll
 0003:000003bc       __imp__ValidateRect@8      0048a3bc     user32:USER32.dll
 0003:000003c0       __imp__GetUpdateRect@12    0048a3c0     user32:USER32.dll
 0003:000003c4       __imp__GetMessageTime@0    0048a3c4     user32:USER32.dll
 0003:000003c8       __imp__ScreenToClient@8    0048a3c8     user32:USER32.dll
 0003:000003cc       __imp__GetMessagePos@0     0048a3cc     user32:USER32.dll
 0003:000003d0       __imp__GetWindowRect@8     0048a3d0     user32:USER32.dll
 0003:000003d4       __imp__RegisterClassA@4    0048a3d4     user32:USER32.dll
 0003:000003d8       __imp__DrawTextA@20        0048a3d8     user32:USER32.dll
 0003:000003dc       __imp__GetWindowPlacement@8 0048a3dc     user32:USER32.dll
 0003:000003e0       __imp__SystemParametersInfoA@16 0048a3e0     user32:USER32.dll
 0003:000003e4       __imp__IntersectRect@12    0048a3e4     user32:USER32.dll
 0003:000003e8       __imp__OffsetRect@12       0048a3e8     user32:USER32.dll
 0003:000003ec       __imp__SetMessageQueue@4   0048a3ec     user32:USER32.dll
 0003:000003f0       __imp__LoadStringA@16      0048a3f0     user32:USER32.dll
 0003:000003f4       __imp__TabbedTextOutA@32   0048a3f4     user32:USER32.dll
 0003:000003f8       __imp__MessageBeep@4       0048a3f8     user32:USER32.dll
 0003:000003fc       __imp__SetClipboardData@8  0048a3fc     user32:USER32.dll
 0003:00000400       __imp__IsClipboardFormatAvailable@4 0048a400     user32:USER32.dll
 0003:00000404       __imp__OpenClipboard@4     0048a404     user32:USER32.dll
 0003:00000408       __imp__WindowFromPoint@8   0048a408     user32:USER32.dll
 0003:0000040c       __imp__CloseClipboard@0    0048a40c     user32:USER32.dll
 0003:00000410       __imp__CreateIcon@28       0048a410     user32:USER32.dll
 0003:00000414       __imp__UnregisterClassA@8  0048a414     user32:USER32.dll
 0003:00000418       __imp__GetSystemMenu@8     0048a418     user32:USER32.dll
 0003:0000041c       __imp__RemoveMenu@12       0048a41c     user32:USER32.dll
 0003:00000420       __imp__InvalidateRect@12   0048a420     user32:USER32.dll
 0003:00000424       __imp__UpdateWindow@4      0048a424     user32:USER32.dll
 0003:00000428       __imp__ShowWindow@8        0048a428     user32:USER32.dll
 0003:0000042c       __imp__SetFocus@4          0048a42c     user32:USER32.dll
 0003:00000430       __imp__GetParent@4         0048a430     user32:USER32.dll
 0003:00000434       __imp__AdjustWindowRectEx@16 0048a434     user32:USER32.dll
 0003:00000438       __imp__SetWindowPos@28     0048a438     user32:USER32.dll
 0003:0000043c       __imp__IsIconic@4          0048a43c     user32:USER32.dll
 0003:00000440       __imp__GetClientRect@8     0048a440     user32:USER32.dll
 0003:00000444       __imp__ClientToScreen@8    0048a444     user32:USER32.dll
 0003:00000448       __imp__SendMessageA@16     0048a448     user32:USER32.dll
 0003:0000044c       __imp__GetActiveWindow@0   0048a44c     user32:USER32.dll
 0003:00000450       __imp__IsWindowVisible@4   0048a450     user32:USER32.dll
 0003:00000454       __imp__SetActiveWindow@4   0048a454     user32:USER32.dll
 0003:00000458       __imp__GetWindowThreadProcessId@8 0048a458     user32:USER32.dll
 0003:0000045c       __imp__GetWindow@8         0048a45c     user32:USER32.dll
 0003:00000460       __imp__EnableWindow@8      0048a460     user32:USER32.dll
 0003:00000464       __imp__GetWindowLongA@8    0048a464     user32:USER32.dll
 0003:00000468       __imp__SetWindowLongA@12   0048a468     user32:USER32.dll
 0003:0000046c       __imp__DestroyIcon@4       0048a46c     user32:USER32.dll
 0003:00000470       __imp__DispatchMessageA@4  0048a470     user32:USER32.dll
 0003:00000474       __imp__TranslateMessage@4  0048a474     user32:USER32.dll
 0003:00000478       __imp__DestroyWindow@4     0048a478     user32:USER32.dll
 0003:0000047c       __imp__CreateWindowExA@48  0048a47c     user32:USER32.dll
 0003:00000480       __imp__SetCursorPos@8      0048a480     user32:USER32.dll
 0003:00000484       __imp__GetAsyncKeyState@4  0048a484     user32:USER32.dll
 0003:00000488       __imp__GetCursorPos@4      0048a488     user32:USER32.dll
 0003:0000048c       __imp__SetCapture@4        0048a48c     user32:USER32.dll
 0003:00000490       __imp__GetDC@4             0048a490     user32:USER32.dll
 0003:00000494       __imp__ReleaseDC@8         0048a494     user32:USER32.dll
 0003:00000498       __imp__ReleaseCapture@0    0048a498     user32:USER32.dll
 0003:0000049c       __imp__PeekMessageA@20     0048a49c     user32:USER32.dll
 0003:000004a0       __imp__MsgWaitForMultipleObjects@20 0048a4a0     user32:USER32.dll
 0003:000004a4       __imp__RedrawWindow@16     0048a4a4     user32:USER32.dll
 0003:000004a8       __imp__GetClipboardData@4  0048a4a8     user32:USER32.dll
 0003:000004ac       __imp__EmptyClipboard@0    0048a4ac     user32:USER32.dll
 0003:000004b0       \177USER32_NULL_THUNK_DATA 0048a4b0     user32:USER32.dll
 0003:000004b4       __imp__timeGetDevCaps@8    0048a4b4     winmm:WINMM.dll
 0003:000004b8       __imp__PlaySoundA@12       0048a4b8     winmm:WINMM.dll
 0003:000004bc       \177WINMM_NULL_THUNK_DATA  0048a4bc     winmm:WINMM.dll
 0003:000004c0       __imp__gethostbyname@4     0048a4c0     wsock32:WSOCK32.dll
 0003:000004c4       __imp__getpeername@12      0048a4c4     wsock32:WSOCK32.dll
 0003:000004c8       __imp__getsockname@12      0048a4c8     wsock32:WSOCK32.dll
 0003:000004cc       __imp__getsockopt@20       0048a4cc     wsock32:WSOCK32.dll
 0003:000004d0       __imp__setsockopt@20       0048a4d0     wsock32:WSOCK32.dll
 0003:000004d4       __imp__sendto@24           0048a4d4     wsock32:WSOCK32.dll
 0003:000004d8       __imp__recvfrom@24         0048a4d8     wsock32:WSOCK32.dll
 0003:000004dc       __imp__getservbyname@8     0048a4dc     wsock32:WSOCK32.dll
 0003:000004e0       __imp__listen@8            0048a4e0     wsock32:WSOCK32.dll
 0003:000004e4       __imp__bind@12             0048a4e4     wsock32:WSOCK32.dll
 0003:000004e8       __imp__accept@12           0048a4e8     wsock32:WSOCK32.dll
 0003:000004ec       __imp__socket@12           0048a4ec     wsock32:WSOCK32.dll
 0003:000004f0       __imp__WSAStartup@8        0048a4f0     wsock32:WSOCK32.dll
 0003:000004f4       __imp__WSACleanup@0        0048a4f4     wsock32:WSOCK32.dll
 0003:000004f8       __imp__closesocket@4       0048a4f8     wsock32:WSOCK32.dll
 0003:000004fc       __imp__WSAGetLastError@0   0048a4fc     wsock32:WSOCK32.dll
 0003:00000500       __imp__gethostbyaddr@12    0048a500     wsock32:WSOCK32.dll
 0003:00000504       __imp__connect@12          0048a504     wsock32:WSOCK32.dll
 0003:00000508       __imp__getprotobynumber@4  0048a508     wsock32:WSOCK32.dll
 0003:0000050c       __imp__ioctlsocket@12      0048a50c     wsock32:WSOCK32.dll
 0003:00000510       __imp__send@16             0048a510     wsock32:WSOCK32.dll
 0003:00000514       __imp__getservbyport@8     0048a514     wsock32:WSOCK32.dll
 0003:00000518       __imp__gethostname@8       0048a518     wsock32:WSOCK32.dll
 0003:0000051c       __imp__recv@16             0048a51c     wsock32:WSOCK32.dll
 0003:00000520       __imp__shutdown@8          0048a520     wsock32:WSOCK32.dll
 0003:00000524       __imp__WSAAsyncSelect@16   0048a524     wsock32:WSOCK32.dll
 0003:00000528       __imp__getprotobyname@4    0048a528     wsock32:WSOCK32.dll
 0003:0000052c       \177WSOCK32_NULL_THUNK_DATA 0048a52c     wsock32:WSOCK32.dll
 0003:00000530       __imp__PrintDlgA@4         0048a530     comdlg32:comdlg32.dll
 0003:00000534       \177comdlg32_NULL_THUNK_DATA 0048a534     comdlg32:comdlg32.dll
 0003:00000538       ??_C@_0CA@GAOF@VisualWorks?$CIR?$CJ?57?43a?5Apr?5?57?52005?$AA@ 0048a538     prUdummy.obj
 0003:00000558       ??_C@_0CA@FJIM@couldn?8t?5signal?5delay?5semaphore?$AA@ 0048a558     ntalarm.obj
 0003:00000578       ??_C@_0BO@OOBO@?4?4?2?4?4?2?4?4?2src?2platpc?2ntalarm?4c?$AA@ 0048a578     ntalarm.obj
 0003:00000598       ??_C@_0BP@GCOE@couldn?8t?5signal?5poll?5semaphore?$AA@ 0048a598     ntalarm.obj
 0003:000005b8       ??_C@_0CP@CKPE@couldn?8t?5set?5alarm?5subsystem?5thr@ 0048a5b8     ntalarm.obj
 0003:000005e8       ??_C@_0CI@PMBM@couldn?8t?5create?5alarm?5subsystem?5@ 0048a5e8     ntalarm.obj
 0003:00000610       ??_C@_0CL@HLNF@couldn?8t?5create?5alarm?5subsystem?5@ 0048a610     ntalarm.obj
 0003:0000063c       ??_C@_0BI@BOKK@SetPriorityClass?5failed?$AA@ 0048a63c     ntalarm.obj
 0003:00000654       ??_C@_0O@EOBO@PriorityClass?$AA@ 0048a654     ntalarm.obj
 0003:00000664       ??_C@_0CL@CCHK@delay?5semaphore?5WaitForSingleObj@ 0048a664     ntalarm.obj
 0003:00000690       ??_C@_0CF@FAIK@couldn?8t?5set?5profile?5thread?5prio@ 0048a690     ntalarm.obj
 0003:000006b8       ??_C@_0BP@BCLI@couldn?8t?5create?5profile?5thread?$AA@ 0048a6b8     ntalarm.obj
 0003:000006d8       ??_C@_0CC@KMCM@couldn?8t?5create?5profile?5semaphor@ 0048a6d8     ntalarm.obj
 0003:000006fc       ??_C@_0CD@BFDN@couldn?8t?5get?5timer?5resolution?5in@ 0048a6fc     ntalarm.obj
 0003:00000720       ??_C@_0CC@DOKK@couldn?8t?5signal?5profile?5semaphor@ 0048a720     ntalarm.obj
 0003:00000754       ??_C@_0BN@ICCO@?4?4?2?4?4?2?4?4?2src?2platpc?2ntanim?4c?$AA@ 0048a754     ntanim.obj
 0003:00000778       __real@8@3ffe8000000000000000 0048a778     ntanim.obj
 0003:00000780       ??_C@_05KAP@OWST4?$AA@     0048a780     ntanim.obj
 0003:00000788       ??_C@_0BP@NBKA@?4?4?2?4?4?2?4?4?2src?2platpc?2ntcanvas?4c?$AA@ 0048a788     ntcanvas.obj
 0003:000007a8       ??_C@_05FPOK@OWST3?$AA@    0048a7a8     ntcanvas.obj
 0003:000007b0       ??_C@_05KKLL@OWSTH?$AA@    0048a7b0     ntcanvas.obj
 0003:000007b8       ??_C@_05PFHN@OWST2?$AA@    0048a7b8     ntcanvas.obj
 0003:000007c0       ??_C@_03LBJA@xeq?$AA@      0048a7c0     ntcurs.obj
 0003:000007c4       ??_C@_04OMDE@wait?$AA@     0048a7c4     ntcurs.obj
 0003:000007cc       ??_C@_06KMLP@normal?$AA@   0048a7cc     ntcurs.obj
 0003:000007d4       ??_C@_04MHDN@help?$AA@     0048a7d4     ntcurs.obj
 0003:000007dc       ??_C@_05KFON@iBeam?$AA@    0048a7dc     ntcurs.obj
 0003:000007e4       ??_C@_02HAO@up?$AA@        0048a7e4     ntcurs.obj
 0003:000007e8       ??_C@_0BB@CGJP@absoluteVertical?$AA@ 0048a7e8     ntcurs.obj
 0003:000007fc       ??_C@_07KFNL@no?5drop?$AA@ 0048a7fc     ntcurs.obj
 0003:00000804       ??_C@_09KAKM@crossHair?$AA@ 0048a804     ntcurs.obj
 0003:00000810       ??_C@_0L@GGHO@bottomLeft?$AA@ 0048a810     ntcurs.obj
 0003:0000081c       ??_C@_08BNEN@topRight?$AA@ 0048a81c     ntcurs.obj
 0003:00000828       ??_C@_06GMLF@corner?$AA@   0048a828     ntcurs.obj
 0003:00000830       ??_C@_06NOHF@origin?$AA@   0048a830     ntcurs.obj
 0003:00000838       ??_C@_0BC@DJBO@CPOK16FreeCbThunk?$AA@ 0048a838     ntdynld.obj
 0003:0000084c       ??_C@_0BD@HKBE@CPOK16AllocCbThunk?$AA@ 0048a84c     ntdynld.obj
 0003:00000860       ??_C@_0BA@JJED@CPOK16Xlate3216?$AA@ 0048a860     ntdynld.obj
 0003:00000870       ??_C@_0BD@KNIG@CPOK16InitCallback?$AA@ 0048a870     ntdynld.obj
 0003:00000884       ??_C@_0L@HGPF@CPOK16Free?$AA@ 0048a884     ntdynld.obj
 0003:00000890       ??_C@_0M@BPOK@CPOK16Alloc?$AA@ 0048a890     ntdynld.obj
 0003:0000089c       ??_C@_0BA@BMLE@CPOK16Xlate1632?$AA@ 0048a89c     ntdynld.obj
 0003:000008ac       ??_C@_0O@LBOI@CPOK16CallFar?$AA@ 0048a8ac     ntdynld.obj
 0003:000008bc       ??_C@_0P@LEFO@CPOK16InitCall?$AA@ 0048a8bc     ntdynld.obj
 0003:000008cc       ??_C@_0BF@JDEI@CPOK16GetProcAddress?$AA@ 0048a8cc     ntdynld.obj
 0003:000008e4       ??_C@_0BC@HELG@CPOK16FreeLibrary?$AA@ 0048a8e4     ntdynld.obj
 0003:000008f8       ??_C@_0BE@PPJF@Thunking?5Init?5Error?$AA@ 0048a8f8     ntdynld.obj
 0003:0000090c       ??_C@_0BC@IGCE@CPOK16LoadLibrary?$AA@ 0048a90c     ntdynld.obj
 0003:00000920       ??_C@_0L@CIO@VWFT32?4DLL?$AA@ 0048a920     ntdynld.obj
 0003:0000092c       ??_C@_0BB@KIMI@oeLoadInitialize?$AA@ 0048a92c     ntdynld.obj
 0003:00000940       ??_C@_0BB@HHAI@UPLoadInitialize?$AA@ 0048a940     ntdynld.obj
 0003:00001f78       ??_C@_0L@OCKC@WSANO_DATA?$AA@ 0048bf78     ntecode.obj
 0003:00001f84       ??_C@_0P@FDEO@WSANO_RECOVERY?$AA@ 0048bf84     ntecode.obj
 0003:00001f94       ??_C@_0N@POCN@WSATRY_AGAIN?$AA@ 0048bf94     ntecode.obj
 0003:00001fa4       ??_C@_0BC@FGAC@WSAHOST_NOT_FOUND?$AA@ 0048bfa4     ntecode.obj
 0003:00001fb8       ??_C@_0BC@HCBF@WSANOTINITIALISED?$AA@ 0048bfb8     ntecode.obj
 0003:00001fcc       ??_C@_0BD@PKID@WSAVERNOTSUPPORTED?$AA@ 0048bfcc     ntecode.obj
 0003:00001fe0       ??_C@_0P@BMGD@WSASYSNOTREADY?$AA@ 0048bfe0     ntecode.obj
 0003:00001ff0       ??_C@_06JKGF@EWSOCK?$AA@   0048bff0     ntecode.obj
 0003:00001ff8       ??_C@_0BA@GDKP@WSAEHOSTUNREACH?$AA@ 0048bff8     ntecode.obj
 0003:00002008       ??_C@_0N@FHHG@EHOSTUNREACH?$AA@ 0048c008     ntecode.obj
 0003:00002018       ??_C@_0N@CHFC@WSAEHOSTDOWN?$AA@ 0048c018     ntecode.obj
 0003:00002028       ??_C@_09MJAA@EHOSTDOWN?$AA@ 0048c028     ntecode.obj
 0003:00002034       ??_C@_0BA@CAFH@WSAENAMETOOLONG?$AA@ 0048c034     ntecode.obj
 0003:00002044       ??_C@_08KIHD@WSAELOOP?$AA@ 0048c044     ntecode.obj
 0003:00002050       ??_C@_06LAPK@EELOOP?$AA@   0048c050     ntecode.obj
 0003:00002058       ??_C@_0BA@KHJO@WSAECONNREFUSED?$AA@ 0048c058     ntecode.obj
 0003:00002068       ??_C@_0N@JDEH@ECONNREFUSED?$AA@ 0048c068     ntecode.obj
 0003:00002078       ??_C@_0N@IOAI@WSAETIMEDOUT?$AA@ 0048c078     ntecode.obj
 0003:00002088       ??_C@_09GAFK@ETIMEDOUT?$AA@ 0048c088     ntecode.obj
 0003:00002094       ??_C@_0BA@JKLP@WSAETOOMANYREFS?$AA@ 0048c094     ntecode.obj
 0003:000020a4       ??_C@_0N@KOGG@ETOOMANYREFS?$AA@ 0048c0a4     ntecode.obj
 0003:000020b4       ??_C@_0N@IIJE@WSAESHUTDOWN?$AA@ 0048c0b4     ntecode.obj
 0003:000020c4       ??_C@_09GGMG@ESHUTDOWN?$AA@ 0048c0c4     ntecode.obj
 0003:000020d0       ??_C@_0M@FHGM@WSAENOTCONN?$AA@ 0048c0d0     ntecode.obj
 0003:000020dc       ??_C@_08FHM@ENOTCONN?$AA@  0048c0dc     ntecode.obj
 0003:000020e8       ??_C@_0L@GMEH@WSAEISCONN?$AA@ 0048c0e8     ntecode.obj
 0003:000020f4       ??_C@_07HMGE@EISCONN?$AA@  0048c0f4     ntecode.obj
 0003:000020fc       ??_C@_0L@HPDK@WSAENOBUFS?$AA@ 0048c0fc     ntecode.obj
 0003:00002108       ??_C@_07GPBJ@ENOBUFS?$AA@  0048c108     ntecode.obj
 0003:00002110       ??_C@_0O@LFGK@WSAECONNRESET?$AA@ 0048c110     ntecode.obj
 0003:00002120       ??_C@_0L@BFIE@ECONNRESET?$AA@ 0048c120     ntecode.obj
 0003:0000212c       ??_C@_0BA@DAMK@WSAECONNABORTED?$AA@ 0048c12c     ntecode.obj
 0003:0000213c       ??_C@_0N@EBD@ECONNABORTED?$AA@ 0048c13c     ntecode.obj
 0003:0000214c       ??_C@_0N@KFEB@WSAENETRESET?$AA@ 0048c14c     ntecode.obj
 0003:0000215c       ??_C@_09ELBD@ENETRESET?$AA@ 0048c15c     ntecode.obj
 0003:00002168       ??_C@_0P@BMAL@WSAENETUNREACH?$AA@ 0048c168     ntecode.obj
 0003:00002178       ??_C@_0M@MFKL@ENETUNREACH?$AA@ 0048c178     ntecode.obj
 0003:00002184       ??_C@_0M@OCME@WSAENETDOWN?$AA@ 0048c184     ntecode.obj
 0003:00002190       ??_C@_08LANE@ENETDOWN?$AA@ 0048c190     ntecode.obj
 0003:0000219c       ??_C@_0BB@CAPK@WSAEADDRNOTAVAIL?$AA@ 0048c19c     ntecode.obj
 0003:000021b0       ??_C@_0O@NIMO@EADDRNOTAVAIL?$AA@ 0048c1b0     ntecode.obj
 0003:000021c0       ??_C@_0O@HEEI@WSAEADDRINUSE?$AA@ 0048c1c0     ntecode.obj
 0003:000021d0       ??_C@_0L@NEKG@EADDRINUSE?$AA@ 0048c1d0     ntecode.obj
 0003:000021dc       ??_C@_0BA@JGHB@WSAEAFNOSUPPORT?$AA@ 0048c1dc     ntecode.obj
 0003:000021ec       ??_C@_0N@KCKI@EAFNOSUPPORT?$AA@ 0048c1ec     ntecode.obj
 0003:000021fc       ??_C@_0BA@NEAC@WSAEPFNOSUPPORT?$AA@ 0048c1fc     ntecode.obj
 0003:0000220c       ??_C@_0N@OANL@EPFNOSUPPORT?$AA@ 0048c20c     ntecode.obj
 0003:0000221c       ??_C@_0O@CKGP@WSAEOPNOTSUPP?$AA@ 0048c21c     ntecode.obj
 0003:0000222c       ??_C@_0L@IKIB@EOPNOTSUPP?$AA@ 0048c22c     ntecode.obj
 0003:00002238       ??_C@_0BD@BHGL@WSAESOCKTNOSUPPORT?$AA@ 0048c238     ntecode.obj
 0003:0000224c       ??_C@_0BA@FLIJ@ESOCKTNOSUPPORT?$AA@ 0048c24c     ntecode.obj
 0003:0000225c       ??_C@_0BD@NNFA@WSAEPROTONOSUPPORT?$AA@ 0048c25c     ntecode.obj
 0003:00002270       ??_C@_0BA@JBLC@EPROTONOSUPPORT?$AA@ 0048c270     ntecode.obj
 0003:00002280       ??_C@_0P@CMMD@WSAENOPROTOOPT?$AA@ 0048c280     ntecode.obj
 0003:00002290       ??_C@_0M@PFGD@ENOPROTOOPT?$AA@ 0048c290     ntecode.obj
 0003:0000229c       ??_C@_0O@MMIF@WSAEPROTOTYPE?$AA@ 0048c29c     ntecode.obj
 0003:000022ac       ??_C@_0L@GMGL@EPROTOTYPE?$AA@ 0048c2ac     ntecode.obj
 0003:000022b8       ??_C@_0M@EFDP@WSAEMSGSIZE?$AA@ 0048c2b8     ntecode.obj
 0003:000022c4       ??_C@_08BHCP@EMSGSIZE?$AA@ 0048c2c4     ntecode.obj
 0003:000022d0       ??_C@_0BA@LDNB@WSAEDESTADDRREQ?$AA@ 0048c2d0     ntecode.obj
 0003:000022e0       ??_C@_0N@IHAI@EDESTADDRREQ?$AA@ 0048c2e0     ntecode.obj
 0003:000022f0       ??_C@_0M@PLNC@WSAENOTSOCK?$AA@ 0048c2f0     ntecode.obj
 0003:000022fc       ??_C@_08KJMC@ENOTSOCK?$AA@ 0048c2fc     ntecode.obj
 0003:00002308       ??_C@_0M@FDKM@WSAEALREADY?$AA@ 0048c308     ntecode.obj
 0003:00002314       ??_C@_0P@DGNH@WSAEINPROGRESS?$AA@ 0048c314     ntecode.obj
 0003:00002324       ??_C@_0M@OPHH@EINPROGRESS?$AA@ 0048c324     ntecode.obj
 0003:00002330       ??_C@_0P@HEMP@WSAEWOULDBLOCK?$AA@ 0048c330     ntecode.obj
 0003:00002340       ??_C@_0M@KNGP@EWOULDBLOCK?$AA@ 0048c340     ntecode.obj
 0003:0000234c       ??_C@_09IMGE@WSAEMFILE?$AA@ 0048c34c     ntecode.obj
 0003:00002358       ??_C@_09COKE@WSAEINVAL?$AA@ 0048c358     ntecode.obj
 0003:00002364       ??_C@_09GNPN@WSAEFAULT?$AA@ 0048c364     ntecode.obj
 0003:00002370       ??_C@_09HMKF@WSAEACCES?$AA@ 0048c370     ntecode.obj
 0003:0000237c       ??_C@_08PJGE@WSAEBADF?$AA@ 0048c37c     ntecode.obj
 0003:00002388       ??_C@_08PLFD@WSAEINTR?$AA@ 0048c388     ntecode.obj
 0003:00002394       ??_C@_05EIPD@EINTR?$AA@    0048c394     ntecode.obj
 0003:0000239c       ??_C@_0BP@OOCN@ERROR_NO_BROWSER_SERVERS_FOUND?$AA@ 0048c39c     ntecode.obj
 0003:000023bc       ??_C@_0BE@OCEB@ERROR_DEVICE_IN_USE?$AA@ 0048c3bc     ntecode.obj
 0003:000023d0       ??_C@_0BB@DMEJ@ERROR_OPEN_FILES?$AA@ 0048c3d0     ntecode.obj
 0003:000023e4       ??_C@_0BE@GGCP@ERROR_NOT_CONNECTED?$AA@ 0048c3e4     ntecode.obj
 0003:000023f8       ??_C@_0BD@BBHN@ERROR_BAD_USERNAME?$AA@ 0048c3f8     ntecode.obj
 0003:0000240c       ??_C@_0BC@OJAL@EPT_S_CANT_CREATE?$AA@ 0048c40c     ntecode.obj
 0003:00002420       ??_C@_0BH@GJLC@ERROR_NOT_ENOUGH_QUOTA?$AA@ 0048c420     ntecode.obj
 0003:00002438       ??_C@_0BO@DPAF@ERROR_RESOURCE_LANG_NOT_FOUND?$AA@ 0048c438     ntecode.obj
 0003:00002458       ??_C@_0BO@BMIH@ERROR_RESOURCE_NAME_NOT_FOUND?$AA@ 0048c458     ntecode.obj
 0003:00002478       ??_C@_0BO@KNLF@ERROR_RESOURCE_TYPE_NOT_FOUND?$AA@ 0048c478     ntecode.obj
 0003:00002498       ??_C@_0BO@CIIH@ERROR_RESOURCE_DATA_NOT_FOUND?$AA@ 0048c498     ntecode.obj
 0003:000024b8       ??_C@_0BO@MOGP@ERROR_SERVER_HAS_OPEN_HANDLES?$AA@ 0048c4b8     ntecode.obj
 0003:000024d8       ??_C@_0CA@EIEN@ERROR_DOMAIN_TRUST_INCONSISTENT?$AA@ 0048c4d8     ntecode.obj
 0003:000024f8       ??_C@_0CD@GFAE@ERROR_NOLOGON_SERVER_TRUST_ACCOU@ 0048c4f8     ntecode.obj
 0003:0000251c       ??_C@_0CI@GDIM@ERROR_NOLOGON_WORKSTATION_TRUST_@ 0048c51c     ntecode.obj
 0003:00002544       ??_C@_0CI@LDGD@ERROR_NOLOGON_INTERDOMAIN_TRUST_@ 0048c544     ntecode.obj
 0003:0000256c       ??_C@_0BK@KGEK@ERROR_INVALID_ENVIRONMENT?$AA@ 0048c56c     ntecode.obj
 0003:00002588       ??_C@_0BH@BAPC@ERROR_INVALID_DATATYPE?$AA@ 0048c588     ntecode.obj
 0003:000025a0       ??_C@_0BO@GDBL@ERROR_INVALID_PRINTER_COMMAND?$AA@ 0048c5a0     ntecode.obj
 0003:000025c0       ??_C@_0BN@PHNO@ERROR_PRINTER_ALREADY_EXISTS?$AA@ 0048c5c0     ntecode.obj
 0003:000025e0       ??_C@_0BL@MOGB@ERROR_INVALID_PRINTER_NAME?$AA@ 0048c5e0     ntecode.obj
 0003:000025fc       ??_C@_0BH@COCL@ERROR_INVALID_PRIORITY?$AA@ 0048c5fc     ntecode.obj
 0003:00002614       ??_C@_0BN@DIFC@ERROR_INVALID_SEPARATOR_FILE?$AA@ 0048c614     ntecode.obj
 0003:00002634       ??_C@_0BN@HBGB@ERROR_UNKNOWN_PRINTPROCESSOR?$AA@ 0048c634     ntecode.obj
 0003:00002654       ??_C@_0BN@EKEG@ERROR_UNKNOWN_PRINTER_DRIVER?$AA@ 0048c654     ntecode.obj
 0003:00002674       ??_C@_0BD@ICDL@ERROR_UNKNOWN_PORT?$AA@ 0048c674     ntecode.obj
 0003:00002688       ??_C@_0CH@GNJN@ERROR_PRINTER_DRIVER_ALREADY_INS@ 0048c688     ntecode.obj
 0003:000026b0       ??_C@_0CC@JIOL@ERROR_REDIRECTOR_HAS_OPEN_HANDLE@ 0048c6b0     ntecode.obj
 0003:000026d4       ??_C@_0BG@NPNK@ERROR_ACCOUNT_EXPIRED?$AA@ 0048c6d4     ntecode.obj
 0003:000026ec       ??_C@_0BL@EJPL@ERROR_NETLOGON_NOT_STARTED?$AA@ 0048c6ec     ntecode.obj
 0003:00002708       ??_C@_0BE@ODNO@ERROR_TRUST_FAILURE?$AA@ 0048c708     ntecode.obj
 0003:0000271c       ??_C@_0CD@KOEI@ERROR_TRUSTED_RELATIONSHIP_FAILU@ 0048c71c     ntecode.obj
 0003:00002740       ??_C@_0BN@NHLD@ERROR_TRUSTED_DOMAIN_FAILURE?$AA@ 0048c740     ntecode.obj
 0003:00002760       ??_C@_0BL@HPMJ@ERROR_NO_TRUST_SAM_ACCOUNT?$AA@ 0048c760     ntecode.obj
 0003:0000277c       ??_C@_0BK@BBMB@ERROR_NO_TRUST_LSA_SECRET?$AA@ 0048c77c     ntecode.obj
 0003:00002798       ??_C@_0BJ@GNFB@ERROR_UNRECOGNIZED_MEDIA?$AA@ 0048c798     ntecode.obj
 0003:000027b4       ??_C@_0BK@OKCE@ERROR_INVALID_USER_BUFFER?$AA@ 0048c7b4     ntecode.obj
 0003:000027d0       ??_C@_0BF@HFAN@EPT_S_NOT_REGISTERED?$AA@ 0048c7d0     ntecode.obj
 0003:000027e8       ??_C@_0BG@EDFH@EPT_S_CANT_PERFORM_OP?$AA@ 0048c7e8     ntecode.obj
 0003:00002800       ??_C@_0BE@GAMJ@EPT_S_INVALID_ENTRY?$AA@ 0048c800     ntecode.obj
 0003:00002814       ??_C@_0BM@GOOO@ERROR_EVENTLOG_FILE_CORRUPT?$AA@ 0048c814     ntecode.obj
 0003:00002830       ??_C@_0BO@BJNG@ERROR_INVALID_SHOWWIN_COMMAND?$AA@ 0048c830     ntecode.obj
 0003:00002850       ??_C@_0BO@LONG@ERROR_INVALID_SCROLLBAR_RANGE?$AA@ 0048c850     ntecode.obj
 0003:00002870       ??_C@_0BE@KKBE@ERROR_NO_SCROLLBARS?$AA@ 0048c870     ntecode.obj
 0003:00002884       ??_C@_0BL@IIGG@ERROR_POPUP_ALREADY_ACTIVE?$AA@ 0048c884     ntecode.obj
 0003:000028a0       ??_C@_0BK@IHPP@ERROR_NON_MDICHILD_WINDOW?$AA@ 0048c8a0     ntecode.obj
 0003:000028bc       ??_C@_0BI@INMN@ERROR_INVALID_THREAD_ID?$AA@ 0048c8bc     ntecode.obj
 0003:000028d4       ??_C@_0BJ@CBCK@ERROR_INVALID_GW_COMMAND?$AA@ 0048c8d4     ntecode.obj
 0003:000028f0       ??_C@_0BH@DMJN@ERROR_NOT_CHILD_WINDOW?$AA@ 0048c8f0     ntecode.obj
 0003:00002908       ??_C@_0BN@HPAL@ERROR_HWNDS_HAVE_DIFF_PARENT?$AA@ 0048c908     ntecode.obj
 0003:00002928       ??_C@_0BM@DKLO@ERROR_SCREEN_ALREADY_LOCKED?$AA@ 0048c928     ntecode.obj
 0003:00002944       ??_C@_0BI@BJIG@ERROR_INVALID_SPI_VALUE?$AA@ 0048c944     ntecode.obj
 0003:0000295c       ??_C@_0BL@GFII@ERROR_INVALID_MSGBOX_STYLE?$AA@ 0048c95c     ntecode.obj
 0003:00002978       ??_C@_0BF@DBLM@ERROR_NO_SYSTEM_MENU?$AA@ 0048c978     ntecode.obj
 0003:00002990       ??_C@_0BI@DDEC@ERROR_CHILD_WINDOW_MENU?$AA@ 0048c990     ntecode.obj
 0003:000029a8       ??_C@_0CF@KGCF@ERROR_DESTROY_OBJECT_OF_OTHER_TH@ 0048c9a8     ntecode.obj
 0003:000029d0       ??_C@_0BK@CBPD@ERROR_LB_WITHOUT_TABSTOPS?$AA@ 0048c9d0     ntecode.obj
 0003:000029ec       ??_C@_0BJ@FAFC@ERROR_SETCOUNT_ON_BAD_LB?$AA@ 0048c9ec     ntecode.obj
 0003:00002a08       ??_C@_0BJ@FPJB@ERROR_INVALID_LB_MESSAGE?$AA@ 0048ca08     ntecode.obj
 0003:00002a24       ??_C@_0BJ@HBKF@ERROR_HOOK_NOT_INSTALLED?$AA@ 0048ca24     ntecode.obj
 0003:00002a40       ??_C@_0BH@OKBK@ERROR_JOURNAL_HOOK_SET?$AA@ 0048ca40     ntecode.obj
 0003:00002a58       ??_C@_0BH@GGEE@ERROR_GLOBAL_ONLY_HOOK?$AA@ 0048ca58     ntecode.obj
 0003:00002a70       ??_C@_0BG@CIOG@ERROR_HOOK_NEEDS_HMOD?$AA@ 0048ca70     ntecode.obj
 0003:00002a88       ??_C@_0BK@CDLB@ERROR_INVALID_FILTER_PROC?$AA@ 0048ca88     ntecode.obj
 0003:00002aa4       ??_C@_0BK@MGFC@ERROR_INVALID_HOOK_FILTER?$AA@ 0048caa4     ntecode.obj
 0003:00002ac0       ??_C@_0BD@EFAG@ERROR_DC_NOT_FOUND?$AA@ 0048cac0     ntecode.obj
 0003:00002ad4       ??_C@_0BK@LKDP@ERROR_INVALID_EDIT_HEIGHT?$AA@ 0048cad4     ntecode.obj
 0003:00002af0       ??_C@_0BK@GBLM@ERROR_WINDOW_NOT_COMBOBOX?$AA@ 0048caf0     ntecode.obj
 0003:00002b0c       ??_C@_0BP@JNE@ERROR_INVALID_COMBOBOX_MESSAGE?$AA@ 0048cb0c     ntecode.obj
 0003:00002b2c       ??_C@_0BL@HOOI@ERROR_CONTROL_ID_NOT_FOUND?$AA@ 0048cb2c     ntecode.obj
 0003:00002b48       ??_C@_0BI@DLFB@ERROR_WINDOW_NOT_DIALOG?$AA@ 0048cb48     ntecode.obj
 0003:00002b60       ??_C@_0BM@PEJI@ERROR_HOTKEY_NOT_REGISTERED?$AA@ 0048cb60     ntecode.obj
 0003:00002b7c       ??_C@_0BJ@IDFL@ERROR_CLIPBOARD_NOT_OPEN?$AA@ 0048cb7c     ntecode.obj
 0003:00002b98       ??_C@_0BN@FGMG@ERROR_NO_WILDCARD_CHARACTERS?$AA@ 0048cb98     ntecode.obj
 0003:00002bb8       ??_C@_0BL@IECA@ERROR_LISTBOX_ID_NOT_FOUND?$AA@ 0048cbb8     ntecode.obj
 0003:00002bd4       ??_C@_0BL@EELC@ERROR_PRIVATE_DIALOG_INDEX?$AA@ 0048cbd4     ntecode.obj
 0003:00002bf0       ??_C@_0BK@OABM@ERROR_INVALID_ICON_HANDLE?$AA@ 0048cbf0     ntecode.obj
 0003:00002c0c       ??_C@_0BE@KMNB@ERROR_INVALID_INDEX?$AA@ 0048cc0c     ntecode.obj
 0003:00002c20       ??_C@_0BI@COPP@ERROR_CLASS_HAS_WINDOWS?$AA@ 0048cc20     ntecode.obj
 0003:00002c38       ??_C@_0BL@JJ@ERROR_CLASS_DOES_NOT_EXIST?$AA@ 0048cc38     ntecode.obj
 0003:00002c54       ??_C@_0BL@HFBA@ERROR_CLASS_ALREADY_EXISTS?$AA@ 0048cc54     ntecode.obj
 0003:00002c70       ??_C@_0CA@FIND@ERROR_HOTKEY_ALREADY_REGISTERED?$AA@ 0048cc70     ntecode.obj
 0003:00002c90       ??_C@_0BN@CINC@ERROR_WINDOW_OF_OTHER_THREAD?$AA@ 0048cc90     ntecode.obj
 0003:00002cb0       ??_C@_0BM@HEIF@ERROR_CANNOT_FIND_WND_CLASS?$AA@ 0048ccb0     ntecode.obj
 0003:00002ccc       ??_C@_0BH@DCOE@ERROR_TLW_WITH_WSCHILD?$AA@ 0048cccc     ntecode.obj
 0003:00002ce4       ??_C@_0BJ@LENH@ERROR_INVALID_DWP_HANDLE?$AA@ 0048cce4     ntecode.obj
 0003:00002d00       ??_C@_0BK@CDBM@ERROR_INVALID_HOOK_HANDLE?$AA@ 0048cd00     ntecode.obj
 0003:00002d1c       ??_C@_0BL@BKBL@ERROR_INVALID_ACCEL_HANDLE?$AA@ 0048cd1c     ntecode.obj
 0003:00002d38       ??_C@_0BM@GLED@ERROR_INVALID_CURSOR_HANDLE?$AA@ 0048cd38     ntecode.obj
 0003:00002d54       ??_C@_0BK@LDAI@ERROR_INVALID_MENU_HANDLE?$AA@ 0048cd54     ntecode.obj
 0003:00002d70       ??_C@_0BM@FDDO@ERROR_INVALID_WINDOW_HANDLE?$AA@ 0048cd70     ntecode.obj
 0003:00002d8c       ??_C@_0BD@PKFE@ERROR_DISK_CORRUPT?$AA@ 0048cd8c     ntecode.obj
 0003:00002da0       ??_C@_0BD@JDAJ@ERROR_FILE_CORRUPT?$AA@ 0048cda0     ntecode.obj
 0003:00002db4       ??_C@_0BF@OPJD@ERROR_NO_INHERITANCE?$AA@ 0048cdb4     ntecode.obj
 0003:00002dcc       ??_C@_0CD@NKJA@ERROR_LM_CROSS_ENCRYPTION_REQUIR@ 0048cdcc     ntecode.obj
 0003:00002df0       ??_C@_0BE@BBOP@ERROR_TOO_MANY_SIDS?$AA@ 0048cdf0     ntecode.obj
 0003:00002e04       ??_C@_0BF@OEKJ@ERROR_INVALID_MEMBER?$AA@ 0048ce04     ntecode.obj
 0003:00002e1c       ??_C@_0BF@FBME@ERROR_NO_SUCH_MEMBER?$AA@ 0048ce1c     ntecode.obj
 0003:00002e34       ??_C@_0CD@OBH@ERROR_NT_CROSS_ENCRYPTION_REQUIR@ 0048ce34     ntecode.obj
 0003:00002e58       ??_C@_0BN@GGED@ERROR_LOGON_TYPE_NOT_GRANTED?$AA@ 0048ce58     ntecode.obj
 0003:00002e78       ??_C@_0BL@INCG@ERROR_TOO_MANY_CONTEXT_IDS?$AA@ 0048ce78     ntecode.obj
 0003:00002e94       ??_C@_0BI@HPEA@ERROR_INTERNAL_DB_ERROR?$AA@ 0048ce94     ntecode.obj
 0003:00002eac       ??_C@_0BG@LCLL@ERROR_SECRET_TOO_LONG?$AA@ 0048ceac     ntecode.obj
 0003:00002ec4       ??_C@_0BH@GELA@ERROR_TOO_MANY_SECRETS?$AA@ 0048cec4     ntecode.obj
 0003:00002edc       ??_C@_0BI@JCLG@ERROR_LOGON_NOT_GRANTED?$AA@ 0048cedc     ntecode.obj
 0003:00002ef4       ??_C@_0BD@BJPG@ERROR_ALIAS_EXISTS?$AA@ 0048cef4     ntecode.obj
 0003:00002f08       ??_C@_0BG@LHDP@ERROR_MEMBER_IN_ALIAS?$AA@ 0048cf08     ntecode.obj
 0003:00002f20       ??_C@_0BK@BDOO@ERROR_MEMBER_NOT_IN_ALIAS?$AA@ 0048cf20     ntecode.obj
 0003:00002f3c       ??_C@_0BE@PBOO@ERROR_NO_SUCH_ALIAS?$AA@ 0048cf3c     ntecode.obj
 0003:00002f50       ??_C@_0BL@KBLF@ERROR_TOKEN_ALREADY_IN_USE?$AA@ 0048cf50     ntecode.obj
 0003:00002f6c       ??_C@_0BM@PNKB@ERROR_MEMBERS_PRIMARY_GROUP?$AA@ 0048cf6c     ntecode.obj
 0003:00002f88       ??_C@_0BD@MCMB@ERROR_SPECIAL_USER?$AA@ 0048cf88     ntecode.obj
 0003:00002f9c       ??_C@_0BE@ELPC@ERROR_SPECIAL_GROUP?$AA@ 0048cf9c     ntecode.obj
 0003:00002fb0       ??_C@_0BG@EMBC@ERROR_SPECIAL_ACCOUNT?$AA@ 0048cfb0     ntecode.obj
 0003:00002fc8       ??_C@_0BL@DACA@ERROR_RXACT_COMMIT_FAILURE?$AA@ 0048cfc8     ntecode.obj
 0003:00002fe4       ??_C@_0BK@OMPN@ERROR_RXACT_INVALID_STATE?$AA@ 0048cfe4     ntecode.obj
 0003:00003000       ??_C@_0BJ@FHDC@ERROR_CANNOT_IMPERSONATE?$AA@ 0048d000     ntecode.obj
 0003:0000301c       ??_C@_0BJ@MKMN@ERROR_INVALID_LOGON_TYPE?$AA@ 0048d01c     ntecode.obj
 0003:00003038       ??_C@_0BO@CIBC@ERROR_LOGON_SESSION_COLLISION?$AA@ 0048d038     ntecode.obj
 0003:00003058       ??_C@_0BO@MNLC@ERROR_BAD_LOGON_SESSION_STATE?$AA@ 0048d058     ntecode.obj
 0003:00003078       ??_C@_0BG@MMCK@ERROR_NO_SUCH_PACKAGE?$AA@ 0048d078     ntecode.obj
 0003:00003090       ??_C@_0BL@CNFF@ERROR_LOGON_SESSION_EXISTS?$AA@ 0048d090     ntecode.obj
 0003:000030ac       ??_C@_0BI@ILKF@ERROR_NOT_LOGON_PROCESS?$AA@ 0048d0ac     ntecode.obj
 0003:000030c4       ??_C@_0BM@CNPI@ERROR_BAD_DESCRIPTOR_FORMAT?$AA@ 0048d0c4     ntecode.obj
 0003:000030e0       ??_C@_0BJ@HBLI@ERROR_GENERIC_NOT_MAPPED?$AA@ 0048d0e0     ntecode.obj
 0003:000030fc       ??_C@_0BF@MHFG@ERROR_INTERNAL_ERROR?$AA@ 0048d0fc     ntecode.obj
 0003:00003114       ??_C@_0BN@MLJJ@ERROR_INTERNAL_DB_CORRUPTION?$AA@ 0048d114     ntecode.obj
 0003:00003134       ??_C@_0BM@IION@ERROR_DOMAIN_LIMIT_EXCEEDED?$AA@ 0048d134     ntecode.obj
 0003:00003150       ??_C@_0BE@IMPA@ERROR_DOMAIN_EXISTS?$AA@ 0048d150     ntecode.obj
 0003:00003164       ??_C@_0BF@GGFE@ERROR_NO_SUCH_DOMAIN?$AA@ 0048d164     ntecode.obj
 0003:0000317c       ??_C@_0BK@LENE@ERROR_INVALID_DOMAIN_ROLE?$AA@ 0048d17c     ntecode.obj
 0003:00003198       ??_C@_0BL@MGCH@ERROR_INVALID_DOMAIN_STATE?$AA@ 0048d198     ntecode.obj
 0003:000031b4       ??_C@_0BL@JIBH@ERROR_INVALID_SERVER_STATE?$AA@ 0048d1b4     ntecode.obj
 0003:000031d0       ??_C@_0BO@NNFI@ERROR_CANT_ACCESS_DOMAIN_INFO?$AA@ 0048d1d0     ntecode.obj
 0003:000031f0       ??_C@_0BM@OFNI@ERROR_NO_SECURITY_ON_OBJECT?$AA@ 0048d1f0     ntecode.obj
 0003:0000320c       ??_C@_0BF@PBGJ@ERROR_BAD_TOKEN_TYPE?$AA@ 0048d20c     ntecode.obj
 0003:00003224       ??_C@_0BL@MBFB@ERROR_BAD_VALIDATION_CLASS?$AA@ 0048d224     ntecode.obj
 0003:00003240       ??_C@_0BK@FAOO@ERROR_CANT_OPEN_ANONYMOUS?$AA@ 0048d240     ntecode.obj
 0003:0000325c       ??_C@_0BO@EICJ@ERROR_BAD_IMPERSONATION_LEVEL?$AA@ 0048d25c     ntecode.obj
 0003:0000327c       ??_C@_0BP@NLFE@ERROR_INVALID_GROUP_ATTRIBUTES?$AA@ 0048d27c     ntecode.obj
 0003:0000329c       ??_C@_0BO@JJNC@ERROR_ALLOTTED_SPACE_EXCEEDED?$AA@ 0048d29c     ntecode.obj
 0003:000032bc       ??_C@_0BL@PBMD@ERROR_INVALID_ID_AUTHORITY?$AA@ 0048d2bc     ntecode.obj
 0003:000032d8       ??_C@_0BK@OADD@ERROR_SERVER_NOT_DISABLED?$AA@ 0048d2d8     ntecode.obj
 0003:000032f4       ??_C@_0BG@BHMN@ERROR_SERVER_DISABLED?$AA@ 0048d2f4     ntecode.obj
 0003:0000330c       ??_C@_0BK@NKOB@ERROR_BAD_INHERITANCE_ACL?$AA@ 0048d30c     ntecode.obj
 0003:00003328       ??_C@_0BN@JBMB@ERROR_INVALID_SECURITY_DESCR?$AA@ 0048d328     ntecode.obj
 0003:00003348       ??_C@_0BC@KKKB@ERROR_INVALID_SID?$AA@ 0048d348     ntecode.obj
 0003:0000335c       ??_C@_0BC@ODFP@ERROR_INVALID_ACL?$AA@ 0048d35c     ntecode.obj
 0003:00003370       ??_C@_0BM@NNMN@ERROR_INVALID_SUB_AUTHORITY?$AA@ 0048d370     ntecode.obj
 0003:0000338c       ??_C@_0BG@FPAN@ERROR_LUIDS_EXHAUSTED?$AA@ 0048d38c     ntecode.obj
 0003:000033a4       ??_C@_0BP@MJFC@ERROR_TOO_MANY_LUIDS_REQUESTED?$AA@ 0048d3a4     ntecode.obj
 0003:000033c4       ??_C@_0BC@IDIK@ERROR_NONE_MAPPED?$AA@ 0048d3c4     ntecode.obj
 0003:000033d8       ??_C@_0BH@JPEA@ERROR_ACCOUNT_DISABLED?$AA@ 0048d3d8     ntecode.obj
 0003:000033f0       ??_C@_0BH@OHHO@ERROR_PASSWORD_EXPIRED?$AA@ 0048d3f0     ntecode.obj
 0003:00003408       ??_C@_0BK@PHPA@ERROR_INVALID_WORKSTATION?$AA@ 0048d408     ntecode.obj
 0003:00003424       ??_C@_0BK@MHFE@ERROR_INVALID_LOGON_HOURS?$AA@ 0048d424     ntecode.obj
 0003:00003440       ??_C@_0BK@EOPD@ERROR_ACCOUNT_RESTRICTION?$AA@ 0048d440     ntecode.obj
 0003:0000345c       ??_C@_0BE@GHFM@ERROR_LOGON_FAILURE?$AA@ 0048d45c     ntecode.obj
 0003:00003470       ??_C@_0BL@BEC@ERROR_PASSWORD_RESTRICTION?$AA@ 0048d470     ntecode.obj
 0003:0000348c       ??_C@_0BK@PKAH@ERROR_ILL_FORMED_PASSWORD?$AA@ 0048d48c     ntecode.obj
 0003:000034a8       ??_C@_0BF@NCPG@ERROR_WRONG_PASSWORD?$AA@ 0048d4a8     ntecode.obj
 0003:000034c0       ??_C@_0BB@CIM@ERROR_LAST_ADMIN?$AA@ 0048d4c0     ntecode.obj
 0003:000034d4       ??_C@_0BK@FAKB@ERROR_MEMBER_NOT_IN_GROUP?$AA@ 0048d4d4     ntecode.obj
 0003:000034f0       ??_C@_0BG@PEHA@ERROR_MEMBER_IN_GROUP?$AA@ 0048d4f0     ntecode.obj
 0003:00003508       ??_C@_0BE@LCKB@ERROR_NO_SUCH_GROUP?$AA@ 0048d508     ntecode.obj
 0003:0000351c       ??_C@_0BD@CDHH@ERROR_GROUP_EXISTS?$AA@ 0048d51c     ntecode.obj
 0003:00003530       ??_C@_0BD@JBOM@ERROR_NO_SUCH_USER?$AA@ 0048d530     ntecode.obj
 0003:00003544       ??_C@_0BC@PBAL@ERROR_USER_EXISTS?$AA@ 0048d544     ntecode.obj
 0003:00003558       ??_C@_0BL@KOHD@ERROR_INVALID_ACCOUNT_NAME?$AA@ 0048d558     ntecode.obj
 0003:00003574       ??_C@_0BJ@BEAI@ERROR_PRIVILEGE_NOT_HELD?$AA@ 0048d574     ntecode.obj
 0003:00003590       ??_C@_0BI@HCNP@ERROR_NO_SUCH_PRIVILEGE?$AA@ 0048d590     ntecode.obj
 0003:000035a8       ??_C@_0BM@DILD@ERROR_NO_SUCH_LOGON_SESSION?$AA@ 0048d5a8     ntecode.obj
 0003:000035c4       ??_C@_0BH@NFPO@ERROR_NO_LOGON_SERVERS?$AA@ 0048d5c4     ntecode.obj
 0003:000035dc       ??_C@_0BN@BIAK@ERROR_CANT_DISABLE_MANDATORY?$AA@ 0048d5dc     ntecode.obj
 0003:000035fc       ??_C@_0BN@CAJD@ERROR_NO_IMPERSONATION_TOKEN?$AA@ 0048d5fc     ntecode.obj
 0003:0000361c       ??_C@_0BM@ILN@ERROR_INVALID_PRIMARY_GROUP?$AA@ 0048d61c     ntecode.obj
 0003:00003638       ??_C@_0BE@DOD@ERROR_INVALID_OWNER?$AA@ 0048d638     ntecode.obj
 0003:0000364c       ??_C@_0BI@OLJE@ERROR_REVISION_MISMATCH?$AA@ 0048d64c     ntecode.obj
 0003:00003664       ??_C@_0BH@KGGE@ERROR_UNKNOWN_REVISION?$AA@ 0048d664     ntecode.obj
 0003:0000367c       ??_C@_0BH@KBCA@ERROR_NULL_LM_PASSWORD?$AA@ 0048d67c     ntecode.obj
 0003:00003694       ??_C@_0BN@DEKC@ERROR_LOCAL_USER_SESSION_KEY?$AA@ 0048d694     ntecode.obj
 0003:000036b4       ??_C@_0BM@CPBI@ERROR_NO_QUOTAS_FOR_ACCOUNT?$AA@ 0048d6b4     ntecode.obj
 0003:000036d0       ??_C@_0BG@EGOO@ERROR_SOME_NOT_MAPPED?$AA@ 0048d6d0     ntecode.obj
 0003:000036e8       ??_C@_0BH@JKJL@ERROR_NOT_ALL_ASSIGNED?$AA@ 0048d6e8     ntecode.obj
 0003:00003700       ??_C@_0BB@KHHO@ERROR_NO_NETWORK?$AA@ 0048d700     ntecode.obj
 0003:00003714       ??_C@_0BF@MKND@ERROR_EXTENDED_ERROR?$AA@ 0048d714     ntecode.obj
 0003:0000372c       ??_C@_0BE@BJDN@ERROR_NOT_CONTAINER?$AA@ 0048d72c     ntecode.obj
 0003:00003740       ??_C@_0BC@OFPL@ERROR_BAD_PROFILE?$AA@ 0048d740     ntecode.obj
 0003:00003754       ??_C@_0BK@MNOM@ERROR_CANNOT_OPEN_PROFILE?$AA@ 0048d754     ntecode.obj
 0003:00003770       ??_C@_0BD@PIJL@ERROR_BAD_PROVIDER?$AA@ 0048d770     ntecode.obj
 0003:00003784       ??_C@_0BJ@HFGI@ERROR_NO_NET_OR_BAD_PATH?$AA@ 0048d784     ntecode.obj
 0003:000037a0       ??_C@_0CA@PLJ@ERROR_DEVICE_ALREADY_REMEMBERED?$AA@ 0048d7a0     ntecode.obj
 0003:000037c0       ??_C@_0BJ@CMAP@ERROR_CONNECTION_UNAVAIL?$AA@ 0048d7c0     ntecode.obj
 0003:000037dc       ??_C@_0BB@IMIJ@ERROR_BAD_DEVICE?$AA@ 0048d7dc     ntecode.obj
 0003:000037f0       ??_C@_0BA@HCCP@ERROR_IO_DEVICE?$AA@ 0048d7f0     ntecode.obj
 0003:00003800       ??_C@_0BO@JFJO@ERROR_NO_SHUTDOWN_IN_PROGRESS?$AA@ 0048d800     ntecode.obj
 0003:00003820       ??_C@_0BL@JJHF@ERROR_SHUTDOWN_IN_PROGRESS?$AA@ 0048d820     ntecode.obj
 0003:0000383c       ??_C@_0BG@BANG@ERROR_DLL_INIT_FAILED?$AA@ 0048d83c     ntecode.obj
 0003:00003854       ??_C@_0BN@FMBC@ERROR_NO_UNICODE_TRANSLATION?$AA@ 0048d854     ntecode.obj
 0003:00003874       ??_C@_0BN@NHMJ@ERROR_UNABLE_TO_UNLOAD_MEDIA?$AA@ 0048d874     ntecode.obj
 0003:00003894       ??_C@_0BL@PHGG@ERROR_UNABLE_TO_LOCK_MEDIA?$AA@ 0048d894     ntecode.obj
 0003:000038b0       ??_C@_0BN@LCFA@ERROR_DEVICE_NOT_PARTITIONED?$AA@ 0048d8b0     ntecode.obj
 0003:000038d0       ??_C@_0BL@PCDH@ERROR_INVALID_BLOCK_LENGTH?$AA@ 0048d8d0     ntecode.obj
 0003:000038ec       ??_C@_0BI@FEOB@ERROR_PARTITION_FAILURE?$AA@ 0048d8ec     ntecode.obj
 0003:00003904       ??_C@_0BH@KLGJ@ERROR_NO_DATA_DETECTED?$AA@ 0048d904     ntecode.obj
 0003:0000391c       ??_C@_0BH@KJBA@ERROR_SETMARK_DETECTED?$AA@ 0048d91c     ntecode.obj
 0003:00003934       ??_C@_0BI@DNLN@ERROR_FILEMARK_DETECTED?$AA@ 0048d934     ntecode.obj
 0003:0000394c       ??_C@_0BD@OPHK@ERROR_END_OF_MEDIA?$AA@ 0048d94c     ntecode.obj
 0003:00003960       ??_C@_0BG@LPFI@ERROR_NOTIFY_ENUM_DIR?$AA@ 0048d960     ntecode.obj
 0003:00003978       ??_C@_0BN@HHND@ERROR_CHILD_MUST_BE_VOLATILE?$AA@ 0048d978     ntecode.obj
 0003:00003998       ??_C@_0BH@KBIF@ERROR_KEY_HAS_CHILDREN?$AA@ 0048d998     ntecode.obj
 0003:000039b0       ??_C@_0BD@IMKL@ERROR_NO_LOG_SPACE?$AA@ 0048d9b0     ntecode.obj
 0003:000039c4       ??_C@_0BC@FFKF@ERROR_KEY_DELETED?$AA@ 0048d9c4     ntecode.obj
 0003:000039d8       ??_C@_0BI@MNBI@ERROR_NOT_REGISTRY_FILE?$AA@ 0048d9d8     ntecode.obj
 0003:000039f0       ??_C@_0BJ@OMON@ERROR_REGISTRY_IO_FAILED?$AA@ 0048d9f0     ntecode.obj
 0003:00003a0c       ??_C@_0BH@KIPK@ERROR_REGISTRY_CORRUPT?$AA@ 0048da0c     ntecode.obj
 0003:00003a24       ??_C@_0BJ@NCAA@ERROR_REGISTRY_RECOVERED?$AA@ 0048da24     ntecode.obj
 0003:00003a40       ??_C@_0BA@FEAL@ERROR_CANTWRITE?$AA@ 0048da40     ntecode.obj
 0003:00003a50       ??_C@_0P@DDMP@ERROR_CANTREAD?$AA@ 0048da50     ntecode.obj
 0003:00003a60       ??_C@_0P@JMHO@ERROR_CANTOPEN?$AA@ 0048da60     ntecode.obj
 0003:00003a70       ??_C@_0N@JGPN@ERROR_BADKEY?$AA@ 0048da70     ntecode.obj
 0003:00003a80       ??_C@_0M@ODNI@ERROR_BADDB?$AA@ 0048da80     ntecode.obj
 0003:00003a8c       ??_C@_0P@KOAI@ERROR_NO_TOKEN?$AA@ 0048da8c     ntecode.obj
 0003:00003a9c       ??_C@_0BG@HGGG@ERROR_FULLSCREEN_MODE?$AA@ 0048da9c     ntecode.obj
 0003:00003ab4       ??_C@_0BD@BGID@ERROR_FILE_INVALID?$AA@ 0048dab4     ntecode.obj
 0003:00003ac8       ??_C@_0BK@KJAO@ERROR_UNRECOGNIZED_VOLUME?$AA@ 0048dac8     ntecode.obj
 0003:00003ae4       ??_C@_0BE@BLLN@ERROR_INVALID_FLAGS?$AA@ 0048dae4     ntecode.obj
 0003:00003af8       ??_C@_0BH@FHME@ERROR_CAN_NOT_COMPLETE?$AA@ 0048daf8     ntecode.obj
 0003:00003b10       ??_C@_0BG@LAMP@ERROR_INVALID_MESSAGE?$AA@ 0048db10     ntecode.obj
 0003:00003b28       ??_C@_0BF@DNFM@ERROR_STACK_OVERFLOW?$AA@ 0048db28     ntecode.obj
 0003:00003b40       ??_C@_0BA@LECO@ERROR_SWAPERROR?$AA@ 0048db40     ntecode.obj
 0003:00003b50       ??_C@_0P@GFCL@ERROR_NOACCESS?$AA@ 0048db50     ntecode.obj
 0003:00003b60       ??_C@_0BB@JMJN@ERROR_IO_PENDING?$AA@ 0048db60     ntecode.obj
 0003:00003b74       ??_C@_0BE@BINI@ERROR_IO_INCOMPLETE?$AA@ 0048db74     ntecode.obj
 0003:00003b88       ??_C@_0BI@IPOF@ERROR_OPERATION_ABORTED?$AA@ 0048db88     ntecode.obj
 0003:00003ba0       ??_C@_0BH@FKCL@ERROR_EA_ACCESS_DENIED?$AA@ 0048dba0     ntecode.obj
 0003:00003bb8       ??_C@_0BF@DPPO@ERROR_PIPE_LISTENING?$AA@ 0048dbb8     ntecode.obj
 0003:00003bd0       ??_C@_0BF@EHNM@ERROR_PIPE_CONNECTED?$AA@ 0048dbd0     ntecode.obj
 0003:00003be8       ??_C@_0BK@OGFM@ERROR_ARITHMETIC_OVERFLOW?$AA@ 0048dbe8     ntecode.obj
 0003:00003c04       ??_C@_0BG@ICDC@ERROR_INVALID_ADDRESS?$AA@ 0048dc04     ntecode.obj
 0003:00003c1c       ??_C@_0BH@KJPA@ERROR_MR_MID_NOT_FOUND?$AA@ 0048dc1c     ntecode.obj
 0003:00003c34       ??_C@_0BA@CCBO@ERROR_NOT_OWNER?$AA@ 0048dc34     ntecode.obj
 0003:00003c44       ??_C@_0BI@JNKP@ERROR_EAS_NOT_SUPPORTED?$AA@ 0048dc44     ntecode.obj
 0003:00003c5c       ??_C@_0BI@CNFF@ERROR_INVALID_EA_HANDLE?$AA@ 0048dc5c     ntecode.obj
 0003:00003c74       ??_C@_0BE@CNKC@ERROR_EA_TABLE_FULL?$AA@ 0048dc74     ntecode.obj
 0003:00003c88       ??_C@_0BG@NEBI@ERROR_EA_FILE_CORRUPT?$AA@ 0048dc88     ntecode.obj
 0003:00003ca0       ??_C@_0BA@CDLE@ERROR_DIRECTORY?$AA@ 0048dca0     ntecode.obj
 0003:00003cb0       ??_C@_0BL@LFC@ERROR_EA_LIST_INCONSISTENT?$AA@ 0048dcb0     ntecode.obj
 0003:00003ccc       ??_C@_0BG@EEPH@ERROR_INVALID_EA_NAME?$AA@ 0048dccc     ntecode.obj
 0003:00003ce4       ??_C@_0BG@LKHH@ERROR_VC_DISCONNECTED?$AA@ 0048dce4     ntecode.obj
 0003:00003cfc       ??_C@_0BA@GDGE@ERROR_MORE_DATA?$AA@ 0048dcfc     ntecode.obj
 0003:00003d0c       ??_C@_0BJ@DONP@ERROR_PIPE_NOT_CONNECTED?$AA@ 0048dd0c     ntecode.obj
 0003:00003d28       ??_C@_0O@DPML@ERROR_NO_DATA?$AA@ 0048dd28     ntecode.obj
 0003:00003d38       ??_C@_0BA@FJEC@ERROR_PIPE_BUSY?$AA@ 0048dd38     ntecode.obj
 0003:00003d48       ??_C@_0P@FIDK@ERROR_BAD_PIPE?$AA@ 0048dd48     ntecode.obj
 0003:00003d58       ??_C@_0BK@NHDP@ERROR_NESTING_NOT_ALLOWED?$AA@ 0048dd58     ntecode.obj
 0003:00003d74       ??_C@_0BH@LMJP@ERROR_TOO_MANY_MODULES?$AA@ 0048dd74     ntecode.obj
 0003:00003d8c       ??_C@_0N@IAHE@ERROR_LOCKED?$AA@ 0048dd8c     ntecode.obj
 0003:00003d9c       ??_C@_0BI@BLBK@ERROR_THREAD_1_INACTIVE?$AA@ 0048dd9c     ntecode.obj
 0003:00003db4       ??_C@_0BM@GOBL@ERROR_INVALID_SIGNAL_NUMBER?$AA@ 0048ddb4     ntecode.obj
 0003:00003dd0       ??_C@_0BO@KDDO@ERROR_META_EXPANSION_TOO_LONG?$AA@ 0048ddd0     ntecode.obj
 0003:00003df0       ??_C@_0BJ@HJAO@ERROR_RING2_STACK_IN_USE?$AA@ 0048ddf0     ntecode.obj
 0003:00003e0c       ??_C@_0BL@BEPG@ERROR_FILENAME_EXCED_RANGE?$AA@ 0048de0c     ntecode.obj
 0003:00003e28       ??_C@_0BF@JGMG@ERROR_NO_SIGNAL_SENT?$AA@ 0048de28     ntecode.obj
 0003:00003e40       ??_C@_0BH@OGDG@ERROR_ENVVAR_NOT_FOUND?$AA@ 0048de40     ntecode.obj
 0003:00003e58       ??_C@_0BN@JKLJ@ERROR_INFLOOP_IN_RELOC_CHAIN?$AA@ 0048de58     ntecode.obj
 0003:00003e78       ??_C@_0BP@JNAK@ERROR_RELOC_CHAIN_XEEDS_SEGLIM?$AA@ 0048de78     ntecode.obj
 0003:00003e98       ??_C@_0BP@JKIL@ERROR_RING2SEG_MUST_BE_MOVABLE?$AA@ 0048de98     ntecode.obj
 0003:00003eb8       ??_C@_0BO@IEIC@ERROR_AUTODATASEG_EXCEEDS_64k?$AA@ 0048deb8     ntecode.obj
 0003:00003ed8       ??_C@_0BF@MGDK@ERROR_INVALID_SEGDPL?$AA@ 0048ded8     ntecode.obj
 0003:00003ef0       ??_C@_0BH@ILNL@ERROR_IOPL_NOT_ENABLED?$AA@ 0048def0     ntecode.obj
 0003:00003f08       ??_C@_0CA@BIOG@ERROR_DYNLINK_FROM_INVALID_RING?$AA@ 0048df08     ntecode.obj
 0003:00003f28       ??_C@_0BL@OOLH@ERROR_INVALID_MINALLOCSIZE?$AA@ 0048df28     ntecode.obj
 0003:00003f44       ??_C@_0CA@LPCE@ERROR_ITERATED_DATA_EXCEEDS_64k?$AA@ 0048df44     ntecode.obj
 0003:00003f64       ??_C@_0BF@LONG@ERROR_BAD_EXE_FORMAT?$AA@ 0048df64     ntecode.obj
 0003:00003f7c       ??_C@_0BJ@IAJO@ERROR_EXE_MARKED_INVALID?$AA@ 0048df7c     ntecode.obj
 0003:00003f98       ??_C@_0BM@GPCC@ERROR_INVALID_EXE_SIGNATURE?$AA@ 0048df98     ntecode.obj
 0003:00003fb4       ??_C@_0BJ@DFNF@ERROR_INVALID_MODULETYPE?$AA@ 0048dfb4     ntecode.obj
 0003:00003fd0       ??_C@_0BH@MDD@ERROR_INVALID_STACKSEG?$AA@ 0048dfd0     ntecode.obj
 0003:00003fe8       ??_C@_0BP@GCBC@ERROR_INVALID_STARTING_CODESEG?$AA@ 0048dfe8     ntecode.obj
 0003:00004008       ??_C@_0BE@BIJF@ERROR_SEM_NOT_FOUND?$AA@ 0048e008     ntecode.obj
 0003:0000401c       ??_C@_0BK@EFNB@ERROR_INVALID_FLAG_NUMBER?$AA@ 0048e01c     ntecode.obj
 0003:00004038       ??_C@_0BF@FLPL@ERROR_ALREADY_EXISTS?$AA@ 0048e038     ntecode.obj
 0003:00004050       ??_C@_0BG@KPDI@ERROR_INVALID_ORDINAL?$AA@ 0048e050     ntecode.obj
 0003:00004068       ??_C@_0BN@GCMG@ERROR_INVALID_SEGMENT_NUMBER?$AA@ 0048e068     ntecode.obj
 0003:00004088       ??_C@_0CB@IIEJ@ERROR_ATOMIC_LOCKS_NOT_SUPPORTED@ 0048e088     ntecode.obj
 0003:000040ac       ??_C@_0BH@FJMA@ERROR_CANCEL_VIOLATION?$AA@ 0048e0ac     ntecode.obj
 0003:000040c4       ??_C@_0L@KJCH@ERROR_BUSY?$AA@ 0048e0c4     ntecode.obj
 0003:000040d0       ??_C@_0BC@MOKI@ERROR_LOCK_FAILED?$AA@ 0048e0d0     ntecode.obj
 0003:000040e4       ??_C@_0BI@GAMP@ERROR_MAX_THRDS_REACHED?$AA@ 0048e0e4     ntecode.obj
 0003:000040fc       ??_C@_0BF@MGAG@ERROR_SIGNAL_PENDING?$AA@ 0048e0fc     ntecode.obj
 0003:00004114       ??_C@_0BD@EBAP@ERROR_BAD_PATHNAME?$AA@ 0048e114     ntecode.obj
 0003:00004128       ??_C@_0BE@HEMA@ERROR_BAD_ARGUMENTS?$AA@ 0048e128     ntecode.obj
 0003:0000413c       ??_C@_0BI@GGDG@ERROR_BAD_THREADID_ADDR?$AA@ 0048e13c     ntecode.obj
 0003:00004154       ??_C@_0BB@KAJF@ERROR_NOT_LOCKED?$AA@ 0048e154     ntecode.obj
 0003:00004168       ??_C@_0BA@HPDG@ERROR_DISCARDED?$AA@ 0048e168     ntecode.obj
 0003:00004178       ??_C@_0BF@IOJE@ERROR_SIGNAL_REFUSED?$AA@ 0048e178     ntecode.obj
 0003:00004190       ??_C@_0BE@KIDG@ERROR_TOO_MANY_TCBS?$AA@ 0048e190     ntecode.obj
 0003:000041a4       ??_C@_0BF@BJKB@ERROR_LABEL_TOO_LONG?$AA@ 0048e1a4     ntecode.obj
 0003:000041bc       ??_C@_0BK@GOME@ERROR_INVALID_LIST_FORMAT?$AA@ 0048e1bc     ntecode.obj
 0003:000041d8       ??_C@_0BK@HLAC@ERROR_TOO_MANY_MUXWAITERS?$AA@ 0048e1d8     ntecode.obj
 0003:000041f4       ??_C@_0BK@EJME@ERROR_INVALID_EVENT_COUNT?$AA@ 0048e1f4     ntecode.obj
 0003:00004210       ??_C@_0BD@JFOC@ERROR_SYSTEM_TRACE?$AA@ 0048e210     ntecode.obj
 0003:00004224       ??_C@_0BG@JNEG@ERROR_IS_SUBST_TARGET?$AA@ 0048e224     ntecode.obj
 0003:0000423c       ??_C@_0BA@MMEB@ERROR_PATH_BUSY?$AA@ 0048e23c     ntecode.obj
 0003:0000424c       ??_C@_0BD@NEHB@ERROR_IS_JOIN_PATH?$AA@ 0048e24c     ntecode.obj
 0003:00004260       ??_C@_0BE@GJAL@ERROR_IS_SUBST_PATH?$AA@ 0048e260     ntecode.obj
 0003:00004274       ??_C@_0BE@LGLF@ERROR_DIR_NOT_EMPTY?$AA@ 0048e274     ntecode.obj
 0003:00004288       ??_C@_0BD@JPCL@ERROR_DIR_NOT_ROOT?$AA@ 0048e288     ntecode.obj
 0003:0000429c       ??_C@_0BB@GMMO@ERROR_SAME_DRIVE?$AA@ 0048e29c     ntecode.obj
 0003:000042b0       ??_C@_0BB@GGFB@ERROR_BUSY_DRIVE?$AA@ 0048e2b0     ntecode.obj
 0003:000042c4       ??_C@_0BE@EKDO@ERROR_SUBST_TO_JOIN?$AA@ 0048e2c4     ntecode.obj
 0003:000042d8       ??_C@_0BE@BIAK@ERROR_JOIN_TO_SUBST?$AA@ 0048e2d8     ntecode.obj
 0003:000042ec       ??_C@_0BF@LHJK@ERROR_SUBST_TO_SUBST?$AA@ 0048e2ec     ntecode.obj
 0003:00004304       ??_C@_0BD@NKFP@ERROR_JOIN_TO_JOIN?$AA@ 0048e304     ntecode.obj
 0003:00004318       ??_C@_0BC@JMCC@ERROR_NOT_SUBSTED?$AA@ 0048e318     ntecode.obj
 0003:0000432c       ??_C@_0BB@KHCN@ERROR_NOT_JOINED?$AA@ 0048e32c     ntecode.obj
 0003:00004340       ??_C@_0BB@HOGD@ERROR_IS_SUBSTED?$AA@ 0048e340     ntecode.obj
 0003:00004354       ??_C@_0BA@OGKP@ERROR_IS_JOINED?$AA@ 0048e354     ntecode.obj
 0003:00004364       ??_C@_0BF@MHPK@ERROR_IS_JOIN_TARGET?$AA@ 0048e364     ntecode.obj
 0003:0000437c       ??_C@_0BF@MHEA@ERROR_SEEK_ON_DEVICE?$AA@ 0048e37c     ntecode.obj
 0003:00004394       ??_C@_0BE@NGMH@ERROR_NEGATIVE_SEEK?$AA@ 0048e394     ntecode.obj
 0003:000043a8       ??_C@_0BL@NMCA@ERROR_DIRECT_ACCESS_HANDLE?$AA@ 0048e3a8     ntecode.obj
 0003:000043c4       ??_C@_0BJ@DGPF@ERROR_CHILD_NOT_COMPLETE?$AA@ 0048e3c4     ntecode.obj
 0003:000043e0       ??_C@_0BH@OACN@ERROR_WAIT_NO_CHILDREN?$AA@ 0048e3e0     ntecode.obj
 0003:000043f8       ??_C@_0BF@LDMP@ERROR_PROC_NOT_FOUND?$AA@ 0048e3f8     ntecode.obj
 0003:00004410       ??_C@_0BE@GIDI@ERROR_MOD_NOT_FOUND?$AA@ 0048e410     ntecode.obj
 0003:00004424       ??_C@_0BG@NCEK@ERROR_NO_VOLUME_LABEL?$AA@ 0048e424     ntecode.obj
 0003:0000443c       ??_C@_0BE@EPGM@ERROR_INVALID_LEVEL?$AA@ 0048e43c     ntecode.obj
 0003:00004450       ??_C@_0BD@KOEB@ERROR_INVALID_NAME?$AA@ 0048e450     ntecode.obj
 0003:00004464       ??_C@_0BK@FBFE@ERROR_INSUFFICIENT_BUFFER?$AA@ 0048e464     ntecode.obj
 0003:00004480       ??_C@_0BC@LCEG@ERROR_SEM_TIMEOUT?$AA@ 0048e480     ntecode.obj
 0003:00004494       ??_C@_0BL@DJCC@ERROR_CALL_NOT_IMPLEMENTED?$AA@ 0048e494     ntecode.obj
 0003:000044b0       ??_C@_0BH@MPKM@ERROR_BAD_DRIVER_LEVEL?$AA@ 0048e4b0     ntecode.obj
 0003:000044c8       ??_C@_0BM@LDJM@ERROR_INVALID_VERIFY_SWITCH?$AA@ 0048e4c8     ntecode.obj
 0003:000044e4       ??_C@_0BH@OFKF@ERROR_INVALID_CATEGORY?$AA@ 0048e4e4     ntecode.obj
 0003:000044fc       ??_C@_0BM@EHIF@ERROR_INVALID_TARGET_HANDLE?$AA@ 0048e4fc     ntecode.obj
 0003:00004518       ??_C@_0BN@CNBA@ERROR_NO_MORE_SEARCH_HANDLES?$AA@ 0048e518     ntecode.obj
 0003:00004538       ??_C@_0BA@FFME@ERROR_DISK_FULL?$AA@ 0048e538     ntecode.obj
 0003:00004548       ??_C@_06GANK@EDQUOT?$AA@   0048e548     ntecode.obj
 0003:00004550       ??_C@_0BG@CENP@ERROR_BUFFER_OVERFLOW?$AA@ 0048e550     ntecode.obj
 0003:00004568       ??_C@_0BC@DJGF@ERROR_OPEN_FAILED?$AA@ 0048e568     ntecode.obj
 0003:0000457c       ??_C@_0BC@KOIG@ERROR_BROKEN_PIPE?$AA@ 0048e57c     ntecode.obj
 0003:00004590       ??_C@_0BD@BCBD@ERROR_DRIVE_LOCKED?$AA@ 0048e590     ntecode.obj
 0003:000045a4       ??_C@_0BC@PFIJ@ERROR_DISK_CHANGE?$AA@ 0048e5a4     ntecode.obj
 0003:000045b8       ??_C@_0BF@DDJE@ERROR_SEM_USER_LIMIT?$AA@ 0048e5b8     ntecode.obj
 0003:000045d0       ??_C@_0BF@GPG@ERROR_SEM_OWNER_DIED?$AA@ 0048e5d0     ntecode.obj
 0003:000045e8       ??_C@_0CA@CHBG@ERROR_INVALID_AT_INTERRUPT_TIME?$AA@ 0048e5e8     ntecode.obj
 0003:00004608       ??_C@_0BM@MLEA@ERROR_TOO_MANY_SEM_REQUESTS?$AA@ 0048e608     ntecode.obj
 0003:00004624       ??_C@_0BB@DNJG@ERROR_SEM_IS_SET?$AA@ 0048e624     ntecode.obj
 0003:00004638       ??_C@_0BN@KBEN@ERROR_EXCL_SEM_ALREADY_OWNED?$AA@ 0048e638     ntecode.obj
 0003:00004658       ??_C@_0BK@PCFG@ERROR_TOO_MANY_SEMAPHORES?$AA@ 0048e658     ntecode.obj
 0003:00004674       ??_C@_0BE@MAEM@ERROR_NO_PROC_SLOTS?$AA@ 0048e674     ntecode.obj
 0003:00004688       ??_C@_0BG@IADA@ERROR_NET_WRITE_FAULT?$AA@ 0048e688     ntecode.obj
 0003:000046a0       ??_C@_0BI@KAKI@ERROR_INVALID_PARAMETER?$AA@ 0048e6a0     ntecode.obj
 0003:000046b8       ??_C@_0BH@DNPH@ERROR_INVALID_PASSWORD?$AA@ 0048e6b8     ntecode.obj
 0003:000046d0       ??_C@_0BH@NADP@ERROR_ALREADY_ASSIGNED?$AA@ 0048e6d0     ntecode.obj
 0003:000046e8       ??_C@_08BLM@EALREADY?$AA@  0048e6e8     ntecode.obj
 0003:000046f4       ??_C@_0BI@LFNJ@ERROR_OUT_OF_STRUCTURES?$AA@ 0048e6f4     ntecode.obj
 0003:0000470c       ??_C@_0P@ICNA@ERROR_FAIL_I24?$AA@ 0048e70c     ntecode.obj
 0003:0000471c       ??_C@_0BC@MMGO@ERROR_CANNOT_MAKE?$AA@ 0048e71c     ntecode.obj
 0003:00004730       ??_C@_0BC@FBPM@ERROR_FILE_EXISTS?$AA@ 0048e730     ntecode.obj
 0003:00004744       ??_C@_0BD@LDB@ERROR_REDIR_PAUSED?$AA@ 0048e744     ntecode.obj
 0003:00004758       ??_C@_0BE@IAPN@ERROR_REQ_NOT_ACCEP?$AA@ 0048e758     ntecode.obj
 0003:0000476c       ??_C@_0BF@MFJC@ERROR_SHARING_PAUSED?$AA@ 0048e76c     ntecode.obj
 0003:00004784       ??_C@_0BE@MCPM@ERROR_TOO_MANY_SESS?$AA@ 0048e784     ntecode.obj
 0003:00004798       ??_C@_0BF@MMLC@ERROR_TOO_MANY_NAMES?$AA@ 0048e798     ntecode.obj
 0003:000047b0       ??_C@_0BD@OKIM@ERROR_BAD_NET_NAME?$AA@ 0048e7b0     ntecode.obj
 0003:000047c4       ??_C@_0BD@HNC@ERROR_BAD_DEV_TYPE?$AA@ 0048e7c4     ntecode.obj
 0003:000047d8       ??_C@_0BM@KLMN@ERROR_NETWORK_ACCESS_DENIED?$AA@ 0048e7d8     ntecode.obj
 0003:000047f4       ??_C@_0BG@DFNH@ERROR_NETNAME_DELETED?$AA@ 0048e7f4     ntecode.obj
 0003:0000480c       ??_C@_0BG@NGKI@ERROR_PRINT_CANCELLED?$AA@ 0048e80c     ntecode.obj
 0003:00004824       ??_C@_0BF@JJHB@ERROR_NO_SPOOL_SPACE?$AA@ 0048e824     ntecode.obj
 0003:0000483c       ??_C@_0BC@OGNN@ERROR_PRINTQ_FULL?$AA@ 0048e83c     ntecode.obj
 0003:00004850       ??_C@_0BD@OHCP@ERROR_BAD_REM_ADAP?$AA@ 0048e850     ntecode.obj
 0003:00004864       ??_C@_0BE@BNKH@ERROR_UNEXP_NET_ERR?$AA@ 0048e864     ntecode.obj
 0003:00004878       ??_C@_0BD@EJJG@ERROR_BAD_NET_RESP?$AA@ 0048e878     ntecode.obj
 0003:0000488c       ??_C@_0BD@PKOE@ERROR_ADAP_HDW_ERR?$AA@ 0048e88c     ntecode.obj
 0003:000048a0       ??_C@_0BE@MJE@ERROR_TOO_MANY_CMDS?$AA@ 0048e8a0     ntecode.obj
 0003:000048b4       ??_C@_0BE@PHKA@ERROR_DEV_NOT_EXIST?$AA@ 0048e8b4     ntecode.obj
 0003:000048c8       ??_C@_0BD@CIKJ@ERROR_NETWORK_BUSY?$AA@ 0048e8c8     ntecode.obj
 0003:000048dc       ??_C@_0BC@FPPF@ERROR_BAD_NETPATH?$AA@ 0048e8dc     ntecode.obj
 0003:000048f0       ??_C@_0P@BEEG@ERROR_DUP_NAME?$AA@ 0048e8f0     ntecode.obj
 0003:00004900       ??_C@_0BD@DHLJ@ERROR_REM_NOT_LIST?$AA@ 0048e900     ntecode.obj
 0003:00004914       ??_C@_0BE@NADH@ERROR_NOT_SUPPORTED?$AA@ 0048e914     ntecode.obj
 0003:00004928       ??_C@_0BH@BLHO@ERROR_HANDLE_DISK_FULL?$AA@ 0048e928     ntecode.obj
 0003:00004940       ??_C@_06CFPN@ENOLCK?$AA@   0048e940     ntecode.obj
 0003:00004948       ??_C@_0BB@LIBE@ERROR_HANDLE_EOF?$AA@ 0048e948     ntecode.obj
 0003:0000495c       ??_C@_0N@BEIO@ENAMETOOLONG?$AA@ 0048e95c     ntecode.obj
 0003:0000496c       ??_C@_0BO@IIOE@ERROR_SHARING_BUFFER_EXCEEDED?$AA@ 0048e96c     ntecode.obj
 0003:0000498c       ??_C@_07NBHL@EDEADLK?$AA@  0048e98c     ntecode.obj
 0003:00004994       ??_C@_0BB@NPMH@ERROR_WRONG_DISK?$AA@ 0048e994     ntecode.obj
 0003:000049a8       ??_C@_06GCG@ERANGE?$AA@    0048e9a8     ntecode.obj
 0003:000049b0       ??_C@_0BF@CCHH@ERROR_LOCK_VIOLATION?$AA@ 0048e9b0     ntecode.obj
 0003:000049c8       ??_C@_04KGHI@EDOM?$AA@     0048e9c8     ntecode.obj
 0003:000049d0       ??_C@_0BI@PJDD@ERROR_SHARING_VIOLATION?$AA@ 0048e9d0     ntecode.obj
 0003:000049e8       ??_C@_05KEO@EPIPE?$AA@     0048e9e8     ntecode.obj
 0003:000049f0       ??_C@_0BC@BHDK@ERROR_GEN_FAILURE?$AA@ 0048e9f0     ntecode.obj
 0003:00004a04       ??_C@_06EJHM@EMLINK?$AA@   0048ea04     ntecode.obj
 0003:00004a0c       ??_C@_0BB@NHCA@ERROR_READ_FAULT?$AA@ 0048ea0c     ntecode.obj
 0003:00004a20       ??_C@_05OHMJ@EROFS?$AA@    0048ea20     ntecode.obj
 0003:00004a28       ??_C@_0BC@JDJA@ERROR_WRITE_FAULT?$AA@ 0048ea28     ntecode.obj
 0003:00004a3c       ??_C@_06GDON@ESPIPE?$AA@   0048ea3c     ntecode.obj
 0003:00004a44       ??_C@_0BD@CEN@ERROR_OUT_OF_PAPER?$AA@ 0048ea44     ntecode.obj
 0003:00004a58       ??_C@_0BH@OJID@ERROR_SECTOR_NOT_FOUND?$AA@ 0048ea58     ntecode.obj
 0003:00004a70       ??_C@_05HKHE@EFBIG?$AA@    0048ea70     ntecode.obj
 0003:00004a78       ??_C@_0BD@GIO@ERROR_NOT_DOS_DISK?$AA@ 0048ea78     ntecode.obj
 0003:00004a8c       ??_C@_0L@BJDG@ERROR_SEEK?$AA@ 0048ea8c     ntecode.obj
 0003:00004a98       ??_C@_06GDIA@ENOTTY?$AA@   0048ea98     ntecode.obj
 0003:00004aa0       ??_C@_0BB@HNHE@ERROR_BAD_LENGTH?$AA@ 0048eaa0     ntecode.obj
 0003:00004ab4       ??_C@_09CCHD@ERROR_CRC?$AA@ 0048eab4     ntecode.obj
 0003:00004ac0       ??_C@_06EPLI@ENFILE?$AA@   0048eac0     ntecode.obj
 0003:00004ac8       ??_C@_0BC@FJGH@ERROR_BAD_COMMAND?$AA@ 0048eac8     ntecode.obj
 0003:00004adc       ??_C@_0BA@INCL@ERROR_NOT_READY?$AA@ 0048eadc     ntecode.obj
 0003:00004aec       ??_C@_06PABF@EISDIR?$AA@   0048eaec     ntecode.obj
 0003:00004af4       ??_C@_0P@JMPB@ERROR_BAD_UNIT?$AA@ 0048eaf4     ntecode.obj
 0003:00004b04       ??_C@_07OIDO@ENOTDIR?$AA@  0048eb04     ntecode.obj
 0003:00004b0c       ??_C@_0BE@FLKJ@ERROR_NO_MORE_FILES?$AA@ 0048eb0c     ntecode.obj
 0003:00004b20       ??_C@_05NKEH@EXDEV?$AA@    0048eb20     ntecode.obj
 0003:00004b28       ??_C@_0BG@CPAP@ERROR_NOT_SAME_DEVICE?$AA@ 0048eb28     ntecode.obj
 0003:00004b40       ??_C@_06LDOP@EEXIST?$AA@   0048eb40     ntecode.obj
 0003:00004b48       ??_C@_0BI@GJFL@ERROR_CURRENT_DIRECTORY?$AA@ 0048eb48     ntecode.obj
 0003:00004b60       ??_C@_05IACF@EBUSY?$AA@    0048eb60     ntecode.obj
 0003:00004b68       ??_C@_0BE@EBBO@ERROR_INVALID_DRIVE?$AA@ 0048eb68     ntecode.obj
 0003:00004b7c       ??_C@_06DPLE@ENODEV?$AA@   0048eb7c     ntecode.obj
 0003:00004b84       ??_C@_0BC@JCNA@ERROR_OUTOFMEMORY?$AA@ 0048eb84     ntecode.obj
 0003:00004b98       ??_C@_0BD@KNHO@ERROR_INVALID_DATA?$AA@ 0048eb98     ntecode.obj
 0003:00004bac       ??_C@_0BF@CDCL@ERROR_INVALID_ACCESS?$AA@ 0048ebac     ntecode.obj
 0003:00004bc4       ??_C@_0BB@BFAJ@ERROR_BAD_FORMAT?$AA@ 0048ebc4     ntecode.obj
 0003:00004bd8       ??_C@_07INNB@ENOEXEC?$AA@  0048ebd8     ntecode.obj
 0003:00004be0       ??_C@_0BG@NCLL@ERROR_BAD_ENVIRONMENT?$AA@ 0048ebe0     ntecode.obj
 0003:00004bf8       ??_C@_05EENK@E2BIG?$AA@    0048ebf8     ntecode.obj
 0003:00004c00       ??_C@_0BE@EAII@ERROR_INVALID_BLOCK?$AA@ 0048ec00     ntecode.obj
 0003:00004c14       ??_C@_0BI@GKDG@ERROR_NOT_ENOUGH_MEMORY?$AA@ 0048ec14     ntecode.obj
 0003:00004c2c       ??_C@_06PPGG@ENOMEM?$AA@   0048ec2c     ntecode.obj
 0003:00004c34       ??_C@_0BE@EKHP@ERROR_ARENA_TRASHED?$AA@ 0048ec34     ntecode.obj
 0003:00004c48       ??_C@_06EOEO@EFAULT?$AA@   0048ec48     ntecode.obj
 0003:00004c50       ??_C@_0BF@HLPG@ERROR_INVALID_HANDLE?$AA@ 0048ec50     ntecode.obj
 0003:00004c68       ??_C@_05EKME@EBADF?$AA@    0048ec68     ntecode.obj
 0003:00004c70       ??_C@_0BE@JEGM@ERROR_ACCESS_DENIED?$AA@ 0048ec70     ntecode.obj
 0003:00004c84       ??_C@_06FPBG@EACCES?$AA@   0048ec84     ntecode.obj
 0003:00004c8c       ??_C@_0BK@FKGC@ERROR_TOO_MANY_OPEN_FILES?$AA@ 0048ec8c     ntecode.obj
 0003:00004ca8       ??_C@_06KPNH@EMFILE?$AA@   0048eca8     ntecode.obj
 0003:00004cb0       ??_C@_0BF@DKIK@ERROR_PATH_NOT_FOUND?$AA@ 0048ecb0     ntecode.obj
 0003:00004cc8       ??_C@_0BF@NACG@ERROR_FILE_NOT_FOUND?$AA@ 0048ecc8     ntecode.obj
 0003:00004ce0       ??_C@_06LGCH@ENOENT?$AA@   0048ece0     ntecode.obj
 0003:00004ce8       ??_C@_0BH@HLGJ@ERROR_INVALID_FUNCTION?$AA@ 0048ece8     ntecode.obj
 0003:00004d00       ??_C@_06NBH@EINVAL?$AA@    0048ed00     ntecode.obj
 0003:00004d08       ??_C@_08NAEC@NO_ERROR?$AA@ 0048ed08     ntecode.obj
 0003:00004d14       ??_C@_04HCNF@Zero?$AA@     0048ed14     ntecode.obj
 0003:00004d1c       ??_C@_0BA@JAMM@NOSUPPORT_ERROR?$AA@ 0048ed1c     ntecode.obj
 0003:00004d2c       ??_C@_09NKMD@nosupport?$AA@ 0048ed2c     ntecode.obj
 0003:00004d38       ??_C@_0BA@DLOI@ALLOCFAIL_ERROR?$AA@ 0048ed38     ntecode.obj
 0003:00004d48       ??_C@_09NKKK@allocfail?$AA@ 0048ed48     ntecode.obj
 0003:00004d54       ??_C@_09JLDH@EOF_ERROR?$AA@ 0048ed54     ntecode.obj
 0003:00004d60       ??_C@_03HOJH@eof?$AA@      0048ed60     ntecode.obj
 0003:00004d64       ??_C@_0O@PMDD@UNKNOWN_ERROR?$AA@ 0048ed64     ntecode.obj
 0003:00004d74       ??_C@_07CAMD@unknown?$AA@  0048ed74     ntecode.obj
 0003:00004d7c       ??_C@_0O@FENH@BADARGS_ERROR?$AA@ 0048ed7c     ntecode.obj
 0003:00004d8c       ??_C@_07MINH@badargs?$AA@  0048ed8c     ntecode.obj
 0003:00004d94       ??_C@_0BE@IBHC@INAPPROPRIATE_ERROR?$AA@ 0048ed94     ntecode.obj
 0003:00004da8       ??_C@_0O@LICP@inappropriate?$AA@ 0048eda8     ntecode.obj
 0003:00004db8       ??_C@_06CPKN@ENOSPC?$AA@   0048edb8     ntecode.obj
 0003:00004dc0       ??_C@_03DCCA@EIO?$AA@      0048edc0     ntecode.obj
 0003:00004dc4       ??_C@_0BD@BFCL@ERROR_UNDOCUMENTED?$AA@ 0048edc4     ntecode.obj
 0003:00004dd8       ??_C@_0BA@BGB@Cancel?5to?5debug?$AA@ 0048edd8     nterror.obj
 0003:00004de8       ??_C@_07ILFI@?$CFhs?6?$CFhs?$AA@ 0048ede8     nterror.obj
 0003:00004df0       ??_C@_03DDND@?$CFhs?$AA@   0048edf0     nterror.obj
 0003:00004df4       ??_C@_02DILL@?$CFs?$AA@    0048edf4     nterror.obj
 0003:00004df8       ??_C@_04NOLC@?$CFs?5?6?$AA@ 0048edf8     nterror.obj
 0003:00004e00       ??_C@_03DDP@CON?$AA@       0048ee00     nterror.obj
 0003:00004e04       ??_C@_01LLF@w?$AA@         0048ee04     nterror.obj
 0003:00004e08       ??_C@_0N@PPNN@debuglog?4txt?$AA@ 0048ee08     nterror.obj
 0003:00004e18       ??_C@_01FNLH@a?$AA@        0048ee18     nterror.obj
 0003:00004e1c       ??_C@_0BG@OFPP@Invalid?5window?5handle?$AA@ 0048ee1c     ntevent.obj
 0003:00004e34       ??_C@_0BB@IMIB@WM_QUERYDRAGICON?$AA@ 0048ee34     ntevent.obj
 0003:00004e48       ??_C@_09BIOC@special?$CFd?$AA@ 0048ee48     ntfont.obj
 0003:00004e54       ??_C@_05GCGK@kanji?$AA@    0048ee54     ntfont.obj
 0003:00004e5c       ??_C@_03HJAP@oem?$AA@      0048ee5c     ntfont.obj
 0003:00004e60       ??_C@_06DDGG@symbol?$AA@   0048ee60     ntfont.obj
 0003:00004e68       ??_C@_04EHIG@ansi?$AA@     0048ee68     ntfont.obj
 0003:00004e70       ??_C@_0CH@GIEA@?$CF?$FL?$FO?$HO?$FN?$HO?$CFi?$HO?$CFi?$HO?$CFi?$HO?$CFi?$HO?$CFi?$HO?$CF?$FL?$FO?$HO?$FN?$HO?$CFi?$HO?$CFi@ 0048ee70     ntfont.obj
 0003:00004e98       ??_C@_06FIDL@?90?90?90?$AA@ 0048ee98     ntfont.obj
 0003:00004ea0       ??_C@_0BN@NDBM@?4?4?2?4?4?2?4?4?2src?2platpc?2ntfont?4c?$AA@ 0048eea0     ntfont.obj
 0003:00004ec0       ??_C@_06NILE@System?$AA@   0048eec0     ntfont.obj
 0003:00004ec8       ??_C@_00A@?$AA@            0048eec8     ntfont.obj
 0003:00004ecc       ??_C@_0BK@DJAO@?$CFhs?$HO?$CFi?$HO?$CFi?$HO?$CFi?$HO?$CFi?$HO?$CFi?$HO?$CFhs?$HO?$CFi?$AA@ 0048eecc     ntfont.obj
 0003:00004ee8       __real@4@3ffe8000000000000000 0048eee8     ntfont.obj
 0003:00004ef0       __real@8@00000000000000000000 0048eef0     ntgc.obj
 0003:00004ef8       __real@4@c0008000000000000000 0048eef8     ntgc.obj
 0003:00004efc       __real@4@3fff8000000000000000 0048eefc     ntgc.obj
 0003:00004f00       __real@4@3ff98efa2e0000000000 0048ef00     ntgc.obj
 0003:00004f04       ??_C@_0BL@IAIO@?4?4?2?4?4?2?4?4?2src?2platpc?2ntgc?4c?$AA@ 0048ef04     ntgc.obj
 0003:00004f20       ??_C@_0L@BIJD@MS?9Windows?$AA@ 0048ef20     ntgc.obj
 0003:0000572c       ??_C@_0BO@NDEI@?4?4?2?4?4?2?4?4?2src?2platpc?2ntgraph?4c?$AA@ 0048f72c     ntgraph.obj
 0003:00005750       __real@8@4006ff00000000000000 0048f750     ntgraph.obj
 0003:00005758       ??_C@_0CE@FLGM@Unsupported?5color?5depth?5for?5disp@ 0048f758     ntgraph.obj
 0003:0000577c       ??_C@_0BA@NPJO@GammaCorrection?$AA@ 0048f77c     ntgraph.obj
 0003:0000578c       ??_C@_0N@MOIB@UpdateColors?$AA@ 0048f78c     ntgraph.obj
 0003:0000579c       ??_C@_04KIKH@none?$AA@     0048f79c     ntherald.obj
 0003:000057a4       ??_C@_0L@KAIE@LogoBitmap?$AA@ 0048f7a4     ntherald.obj
 0003:000057b0       ??_C@_09MAAG@LogoSound?$AA@ 0048f7b0     ntherald.obj
 0003:000057bc       ??_C@_0BN@KJOB@Release?5identification?5codes?$AA@ 0048f7bc     ntherald.obj
 0003:000057dc       ??_C@_04GCKF@?$CFhs?6?$AA@ 0048f7dc     ntherald.obj
 0003:000057e4       ??_C@_0ME@NDGA@?$CFhs?6?$CFhs?6Release?5Identification?3?6@ 0048f7e4     ntherald.obj
 0003:000058a8       ??_C@_0ED@ICOD@Copyright?5?$CIc?$CJ?51999?92004?5Cincom?5S@ 0048f8a8     ntherald.obj
 0003:000058ec       ??_C@_0L@GEBJ@?5not?5found?$AA@ 0048f8ec     ntherald.obj
 0003:000058f8       ??_C@_09JELM@?6Bitmap?3?5?$AA@ 0048f8f8     ntherald.obj
 0003:00005904       ??_C@_0BO@DOFC@Couldn?8t?5init?5pixmap?5registry?$AA@ 0048f904     nthreg.obj
 0003:00005924       ??_C@_0BN@LCCF@?4?4?2?4?4?2?4?4?2src?2platpc?2nthreg?4c?$AA@ 0048f924     nthreg.obj
 0003:00005954       ??_C@_0BA@LJCP@GetMonitorInfoA?$AA@ 0048f954     ntmain.obj
 0003:00005964       ??_C@_0BE@KPOG@EnumDisplayMonitors?$AA@ 0048f964     ntmain.obj
 0003:00005978       ??_C@_0BB@GJCM@MonitorFromPoint?$AA@ 0048f978     ntmain.obj
 0003:0000598c       ??_C@_0BA@GOHF@MonitorFromRect?$AA@ 0048f98c     ntmain.obj
 0003:0000599c       ??_C@_0BC@COEH@MonitorFromWindow?$AA@ 0048f99c     ntmain.obj
 0003:000059b0       ??_C@_0BB@NDAA@GetSystemMetrics?$AA@ 0048f9b0     ntmain.obj
 0003:000059c4       ??_C@_06NEIN@USER32?$AA@   0048f9c4     ntmain.obj
 0003:000059cc       ??_C@_07LGIJ@DISPLAY?$AA@  0048f9cc     ntmain.obj
 0003:000059d4       ??_C@_07MJOI@Console?$AA@  0048f9d4     ntmain.obj
 0003:000059ec       ??_C@_06LCPM@VWNTOE?$AA@   0048f9ec     ntmain.obj
 0003:000059f4       ??_C@_03MGPP@?4IM?$AA@     0048f9f4     ntmain.obj
 0003:000059f8       ??_C@_01KPOD@?$DN?$AA@     0048f9f8     ntmain.obj
 0003:000059fc       ??_C@_0L@EGPH@herald?4wav?$AA@ 0048f9fc     ntmain.obj
 0003:00005a08       ??_C@_0L@GNFN@herald?4bmp?$AA@ 0048fa08     ntmain.obj
 0003:00005a14       ??_C@_05KME@OWST1?$AA@     0048fa14     ntmain.obj
 0003:00005a1c       ??_C@_0BJ@COPJ@MaxSaveHiddenWindowBytes?$AA@ 0048fa1c     ntmain.obj
 0003:00005a38       ??_C@_05KIMK@OWSTS?$AA@    0048fa38     ntmain.obj
 0003:00005a40       ??_C@_0BO@BFGA@couldn?8t?5VirtualAlloc?5memory?4?$AA@ 0048fa40     ntmem.obj
 0003:00005a60       ??_C@_0BO@OBPH@couldn?8t?5VirtualQuery?5memory?4?$AA@ 0048fa60     ntmem.obj
 0003:00005a80       ??_C@_0BN@KDFB@couldn?8t?5VirtualFree?5memory?4?$AA@ 0048fa80     ntmem.obj
 0003:00005aa0       ??_C@_0BM@FLPF@?4?4?2?4?4?2?4?4?2src?2platpc?2ntmem?4c?$AA@ 0048faa0     ntmem.obj
 0003:00005aec       ??_C@_0BC@CBGM@SendIMEMessageExA?$AA@ 0048faec     ntnls.obj
 0003:00005b00       ??_C@_0L@GPPP@imeSetArea?$AA@ 0048fb00     ntnls.obj
 0003:00005b0c       ??_C@_0L@BJMC@imeSetFont?$AA@ 0048fb0c     ntnls.obj
 0003:00005b18       ??_C@_0L@MPAB@imeSetRoot?$AA@ 0048fb18     ntnls.obj
 0003:00005b24       ??_C@_0L@OFON@imeSetSpot?$AA@ 0048fb24     ntnls.obj
 0003:00005b30       ??_C@_06IMLE@user32?$AA@   0048fb30     ntnls.obj
 0003:00005b38       ??_C@_0CG@BHFH@failed?5to?5lock?5virtual?5image?5res@ 0048fb38     ntfile.obj
 0003:00005b60       ??_C@_0CG@MBMH@failed?5to?5load?5virtual?5image?5res@ 0048fb60     ntfile.obj
 0003:00005b88       ??_C@_0BN@CKBL@?4?4?2?4?4?2?4?4?2src?2platpc?2ntfile?4c?$AA@ 0048fb88     ntfile.obj
 0003:00005ba8       ??_C@_0BD@MJJF@SnapshotFileShared?$AA@ 0048fba8     ntfile.obj
 0003:00005bbc       ??_C@_01FDHG@?$CK?$AA@     0048fbbc     ntfile.obj
 0003:00005bc0       ??_C@_01PCFE@?2?$AA@       0048fbc0     ntfile.obj
 0003:00005bc4       ??_C@_03GBEA@?$CD?3?2?$AA@ 0048fbc4     ntfile.obj
 0003:00005bc8       ??_C@_02BEKL@?$CD?3?$AA@   0048fbc8     ntfile.obj
 0003:00005bcc       ??_C@_03HDDO@FAT?$AA@      0048fbcc     ntfile.obj
 0003:00005bd0       ??_C@_0BF@KIDE@win32?5V?$CFd?4?$CFd?5?$CFs?5i386?$AA@ 0048fbd0     ntfile.obj
 0003:00005be8       ??_C@_02OHFO@95?$AA@       0048fbe8     ntfile.obj
 0003:00005bec       ??_C@_02EJFA@nt?$AA@       0048fbec     ntfile.obj
 0003:00005bf0       ??_C@_05JMGP@close?$AA@    0048fbf0     ntsock.obj
 0003:00005bf8       ??_C@_08DHEI@shutdown?$AA@ 0048fbf8     ntsock.obj
 0003:00005c04       ??_C@_0P@KNOI@WSAAsyncSelect?$AA@ 0048fc04     ntsock.obj
 0003:00005c14       ??_C@_0M@NJHJ@?$CFs?5err?3?5?$CFu?6?$AA@ 0048fc14     ntsock.obj
 0003:00005c20       ??_C@_08EMEN@?6recv?8d?6?$AA@ 0048fc20     ntsock.obj
 0003:00005c2c       ??_C@_0L@LCBG@?6recv?5err?6?$AA@ 0048fc2c     ntsock.obj
 0003:00005c38       ??_C@_06NCIH@?6sent?6?$AA@ 0048fc38     ntsock.obj
 0003:00005c40       ??_C@_0L@OBHC@?6send?5err?6?$AA@ 0048fc40     ntsock.obj
 0003:00005c4c       ??_C@_02GKKC@eW?$AA@       0048fc4c     ntsock.obj
 0003:00005c50       ??_C@_02GKGJ@eR?$AA@       0048fc50     ntsock.obj
 0003:00005c54       ??_C@_0CG@PNJJ@sockWSAEvent?3?5wParam?5?$DN?$CFx?0lParam?5@ 0048fc54     ntsock.obj
 0003:00005c7c       ??_C@_0O@DIB@?6signalError?6?$AA@ 0048fc7c     ntsock.obj
 0003:00005c8c       ??_C@_0L@KLBB@WSACleanup?$AA@ 0048fc8c     ntsock.obj
 0003:00005c98       ??_C@_01PIHH@?$CB?$AA@     0048fc98     ntsock.obj
 0003:00005c9c       ??_C@_0BA@GJAO@iRegistryXerror?$AA@ 0048fc9c     ntsock.obj
 0003:00005cac       ??_C@_01PJOB@?$CL?$AA@     0048fcac     ntsock.obj
 0003:00005cb0       ??_C@_01GJD@?9?$AA@        0048fcb0     ntsock.obj
 0003:00005cb4       ??_C@_02LHDD@?$CDR?$AA@    0048fcb4     ntsock.obj
 0003:00005cb8       ??_C@_02LHPI@?$CDW?$AA@    0048fcb8     ntsock.obj
 0003:00005cbc       ??_C@_0BN@NPAK@?4?4?2?4?4?2?4?4?2src?2platpc?2ntsock?4c?$AA@ 0048fcbc     ntsock.obj
 0003:00005cdc       ??_C@_09NDIA@recv?5err?6?$AA@ 0048fcdc     ntsock.obj
 0003:00005ce8       ??_C@_0BA@LJBI@GPNConnect?5?$CFld?6?$AA@ 0048fce8     ntsock.obj
 0003:00005cf8       ??_C@_0M@EGHG@?$CFu?4?$CFu?4?$CFu?4?$CFu?$AA@ 0048fcf8     ntsock.obj
 0003:00005d04       ??_C@_0P@LDON@PRINTER?5OUTPUT?$AA@ 0048fd04     ntplat.obj
 0003:00005d14       ??_C@_01LHO@r?$AA@         0048fd14     ntplat.obj
 0003:00005d18       ??_C@_0O@FLMC@initgraphics?6?$AA@ 0048fd18     ntplat.obj
 0003:00005d28       ??_C@_03OFLH@RAW?$AA@      0048fd28     ntplat.obj
 0003:00005d2c       ??_C@_0BC@PIGE@POSTSCRIPT?5OUTPUT?$AA@ 0048fd2c     ntplat.obj
 0003:00005d40       ??_C@_02JKAF@rb?$AA@       0048fd40     ntplat.obj
 0003:00005d44       ??_C@_0BO@KLAI@?4?4?2?4?4?2?4?4?2src?2platpc?2ntprint?4c?$AA@ 0048fd44     ntprint.obj
 0003:00005d64       ??_C@_0BM@JIFF@?4?4?2?4?4?2?4?4?2src?2platpc?2ntsem?4c?$AA@ 0048fd64     ntsem.obj
 0003:00005d80       ??_C@_0DI@DMID@No?5hires?5timer?5present?$DL?5can?8t?5pr@ 0048fd80     nttime.obj
 0003:00005db8       ??_C@_0BN@HOAL@?4?4?2?4?4?2?4?4?2src?2platpc?2nttime?4c?$AA@ 0048fdb8     nttime.obj
 0003:00005dd8       ??_C@_09LFPL@ISO8859L1?$AA@ 0048fdd8     ntwin.obj
 0003:00005de4       ??_C@_0BP@CHJH@?4?4?2?4?4?2?4?4?2src?2platpc?2ntcall16?4c?$AA@ 0048fde4     ntcall16.obj
 0003:00005e14       ??_C@_0BM@PKDE@?4?4?2?4?4?2?4?4?2src?2platpc?2ntcom?4c?$AA@ 0048fe14     ntcom.obj
 0003:00005e30       ??_C@_0BO@CABB@?4?4?2?4?4?2?4?4?2src?2platpc?2ntcallc?4c?$AA@ 0048fe30     ntcallc.obj
 0003:00005e6c       ??_C@_0P@DBLH@moduleUnloaded?$AA@ 0048fe6c     exBitBlt.obj
 0003:00005e7c       ??_C@_0BE@OHBA@primitiveDrawLoopXY?$AA@ 0048fe7c     exBitBlt.obj
 0003:00005e90       ??_C@_0P@PNAO@loadBitBltFrom?$AA@ 0048fe90     exBitBlt.obj
 0003:00005ea0       ??_C@_0BO@FHDO@primitiveCopyBitstranslucency?$AA@ 0048fea0     exBitBlt.obj
 0003:00005ec0       ??_C@_0BL@MMCA@primitiveWarpBitssmoothing?$AA@ 0048fec0     exBitBlt.obj
 0003:00005edc       ??_C@_0CO@LGCI@sourceBLTstridedeststridedxdysxs@ 0048fedc     exBitBlt.obj
 0003:00005f0c       ??_C@_08MBNG@copyBits?$AA@ 0048ff0c     exBitBlt.obj
 0003:00005f18       ??_C@_0DA@PLCH@primitiveDisplayStringstringfrom@ 0048ff18     exBitBlt.obj
 0003:00005f48       ??_C@_0BC@IBIO@primitiveCopyBits?$AA@ 0048ff48     exBitBlt.obj
 0003:00005f5c       ??_C@_0BB@DHCD@copyBitsFromtoat?$AA@ 0048ff5c     exBitBlt.obj
 0003:00005f70       ??_C@_0BB@CKDI@initialiseModule?$AA@ 0048ff70     exBitBlt.obj
 0003:00005f84       ??_C@_0O@PONB@getModuleName?$AA@ 0048ff84     exBitBlt.obj
 0003:00005f94       ??_C@_0N@CHMA@BitBltPlugin?$AA@ 0048ff94     exBitBlt.obj
 0003:00005fa4       ??_C@_0CE@DBJB@BitBltPlugin?5September?514?0?52004?5@ 0048ffa4     exBitBlt.obj
 0003:000060a8       __real@8@401dffffe38000000000 004900a8     exBitBlt.obj
 0003:000060b0       __real@8@c01dffffe38000000000 004900b0     exBitBlt.obj
 0003:000060b8       ??_C@_0O@KKKD@SurfacePlugin?$AA@ 004900b8     exBitBlt.obj
 0003:000060c8       ??_C@_0CA@ONMN@?4?4?2?4?4?2?4?4?2src?2ext?2BitBltPlugin?4c?$AA@ 004900c8     exBitBlt.obj
 0003:000060e8       ??_C@_0CL@JGEF@Attempted?5COM?5call?5prior?5to?5init@ 004900e8     exCOM.obj
 0003:00006114       ??_C@_0BJ@GBKB@?4?4?2?4?4?2?4?4?2src?2ext?2exCOM?4c?$AA@ 00490114     exCOM.obj
 0003:00006130       ??_C@_0DA@IAND@Attempted?5external?5call?5prior?5to@ 00490130     exCallC.obj
 0003:00006160       ??_C@_0BL@GECJ@?4?4?2?4?4?2?4?4?2src?2ext?2exCallC?4c?$AA@ 00490160     exCallC.obj
 0003:0000617c       ??_C@_0BH@FPP@unlinkedCall?5arguments?$AA@ 0049017c     exCallC.obj
 0003:00006194       ??_C@_0BN@JLDL@?4?4?2?4?4?2?4?4?2src?2ext?2exCallSup?4c?$AA@ 00490194     exCallSup.obj
 0003:000061b4       ??_C@_0BE@LJBF@windowLabelEncoding?$AA@ 004901b4     exEnviron.obj
 0003:000061c8       ??_C@_0BM@FEE@IEEEFloatingPointPrimitives?$AA@ 004901c8     exEnviron.obj
 0003:000061e4       ??_C@_0BI@KBIF@catchExternalCallErrors?$AA@ 004901e4     exEnviron.obj
 0003:000061fc       ??_C@_0BB@EMIE@acceptQuitEvents?$AA@ 004901fc     exEnviron.obj
 0003:00006210       ??_C@_0P@DKHP@sysOopRegistry?$AA@ 00490210     exEnviron.obj
 0003:00006220       ??_C@_09CJCC@imageName?$AA@ 00490220     exEnviron.obj
 0003:0000622c       ??_C@_0BC@FEOF@ScavengeSemaphore?$AA@ 0049022c     exEnviron.obj
 0003:00006240       ??_C@_04KGEB@IA32?$AA@     00490240     exEnviron.obj
 0003:00006248       ??_C@_03LDKN@ISA?$AA@      00490248     exEnviron.obj
 0003:0000624c       ??_C@_0BN@GAPI@?4?4?2?4?4?2?4?4?2src?2ext?2exEnviron?4c?$AA@ 0049024c     exEnviron.obj
 0003:0000626c       ??_C@_0BE@JIBJ@an?5arbitrary?5limit?5?$AA@ 0049026c     exError.obj
 0003:00006280       ??_C@_0BH@EIBB@a?5virtual?5machine?5bug?5?$AA@ 00490280     exError.obj
 0003:00006298       ??_C@_0O@KLLJ@the?5platform?5?$AA@ 00490298     exError.obj
 0003:000062a8       ??_C@_09LCGH@the?5user?5?$AA@ 004902a8     exError.obj
 0003:000062b4       ??_C@_06ECGB@Note?3?5?$AA@ 004902b4     exError.obj
 0003:000062bc       ??_C@_07MKMO@Error?3?5?$AA@ 004902bc     exError.obj
 0003:000062c4       ??_C@_0O@LMBL@Fatal?5error?3?5?$AA@ 004902c4     exError.obj
 0003:000062d4       ??_C@_0BO@KNAO@Space?5could?5not?5be?5allocated?4?$AA@ 004902d4     exError.obj
 0003:000062f4       ??_C@_0CG@NMPD@Insufficient?5memory?5to?5allocate?5@ 004902f4     exError.obj
 0003:0000631c       ??_C@_0DM@BFAO@Your?5image?5file?5is?5not?5compatibl@ 0049031c     exError.obj
 0003:00006358       ??_C@_0BC@HIPL@Can?8t?5load?5image?4?$AA@ 00490358     exError.obj
 0003:0000636c       ??_C@_0DG@FP@Unable?5to?5read?5the?5image?5file?4?5F@ 0049036c     exError.obj
 0003:000063a4       ??_C@_0P@PBOH@Out?5of?5memory?4?$AA@ 004903a4     exError.obj
 0003:000063b4       ??_C@_0BL@MHIL@Remembered?5table?5overflow?4?$AA@ 004903b4     exError.obj
 0003:000063d0       ??_C@_09PBIA@No?5error?4?$AA@ 004903d0     exError.obj
 0003:000063dc       ??_C@_0CB@LDAK@Please?5contact?5your?5distributor?4@ 004903dc     exError.obj
 0003:00006400       ??_C@_01PJCK@?4?$AA@       00490400     exError.obj
 0003:00006404       ??_C@_0M@GGAH@?5caused?5by?5?$AA@ 00490404     exError.obj
 0003:00006410       ??_C@_06EOPA@?$CFs?5?$CFd?6?$AA@ 00490410     exError.obj
 0003:00006418       ??_C@_03HHKO@?$CFs?6?$AA@  00490418     exError.obj
 0003:0000641c       ??_C@_0O@PDOM@unknown?5error?$AA@ 0049041c     exError.obj
 0003:0000642c       ??_C@_0P@DCIE@Can?8t?5open?5?$CFhs?$AA@ 0049042c     exInit.obj
 0003:0000643c       ??_C@_0BM@PONE@No?5image?5filename?5supplied?4?$AA@ 0049043c     exInit.obj
 0003:00006458       ??_C@_0BK@CBJF@?4?4?2?4?4?2?4?4?2src?2ext?2exInit?4c?$AA@ 00490458     exInit.obj
 0003:00006474       ??_C@_0CL@IAP@Can?8t?5access?5image?5resource?$DL?5err@ 00490474     exInit.obj
 0003:000064a0       ??_C@_0CI@OHJJ@platform?5has?5no?5translated?5float@ 004904a0     exInit.obj
 0003:000064c8       ??_C@_0DC@OAFH@?$CFsabling?5translated?5float?5prims?$DL@ 004904c8     exInit.obj
 0003:000064fc       ??_C@_03PCMF@dis?$AA@      004904fc     exInit.obj
 0003:00006500       ??_C@_02GPBN@en?$AA@       00490500     exInit.obj
 0003:00006504       ??_C@_0BE@KMOC@No?5room?5in?5registry?$AA@ 00490504     exInit.obj
 0003:00006518       ??_C@_0CL@OBAG@attempt?5to?5read?5past?5end?5of?5imag@ 00490518     exInit.obj
 0003:00006544       ??_C@_0CH@KGBD@read?5past?5end?5of?5compressed?5imag@ 00490544     exInit.obj
 0003:0000656c       ??_C@_0CL@KBMI@read?5past?5end?5of?5compressed?5imag@ 0049056c     exInit.obj
 0003:00006598       ??_C@_0CL@KOHK@compressed?5image?5data?5has?5incorr@ 00490598     exInit.obj
 0003:000065c4       ??_C@_0CD@CNHO@failed?5to?5initialize?5decompressi@ 004905c4     exInit.obj
 0003:000065e8       ??_C@_05IOHI@1?41?44?$AA@  004905e8     exInit.obj
 0003:000065f0       ??_C@_0CN@HEPF@failed?5to?5initialize?5decompressi@ 004905f0     exInit.obj
 0003:00006620       ??_C@_0CI@MPBH@Ran?5out?5of?5space?5while?5inflating@ 00490620     exInit.obj
 0003:00006648       ??_C@_0BE@IMJH@oeConflateInitAlloc?$AA@ 00490648     exInit.obj
 0003:0000665c       ??_C@_0BG@PCDJ@oeConflateInitHeapObj?$AA@ 0049065c     exInit.obj
 0003:00006674       ??_C@_0M@MKCL@zlibVersion?$AA@ 00490674     exInit.obj
 0003:00006680       ??_C@_06CKFI@zError?$AA@   00490680     exInit.obj
 0003:00006688       ??_C@_07JAMG@gzerror?$AA@  00490688     exInit.obj
 0003:00006690       ??_C@_07CCBF@gzclose?$AA@  00490690     exInit.obj
 0003:00006698       ??_C@_05NIEB@gzeof?$AA@    00490698     exInit.obj
 0003:000066a0       ??_C@_08HFBL@gzrewind?$AA@ 004906a0     exInit.obj
 0003:000066ac       ??_C@_06PG@gztell?$AA@     004906ac     exInit.obj
 0003:000066b4       ??_C@_06MFD@gzseek?$AA@    004906b4     exInit.obj
 0003:000066bc       ??_C@_07EDCE@gzflush?$AA@  004906bc     exInit.obj
 0003:000066c4       ??_C@_06OEIB@gzgetc?$AA@   004906c4     exInit.obj
 0003:000066cc       ??_C@_06GKHE@gzputc?$AA@   004906cc     exInit.obj
 0003:000066d4       ??_C@_06ENPB@gzgets?$AA@   004906d4     exInit.obj
 0003:000066dc       ??_C@_06MDAE@gzputs?$AA@   004906dc     exInit.obj
 0003:000066e4       ??_C@_08IFEO@gzprintf?$AA@ 004906e4     exInit.obj
 0003:000066f0       ??_C@_07INKK@gzwrite?$AA@  004906f0     exInit.obj
 0003:000066f8       ??_C@_06HCPG@gzread?$AA@   004906f8     exInit.obj
 0003:00006700       ??_C@_0M@HBBM@gzsetparams?$AA@ 00490700     exInit.obj
 0003:0000670c       ??_C@_07JEPA@gzdopen?$AA@  0049070c     exInit.obj
 0003:00006714       ??_C@_06NNEH@gzopen?$AA@   00490714     exInit.obj
 0003:0000671c       ??_C@_0BB@BOKL@inflateSyncPoint?$AA@ 0049071c     exInit.obj
 0003:00006730       ??_C@_0M@HIBD@inflateSync?$AA@ 00490730     exInit.obj
 0003:0000673c       ??_C@_0BF@EMON@inflateSetDictionary?$AA@ 0049073c     exInit.obj
 0003:00006754       ??_C@_0N@FLME@inflateReset?$AA@ 00490754     exInit.obj
 0003:00006764       ??_C@_0O@KGCD@inflateInit2_?$AA@ 00490764     exInit.obj
 0003:00006774       ??_C@_0N@GNKC@inflateInit_?$AA@ 00490774     exInit.obj
 0003:00006784       ??_C@_0L@ENML@inflateEnd?$AA@ 00490784     exInit.obj
 0003:00006790       ??_C@_07IAGA@inflate?$AA@  00490790     exInit.obj
 0003:00006798       ??_C@_0BF@ONIK@deflateSetDictionary?$AA@ 00490798     exInit.obj
 0003:000067b0       ??_C@_0N@IFDO@deflateReset?$AA@ 004907b0     exInit.obj
 0003:000067c0       ??_C@_0O@HAOG@deflateParams?$AA@ 004907c0     exInit.obj
 0003:000067d0       ??_C@_0O@OAPN@deflateInit2_?$AA@ 004907d0     exInit.obj
 0003:000067e0       ??_C@_0N@LDFI@deflateInit_?$AA@ 004907e0     exInit.obj
 0003:000067f0       ??_C@_0L@NHIL@deflateEnd?$AA@ 004907f0     exInit.obj
 0003:000067fc       ??_C@_0M@BKFB@deflateCopy?$AA@ 004907fc     exInit.obj
 0003:00006808       ??_C@_07HDOP@deflate?$AA@  00490808     exInit.obj
 0003:00006810       ??_C@_0O@FCFC@get_crc_table?$AA@ 00490810     exInit.obj
 0003:00006820       ??_C@_05BHCN@crc32?$AA@    00490820     exInit.obj
 0003:00006828       ??_C@_07HJNK@adler32?$AA@  00490828     exInit.obj
 0003:00006830       ??_C@_0BK@OIPL@Can?8t?5pdAlloc?5event?5queue?$AA@ 00490830     exInQueue.obj
 0003:0000684c       ??_C@_0BN@PAHC@?4?4?2?4?4?2?4?4?2src?2ext?2exInQueue?4c?$AA@ 0049084c     exInQueue.obj
 0003:0000686c       ??_C@_0BB@GKLA@dump?5on?5vmExit?3?6?$AA@ 0049086c     exLeave.obj
 0003:00006880       ??_C@_0BN@NBK@?4?4?2?4?4?2?4?4?2src?2ext?2exMessage?4c?$AA@ 00490880     exMessage.obj
 0003:000068a0       ??_C@_0BE@NJJA@No?5such?5option?5?8?$CFc?8?$AA@ 004908a0     exOption.obj
 0003:000068b4       ??_C@_07MHLD@options?$AA@  004908b4     exOption.obj
 0003:000068bc       ??_C@_0CC@EBJM@Image?5filename?5already?5specified@ 004908bc     exOption.obj
 0003:000068e0       ??_C@_0BM@CHIO@?4?4?2?4?4?2?4?4?2src?2ext?2exOption?4c?$AA@ 004908e0     exOption.obj
 0003:000068fc       ??_C@_0BF@ODGB@size?5of?5nmethod?5zone?$AA@ 004908fc     exOption.obj
 0003:00006914       ??_C@_07LILO@alltime?$AA@  00490914     exOption.obj
 0003:0000691c       ??_C@_04DCJA@ound?$AA@     0049091c     exOption.obj
 0003:00006924       ??_C@_06EEDI@osound?$AA@   00490924     exOption.obj
 0003:0000692c       ??_C@_07CPIF@oherald?$AA@  0049092c     exOption.obj
 0003:00006934       ??_C@_05CMEF@ologo?$AA@    00490934     exOption.obj
 0003:0000693c       ??_C@_03BHE@ogo?$AA@       0049093c     exOption.obj
 0003:00006940       ??_C@_05OIPI@eeefp?$AA@    00490940     exOption.obj
 0003:00006948       ??_C@_0BG@MF@excess?5mbytes?5in?5heap?$AA@ 00490948     exOption.obj
 0003:00006960       ??_C@_0BI@GOON@Missing?5argument?5to?5?9?$CFs?$AA@ 00490960     exOption.obj
 0003:00006978       ??_C@_06BPDO@onsole?$AA@   00490978     exOption.obj
 0003:00006980       ??_C@_0DP@ECGO@Can?8t?5set?5option?5?8?$CFc?8?5?$CI?$CFs?$CJ?5to?5?$CFd@ 00490980     exOption.obj
 0003:000069c0       ??_C@_0DB@BINE@Option?5?8?$CFc?8?5?$CI?$CFs?$CJ?5badly?5formed?5op@ 004909c0     exOption.obj
 0003:000069f4       ??_C@_0EHG@DPNG@?6Engine?5Options?3?6?6?9console?7open?5@ 004909f4     exOption.obj
 0003:00006e6c       ??_C@_0MF@LMIO@usage?3?5?$CFs?5?9console?5?9h?5bytes?5?9iee@ 00490e6c     exOption.obj
 0003:00006f34       ??_C@_0BO@JMEL@?4?4?2?4?4?2?4?4?2src?2ext?2exPrimUtil?4c?$AA@ 00490f34     exPrimUtil.obj
 0003:00006f54       ??_C@_0BO@LMFB@Unable?5to?5set?5feasible?5timer?$CB?$AA@ 00490f54     exTimer.obj
 0003:00006f74       ??_C@_0BL@HHNE@?4?4?2?4?4?2?4?4?2src?2ext?2exTimer?4c?$AA@ 00490f74     exTimer.obj
 0003:00006f90       ??_C@_0CF@MNAN@Couldn?8t?5allocate?5NBAPI?5sysOop?5s@ 00490f90     exThapi.obj
 0003:00006fb8       ??_C@_0CB@PPNG@Coudn?8t?5allocate?5NBAPI?5oopTables@ 00490fb8     exThapi.obj
 0003:00006fdc       ??_C@_0BL@MBBE@?4?4?2?4?4?2?4?4?2src?2ext?2exThapi?4c?$AA@ 00490fdc     exThapi.obj
 0003:00006ff8       ??_C@_0BB@CGOL@ReleaseSemaphore?$AA@ 00490ff8     exThapi.obj
 0003:0000700c       ??_C@_0BG@LIHN@ReallyKillOtherThread?$AA@ 0049100c     exThapi.obj
 0003:00007024       ??_C@_0BE@FJBF@WaitForSingleObject?$AA@ 00491024     exThapi.obj
 0003:00007038       ??_C@_0M@GPEK@CloseHandle?$AA@ 00491038     exThapi.obj
 0003:00007054       ??_C@_0BN@CFFM@THAPI?3?5?$CFs?5?$CI?$CFld?3?$CFs?$CJ?5?$CI?$CFs?5?$CFld?$CJ?6?$AA@ 00491054     exThapi.obj
 0003:00007074       ??_C@_0BC@OFHG@SetThreadPriority?$AA@ 00491074     exThapi.obj
 0003:00007088       ??_C@_0P@CDHG@_beginthreadex?$AA@ 00491088     exThapi.obj
 0003:00007098       ??_C@_0BA@IBPC@CreateSemaphore?$AA@ 00491098     exThapi.obj
 0003:000070a8       ??_C@_07CNPM@UNKNOWN?$AA@  004910a8     exThapi.obj
 0003:000070b0       ??_C@_04CINP@Dead?$AA@     004910b0     exThapi.obj
 0003:000070b8       ??_C@_05DHKA@Dying?$AA@    004910b8     exThapi.obj
 0003:000070c0       ??_C@_0O@BNIH@ReturningBack?$AA@ 004910c0     exThapi.obj
 0003:000070d0       ??_C@_0M@GLOC@CallingBack?$AA@ 004910d0     exThapi.obj
 0003:000070dc       ??_C@_09GLBK@Returning?$AA@ 004910dc     exThapi.obj
 0003:000070e8       ??_C@_07EIGA@Calling?$AA@  004910e8     exThapi.obj
 0003:000070f0       ??_C@_09EIJE@Quiescent?$AA@ 004910f0     exThapi.obj
 0003:000070fc       ??_C@_07JFID@Nascent?$AA@  004910fc     exThapi.obj
 0003:00007104       ??_C@_09OJMF@freelance?$AA@ 00491104     exThapi.obj
 0003:00007110       ??_C@_04FFPJ@tied?$AA@     00491110     exThapi.obj
 0003:00007118       ??_C@_07EPGF@foreign?$AA@  00491118     exThapi.obj
 0003:00007120       ??_C@_0JI@NLLI@?$CFs?5thread?5?$CFul?$CI?$CFlx?$CJ?5tinfo?50x?$CFlx?7?$CF@ 00491120     exThapi.obj
 0003:000071b8       ??_C@_0M@GFHH@not?5waiting?$AA@ 004911b8     exThapi.obj
 0003:000071c4       ??_C@_07JGNJ@waiting?$AA@  004911c4     exThapi.obj
 0003:000071cc       ??_C@_01BJG@?6?$AA@        004911cc     exThapi.obj
 0003:000071d0       ??_C@_0BH@MNHN@?6Active?5threads?5list?3?6?$AA@ 004911d0     exThapi.obj
 0003:000071e8       ??_C@_0BK@LBEK@?6Unattached?5tinfos?5list?3?6?$AA@ 004911e8     exThapi.obj
 0003:00007204       ??_C@_0DP@IAKJ@nil?3?5?$CFlx?5?5NBAPITableIndex?3?5?$CFlx?7s@ 00491204     exThapi.obj
 0003:00007244       ??_C@_0CB@IHNF@?4?4?2?4?4?2?4?4?2src?2prim?2prArithmetic?4c@ 00491244     prArithmetic.obj
 0003:00007268       __real@8@40008000000000000000 00491268     prDouble.obj
 0003:00007270       __real@4@40008000000000000000 00491270     prFloat.obj
 0003:00007274       __real@4@00000000000000000000 00491274     prFloat.obj
 0003:00007278       ??_C@_09OEJG@overflow?6?$AA@ 00491278     prLarge.obj
 0003:00007284       ??_C@_0BN@NOJM@Can?8t?5allocate?5enough?5memory?$AA@ 00491284     prLinkRegistry.obj
 0003:000072a4       ??_C@_0CD@NLPJ@?4?4?2?4?4?2?4?4?2src?2prim?2prLinkRegistry@ 004912a4     prLinkRegistry.obj
 0003:000072c8       ??_C@_0BH@LBEL@?4?4?2?4?4?2?4?4?2src?2mman?2mm?4c?$AA@ 004912c8     mm.obj
 0003:000072e0       ??_C@_0BP@JCDO@?4?4?2?4?4?2?4?4?2src?2mman?2mmAllocate?4c?$AA@ 004912e0     mmAllocate.obj
 0003:00007300       ??_C@_0BN@MMNC@?4?4?2?4?4?2?4?4?2src?2mman?2mmBecome?4c?$AA@ 00491300     mmBecome.obj
 0003:00007320       ??_C@_0BA@INIE@hasPtrs?5?$DN?5?5?$CFld?6?$AA@ 00491320     mmDebug.obj
 0003:00007330       ??_C@_0BJ@BKFO@ephemeronNotWeak?5?$DN?5?5?$CFld?6?$AA@ 00491330     mmDebug.obj
 0003:0000734c       ??_C@_0BE@LEOA@isGCSpecial?5?$DN?5?5?$CFld?6?$AA@ 0049134c     mmDebug.obj
 0003:00007360       ??_C@_0BC@MGBE@isInOldRt?5?$DN?5?5?$CFld?6?$AA@ 00491360     mmDebug.obj
 0003:00007374       ??_C@_0BE@PDGE@isImmutable?5?$DN?5?5?$CFld?6?$AA@ 00491374     mmDebug.obj
 0003:00007388       ??_C@_0BB@JIBG@isMarked?5?$DN?5?5?$CFld?6?$AA@ 00491388     mmDebug.obj
 0003:0000739c       ??_C@_0N@LGHL@inRt?5?$DN?5?5?$CFld?6?$AA@ 0049139c     mmDebug.obj
 0003:000073ac       ??_C@_0BD@LJNM@hash?5?$DN?5?5?$CFld?50x?$CFlx?6?$AA@ 004913ac     mmDebug.obj
 0003:000073c0       ??_C@_0BK@PFGO@?7bodySize?5?$DN?5?5?$CFld?50x?$CFlx?$CFs?6?$AA@ 004913c0     mmDebug.obj
 0003:000073dc       ??_C@_0M@MCPH@?5?$CIextended?$CJ?$AA@ 004913dc     mmDebug.obj
 0003:000073e8       ??_C@_0CJ@MJMN@size?5?$DN?5?5?$CFld?50x?$CFlx?5?$CIsizeField?3?5?$CFl@ 004913e8     mmDebug.obj
 0003:00007414       ??_C@_0BB@BLBH@flags?5?$DN?50x?$CF08lx?6?$AA@ 00491414     mmDebug.obj
 0003:00007428       ??_C@_0BA@BELP@class?5?$DN?5?50x?$CFlx?6?$AA@ 00491428     mmDebug.obj
 0003:00007438       ??_C@_0BC@DLGH@bodyPtr?5?$DN?5?50x?$CFlx?6?$AA@ 00491438     mmDebug.obj
 0003:0000744c       ??_C@_0CI@MKKP@?6dataPtr?5?$DN?5?50x?$CFlx?5?$CFs?5?$CIbodyPtr?5?$DN?5@ 0049144c     mmDebug.obj
 0003:00007474       ??_C@_0M@NJKI@?$CIforwarded?$CJ?$AA@ 00491474     mmDebug.obj
 0003:00007480       ??_C@_0CB@LPMA@?6NewSpaceDummyObject?5size?5?$DN?5?$CFld?6@ 00491480     mmDebug.obj
 0003:000074a4       ??_C@_0CF@NOOM@?6Immediate?5objects?5have?5no?5heade@ 004914a4     mmDebug.obj
 0003:000074cc       ??_C@_02JBML@?$CFc?$AA@    004914cc     mmDebug.obj
 0003:000074d0       ??_C@_04GKJN@?5?$CF2x?$AA@ 004914d0     mmDebug.obj
 0003:000074d8       ??_C@_0L@GAPM@Double?5?$CFg?6?$AA@ 004914d8     mmDebug.obj
 0003:000074e4       ??_C@_09LMLC@Float?5?$CFe?6?$AA@ 004914e4     mmDebug.obj
 0003:000074f0       ??_C@_07ELCI@?5x?$CF08lx?$AA@ 004914f0     mmDebug.obj
 0003:000074f8       ??_C@_0CB@KHKK@?6DummyObject?5has?5no?5valid?5data?4?6@ 004914f8     mmDebug.obj
 0003:0000751c       ??_C@_0BG@CLHM@?$CFs?50x?$CFlx?5has?5no?5data?6?$AA@ 0049151c     mmDebug.obj
 0003:00007534       ??_C@_03EOHB@?$CFc?5?$AA@  00491534     mmDebug.obj
 0003:00007538       ??_C@_04HCHF@?$CFld?5?$AA@ 00491538     mmDebug.obj
 0003:00007540       ??_C@_0CL@JCON@?6Immediate?5objects?5have?5no?5data?5@ 00491540     mmDebug.obj
 0003:0000756c       ??_C@_0BC@JMGF@Bogus?5Oop?50x?$CFlx?$CFs?$AA@ 0049156c     mmDebug.obj
 0003:00007580       ??_C@_0BN@FDPL@Character?5?$CFlc?5?$CI0?$CFlo?50x?$CFlx?$CJ?$CFs?$AA@ 00491580     mmDebug.obj
 0003:000075a0       ??_C@_0BD@FIPA@SmallInteger?5?$CFld?$CFs?$AA@ 004915a0     mmDebug.obj
 0003:000075b4       ??_C@_0CL@JPAJ@bad?5class?50x?$CFlx?5or?5class?5name?5oo@ 004915b4     mmDebug.obj
 0003:000075e0       ??_C@_08MEHF@a?5?$CF?4?$CKs?$CFs?$AA@ 004915e0     mmDebug.obj
 0003:000075ec       ??_C@_0BO@DKEJ@an?5Obsolete?5Class?5?$CI?$CF?4?$CKs?$CJ?5?$DP?$DP?$CFs?$AA@ 004915ec     mmDebug.obj
 0003:0000760c       ??_C@_0BB@MMEA@a?5Class?5?$CI?$CF?4?$CKs?$CJ?$CFs?$AA@ 0049160c     mmDebug.obj
 0003:00007620       ??_C@_0BL@JDIK@a?5Metaclass?5?$CI?$CF?4?$CKs?5class?$CJ?$CFs?$AA@ 00491620     mmDebug.obj
 0003:0000763c       ??_C@_0BC@DENJ@Hybrid?$CFsContext?$CFs?$AA@ 0049163c     mmDebug.obj
 0003:00007650       ??_C@_05PJID@Block?$AA@    00491650     mmDebug.obj
 0003:00007658       ??_C@_06LEII@Method?$AA@   00491658     mmDebug.obj
 0003:00007660       ??_C@_0CE@LEDH@?$CFsDummyObject?5has?5no?5valid?5class@ 00491660     mmDebug.obj
 0003:00007684       ??_C@_0CB@HJOO@Object?50x?$CFlx?5in?5futureSpace?4?4?4?$CFs@ 00491684     mmDebug.obj
 0003:000076a8       ??_C@_0BL@LDIF@classNameX?5uninitialized?$CB?6?$AA@ 004916a8     mmDebug.obj
 0003:000076c4       ??_C@_06CKL@?5class?$AA@   004916c4     mmDebug.obj
 0003:000076cc       ??_C@_0BD@NEBJ@HybridBlockContext?$AA@ 004916cc     mmDebug.obj
 0003:000076e0       ??_C@_0BE@FHLB@HybridMethodContext?$AA@ 004916e0     mmDebug.obj
 0003:000076f4       ??_C@_0BF@LILD@0x?$CF07lx?5is?5named?5?$CFs?6?$AA@ 004916f4     mmDebug.obj
 0003:0000770c       ??_C@_09MFPK@Character?$AA@ 0049170c     mmDebug.obj
 0003:00007718       ??_C@_0N@KPNF@SmallInteger?$AA@ 00491718     mmDebug.obj
 0003:00007728       ??_C@_0N@JLDB@?5class?5class?$AA@ 00491728     mmDebug.obj
 0003:00007738       ??_C@_08BBIO@dummyObj?$AA@ 00491738     mmDebug.obj
 0003:00007744       ??_C@_08KHBK@0x?$CF07lx?6?$AA@ 00491744     mmDebug.obj
 0003:00007750       ??_C@_0CE@EPEG@?6DummyObject?5has?5no?5selector?5nam@ 00491750     mmDebug.obj
 0003:00007774       ??_C@_0CL@MECM@?6Immediate?5objects?5have?5no?5selec@ 00491774     mmDebug.obj
 0003:000077a0       ??_C@_0CC@DHNG@can?8t?5determine?5data?5ptr?8s?5space@ 004917a0     mmDebug.obj
 0003:000077c4       ??_C@_0BD@IGGO@?5?5?5?5?5?5?5?$CFs?$CFs?$CFs?$CFs?$CFs?6?$AA@ 004917c4     mmDebug.obj
 0003:000077d8       ??_C@_05EEFH@inRt?0?$AA@   004917d8     mmDebug.obj
 0003:000077e0       ??_C@_0O@NDBD@actuallyInRt?0?$AA@ 004917e0     mmDebug.obj
 0003:000077f0       ??_C@_08MKJK@inOldRt?0?$AA@ 004917f0     mmDebug.obj
 0003:000077fc       ??_C@_0P@DGID@reallyInOldRt?0?$AA@ 004917fc     mmDebug.obj
 0003:0000780c       ??_C@_0M@DGHM@isEphemeron?$AA@ 0049180c     mmDebug.obj
 0003:00007818       ??_C@_0BH@OAPD@data?50x?$CFlx?5in?5?$CFsSpace?6?$AA@ 00491818     mmDebug.obj
 0003:00007830       ??_C@_05CEAP@fixed?$AA@    00491830     mmDebug.obj
 0003:00007838       ??_C@_05PMKF@large?$AA@    00491838     mmDebug.obj
 0003:00007840       ??_C@_09PLPL@BOGUS?5new?$AA@ 00491840     mmDebug.obj
 0003:0000784c       ??_C@_08BBAD@no?5data?6?$AA@ 0049184c     mmDebug.obj
 0003:00007858       ??_C@_0CB@FHPE@object?5has?5no?5data?5?$CIzero?5sized?$CJ?6@ 00491858     mmDebug.obj
 0003:0000787c       ??_C@_0BD@DFPA@but?5not?5in?5any?5OT?6?$AA@ 0049187c     mmDebug.obj
 0003:00007890       ??_C@_0L@ILKP@but?5is?5?$CFs?6?$AA@ 00491890     mmDebug.obj
 0003:0000789c       ??_C@_0M@EGMI@above?5nzone?$AA@ 0049189c     mmDebug.obj
 0003:000078a8       ??_C@_0M@KPAN@below?5nzone?$AA@ 004918a8     mmDebug.obj
 0003:000078b4       ??_C@_0O@EKEC@in?5stack?5zone?$AA@ 004918b4     mmDebug.obj
 0003:000078c4       ??_C@_0N@KEPC@in?5glue?5code?$AA@ 004918c4     mmDebug.obj
 0003:000078d4       ??_C@_08DBAC@in?5ncode?$AA@ 004918d4     mmDebug.obj
 0003:000078e0       ??_C@_0BE@MBNO@header?5in?5?$CFsSpace?0?5?$AA@ 004918e0     mmDebug.obj
 0003:000078f4       ??_C@_03NFCM@NO?5?$AA@     004918f4     mmDebug.obj
 0003:000078f8       ??_C@_04ONIN@perm?$AA@     004918f8     mmDebug.obj
 0003:00007900       ??_C@_03CENO@old?$AA@      00491900     mmDebug.obj
 0003:00007904       ??_C@_0BA@MCMD@vacant?5eden?5new?$AA@ 00491904     mmDebug.obj
 0003:00007914       ??_C@_08FBPC@eden?5new?$AA@ 00491914     mmDebug.obj
 0003:00007920       ??_C@_0BA@NIIK@vacant?5past?5new?$AA@ 00491920     mmDebug.obj
 0003:00007930       ??_C@_08ELLL@past?5new?$AA@ 00491930     mmDebug.obj
 0003:0000793c       ??_C@_0BC@GMNE@vacant?5future?5new?$AA@ 0049193c     mmDebug.obj
 0003:00007950       ??_C@_0L@BDGP@future?5new?$AA@ 00491950     mmDebug.obj
 0003:0000795c       ??_C@_0BI@GBOJ@has?5invalid?5alignment?0?5?$AA@ 0049195c     mmDebug.obj
 0003:00007974       ??_C@_0O@MDL@is?5immediate?6?$AA@ 00491974     mmDebug.obj
 0003:00007984       ??_C@_0O@GIBE@object?50x?$CFlx?5?$AA@ 00491984     mmDebug.obj
 0003:00007994       ??_C@_0BH@BBIK@?$CIinsts?3?5?$CFd?0?5refs?3?5?$CFd?$CJ?6?$AA@ 00491994     mmDebug.obj
 0003:000079ac       ??_C@_09MAMO@0x?$CF08x?$CFc?5?$AA@ 004919ac     mmDebug.obj
 0003:000079b8       ??_C@_0BD@DIA@at?5?$FL?$CFld?$FN?0?5at?3?5?$CFld?6?$AA@ 004919b8     mmDebug.obj
 0003:000079cc       ??_C@_0CG@FFPB@as?5yet?5implemmeted?5only?5for?5poin@ 004919cc     mmDebug.obj
 0003:000079f4       ??_C@_05MDCJ@Array?$AA@    004919f4     mmDebug.obj
 0003:000079fc       __real@4@4008fa00000000000000 004919fc     mmEnumerate.obj
 0003:00007a00       ??_C@_0BM@FJDB@?4?4?2?4?4?2?4?4?2src?2mman?2mmFinal?4c?$AA@ 00491a00     mmFinal.obj
 0003:00007a1c       ??_C@_0CF@LLKI@Unable?5to?5create?5finalization?5qu@ 00491a1c     mmFinal.obj
 0003:00007a44       ??_C@_0CP@HJDD@blowAwayIncGC?3?5incremental?5GC?5in@ 00491a44     mmIncGC.obj
 0003:00007a74       ??_C@_0CD@IKCN@blowAwayIncGC?3?5incMarkSweep?5fail@ 00491a74     mmIncGC.obj
 0003:00007a98       ??_C@_0CC@LIMA@blowAwayIncGC?3?5undoIncMark?5faile@ 00491a98     mmIncGC.obj
 0003:00007abc       ??_C@_0BM@DECB@?4?4?2?4?4?2?4?4?2src?2mman?2mmIncGC?4c?$AA@ 00491abc     mmIncGC.obj
 0003:00007ad8       ??_C@_0CO@IGBP@incMarkSweep?3?5incremental?5GC?5in?5@ 00491ad8     mmIncGC.obj
 0003:00007b08       ??_C@_0CL@OMBG@undoIncMark?3?5incremental?5GC?5in?5w@ 00491b08     mmIncGC.obj
 0003:00007b34       _platformTenureThreshold   00491b34     mmInit.obj
 0003:00007b38       ??_C@_0BF@MLKE@Insufficient?5memory?4?$AA@ 00491b38     mmInit.obj
 0003:00007b50       ??_C@_0BL@DKBH@?4?4?2?4?4?2?4?4?2src?2mman?2mmInit?4c?$AA@ 00491b50     mmInit.obj
 0003:00007b6c       ??_C@_0BP@MBAA@Can?8t?5initialize?5N?9method?5zone?$AA@ 00491b6c     mmInit.obj
 0003:00007b8c       ??_C@_0CG@HEGM@Unable?5to?5convert?5your?5image?8s?5f@ 00491b8c     mmInit.obj
 0003:00007bb4       ??_C@_0DE@DGLD@Unable?5to?5demote?5objects?5from?5Pe@ 00491bb4     mmInit.obj
 0003:00007be8       ??_C@_0DF@JAPA@Unable?5to?5promote?5objects?5from?5O@ 00491be8     mmInit.obj
 0003:00007c20       ??_C@_0BO@BKBE@No?5room?5in?5the?5sysOopRegistry?$AA@ 00491c20     mmInit.obj
 0003:00007c40       ??_C@_0BF@LCKN@Can?8t?5allocate?5OldRt?$AA@ 00491c40     mmInit.obj
 0003:00007c58       ??_C@_0CB@EDED@Can?8t?5allocate?5OldSpace?5Headroom@ 00491c58     mmInit.obj
 0003:00007c7c       __real@4@400c9c40000000000000 00491c7c     mmInit.obj
 0003:00007c80       ??_C@_0CK@ENOA@The?5VM?5is?532?9bit?5but?5the?5image?5i@ 00491c80     mmInit.obj
 0003:00007cac       ??_C@_0BK@PIIJ@unrecognized?5image?5format?$AA@ 00491cac     mmInit.obj
 0003:00007cc8       ??_C@_0BE@GNLH@invalid?5load?5policy?$AA@ 00491cc8     mmInit.obj
 0003:00007cdc       ??_C@_06JCDK@demote?$AA@   00491cdc     mmInit.obj
 0003:00007ce4       ??_C@_07GKBO@promote?$AA@  00491ce4     mmInit.obj
 0003:00007cec       ??_C@_0BK@OJDI@Can?8t?5initialize?5OldSpace?$AA@ 00491cec     mmInit.obj
 0003:00007d08       ??_C@_0BL@JPBF@Can?8t?5initialize?5VM?5caches?$AA@ 00491d08     mmInit.obj
 0003:00007d24       ??_C@_0BL@IOH@Can?8t?5initialize?5PermSpace?$AA@ 00491d24     mmInit.obj
 0003:00007d40       ??_C@_0CB@NLKC@Order?5of?5memory?5space?5is?5invalid@ 00491d40     mmInit.obj
 0003:00007d64       __real@4@40118000000000000000 00491d64     mmInit.obj
 0003:00007d68       __real@4@4010c800000000000000 00491d68     mmInit.obj
 0003:00007d6c       __real@4@400ef000000000000000 00491d6c     mmInit.obj
 0003:00007d70       __real@4@40119600000000000000 00491d70     mmInit.obj
 0003:00007d74       __real@4@4012a000000000000000 00491d74     mmInit.obj
 0003:00007d78       __real@4@400ea000000000000000 00491d78     mmInit.obj
 0003:00007d7c       ??_C@_0BK@FMMC@Can?8t?5allocate?5stack?5zone?$AA@ 00491d7c     mmInit.obj
 0003:00007d98       __real@8@3fff8000000000000000 00491d98     mmInit.obj
 0003:00007da0       ??_C@_0BL@FLDK@Bad?5oop?5contained?5in?5image?$AA@ 00491da0     mmInit.obj
 0003:00007dbc       ??_C@_0N@OPPJ@?$CFld?5objects?6?$AA@ 00491dbc     mmNewSpace.obj
 0003:00007dcc       ??_C@_06FFKK@0x?$CFx?3?7?$AA@ 00491dcc     mmNewSpace.obj
 0003:00007dd4       ??_C@_0L@DNOE@pastSpace?3?$AA@ 00491dd4     mmNewSpace.obj
 0003:00007de0       ??_C@_0N@BBGH@futureSpace?3?$AA@ 00491de0     mmNewSpace.obj
 0003:00007df0       ??_C@_05NMKI@eden?3?$AA@   00491df0     mmNewSpace.obj
 0003:00007df8       ??_C@_0BI@OJN@allocOldData?5slots?5?$DN?$DN?50?$AA@ 00491df8     mmOldSpace.obj
 0003:00007e10       ??_C@_0BP@DDLN@?4?4?2?4?4?2?4?4?2src?2mman?2mmOldSpace?4c?$AA@ 00491e10     mmOldSpace.obj
 0003:00007e30       ??_C@_0FH@NNGF@seg?50x?$CFlx?7prev?50x?$CFlx?5next?50x?$CFlx?6@ 00491e30     mmOldSpace.obj
 0003:00007e88       ??_C@_0CG@KJGK@current?50x?$CFlx?5first?50x?$CFlx?5last?50@ 00491e88     mmOldSpace.obj
 0003:00007eb0       ??_C@_0CO@JDAK@Image?5has?5no?5processes?5ready?5to?5@ 00491eb0     mmProcess.obj
 0003:00007ee0       ??_C@_0BO@ODC@?4?4?2?4?4?2?4?4?2src?2mman?2mmProcess?4c?$AA@ 00491ee0     mmProcess.obj
 0003:00007f00       ??_C@_0CA@BGBG@?4?4?2?4?4?2?4?4?2src?2mman?2mmPermSpace?4c?$AA@ 00491f00     mmPermSpace.obj
 0003:00007f20       ??_C@_0CA@NNCO@?4?4?2?4?4?2?4?4?2src?2mman?2mmResources?4c?$AA@ 00491f20     mmResources.obj
 0003:00007f40       ??_C@_0BP@JAGC@?4?4?2?4?4?2?4?4?2src?2mman?2mmScavenge?4c?$AA@ 00491f40     mmScavenge.obj
 0003:00007f60       ??_C@_0BP@BAMH@?4?4?2?4?4?2?4?4?2src?2mman?2mmSnapshot?4c?$AA@ 00491f60     mmSnapshot.obj
 0003:00007f80       ??_C@_0FJ@MAFG@Unmappable?5n?9PC?5encountered?3?6?7?7?7@ 00491f80     mmSnapshot.obj
 0003:00007fdc       ??_C@_0CA@NKHF@?4?4?2?4?4?2?4?4?2src?2mman?2mmSubscript?4c?$AA@ 00491fdc     mmSubscript.obj
 0003:00007ffc       ??_C@_0BN@OJO@?4?4?2?4?4?2?4?4?2src?2mman?2mmSysOop?4c?$AA@ 00491ffc     mmSysOop.obj
 0003:0000801c       ??_C@_0DL@BBPB@Not?5enough?5space?5to?5initialize?5t@ 0049201c     mmSysOop.obj
 0003:00008058       ??_C@_0BG@KMOE@Allocation?5failure?5?$CFs?$AA@ 00492058     checks.obj
 0003:00008070       ??_C@_0BG@PIKC@in?5module?5?$CFs?0?5line?5?$CFd?$AA@ 00492070     checks.obj
 0003:00008088       ??_C@_06FGMP@for?5?$CFs?$AA@ 00492088     checks.obj
 0003:00008090       ??_C@_0BE@EDIO@in?5file?5?$CFs?0?5line?5?$CFd?$AA@ 00492090     checks.obj
 0003:000080a4       ??_C@_0DM@IBBI@?9?9?9?9?9?9?9?9?9?9?9?9?9?9?9?9?9?9?9?9?9?9?9?9?9?9?9?9?9?9?9?9@ 004920a4     checks.obj
 0003:000080e0       ??_C@_0BD@KIAA@?5?9?$DOprevious?50x?$CFlx?6?$AA@ 004920e0     checks.obj
 0003:000080f4       ??_C@_0BD@MBHB@?5?9?$DOnext?5?5?5?5?50x?$CFlx?7?$AA@ 004920f4     checks.obj
 0003:00008108       ??_C@_0BD@OCJI@?5?9?$DOprimErr?5?50x?$CFlx?6?$AA@ 00492108     checks.obj
 0003:0000811c       ??_C@_0BD@PGFP@?5?9?$DOfailAddr?50x?$CFlx?7?$AA@ 0049211c     checks.obj
 0003:00008130       ??_C@_0BD@ICHO@?5?9?$DOarg?$FL1?$FN?5?5?50x?$CFlx?6?$AA@ 00492130     checks.obj
 0003:00008144       ??_C@_0BD@JHEI@?5?9?$DOarg?$FL0?$FN?5?5?50x?$CFlx?7?$AA@ 00492144     checks.obj
 0003:00008158       ??_C@_0BD@KHED@?5?9?$DOreceiver?50x?$CFlx?6?$AA@ 00492158     checks.obj
 0003:0000816c       ??_C@_0BE@LGCB@?5?9?$DOnumArgs?5?50x?$CFlx?7?7?$AA@ 0049216c     checks.obj
 0003:00008180       ??_C@_0BD@DAEH@?5?9?$DOrealLim?5?50x?$CFlx?6?$AA@ 00492180     checks.obj
 0003:00008194       ??_C@_0BD@PHE@?5?9?$DOlimit?5?5?5?50x?$CFlx?7?$AA@ 00492194     checks.obj
 0003:000081a8       ??_C@_0BD@DIIG@?5?9?$DOsp?5?5?5?5?5?5?50x?$CFlx?6?$AA@ 004921a8     checks.obj
 0003:000081bc       ??_C@_0BD@CFBL@?5?9?$DOfp?5?5?5?5?5?5?50x?$CFlx?7?$AA@ 004921bc     checks.obj
 0003:000081d0       ??_C@_0BB@PHCG@Stack?5at?50x?$CFlx?3?6?$AA@ 004921d0     checks.obj
 0003:000081e4       ??_C@_0BK@LBEF@Arg?50x?$CFlx?5isn?8t?5a?5stack?4?6?$AA@ 004921e4     checks.obj
 0003:00008200       ??_C@_0BD@EHED@0x?$CFlx?5?$CFs?5selector?6?$AA@ 00492200     checks.obj
 0003:00008214       ??_C@_02ELCB@no?$AA@       00492214     checks.obj
 0003:00008218       ??_C@_07KLCM@invalid?$AA@  00492218     checks.obj
 0003:00008220       ??_C@_0BL@KAHN@0x?$CFx?5has?5invalid?5dataPtr?$AH?6?$AA@ 00492220     checks.obj
 0003:0000823c       ??_C@_05CCFO@?$CF?4?$CKs?6?$AA@ 0049223c     checks.obj
 0003:00008244       ??_C@_0BI@IBAH@Immediate?5selector?5?$CFlx?6?$AA@ 00492244     checks.obj
 0003:0000825c       ??_C@_0O@JNNF@?$DMBogus?5Class?$DO?$AA@ 0049225c     checks.obj
 0003:0000826c       ??_C@_04MIPF@?$CF?4?$CKs?$AA@ 0049226c     checks.obj
 0003:00008274       ??_C@_0L@KFBO@?$CF?4?$CKs?5class?$AA@ 00492274     checks.obj
 0003:00008280       ??_C@_0BC@CCIF@?$DMBogus?5Immediate?$DO?$AA@ 00492280     checks.obj
 0003:00008294       ??_C@_0BB@HGLM@Character?5?$FL?5?$CFc?5?$FN?$AA@ 00492294     checks.obj
 0003:000082a8       ??_C@_0BE@OGCG@SmallInteger?5?$FL?5?$CFd?5?$FN?$AA@ 004922a8     checks.obj
 0003:000082bc       ??_C@_09PJBG@a?$CIn?$CJ?5?$CF?4?$CKs?$AA@ 004922bc     checks.obj
 0003:000082c8       ??_C@_0P@HNFJ@a?5Class?5?$CI?$CF?4?$CKs?$CJ?$AA@ 004922c8     checks.obj
 0003:000082d8       ??_C@_0BJ@LIOO@a?5Metaclass?5?$CI?$CF?4?$CKs?5class?$CJ?$AA@ 004922d8     checks.obj
 0003:000082f4       ??_C@_07MLJP@?$DMfalse?$DO?$AA@ 004922f4     checks.obj
 0003:000082fc       ??_C@_06OEAP@?$DMtrue?$DO?$AA@ 004922fc     checks.obj
 0003:00008304       ??_C@_05EJHE@?$DMnil?$DO?$AA@ 00492304     checks.obj
 0003:0000830c       ??_C@_0BE@IJPO@?$DMHybrid?5?$CFs?5Context?$DO?$AA@ 0049230c     checks.obj
 0003:00008320       ??_C@_0P@IALL@?$DMBogus?5Object?$DO?$AA@ 00492320     checks.obj
 0003:00008330       ??_C@_0N@GJFE@?$DMNMethod?5PC?$DO?$AA@ 00492330     checks.obj
 0003:00008340       ??_C@_09JLEO@?$DMGlue?5PC?$DO?$AA@ 00492340     checks.obj
 0003:0000834c       ??_C@_02PJJB@?$CC?6?$AA@   0049234c     checks.obj
 0003:00008350       ??_C@_0BB@JMLF@?5Receiver?50x?$CFlx?$CC?$AA@ 00492350     checks.obj
 0003:00008364       ??_C@_0N@MIPD@?5a?$CFd?50x?$CFlx?7?5?$AA@ 00492364     checks.obj
 0003:00008374       ??_C@_0P@OEIN@Context?50x?$CFlx?6?$AA@ 00492374     checks.obj
 0003:00008384       ??_C@_0L@LHB@?5PC?50x?$CFlx?6?$AA@ 00492384     checks.obj
 0003:00008390       ??_C@_0P@EDMB@nMethod?50x?$CFlx?7?$AA@ 00492390     checks.obj
 0003:000083a0       ??_C@_0P@CIAL@?5Caller?50x?$CFlx?7?$AA@ 004923a0     checks.obj
 0003:000083b0       ??_C@_0DI@JDJB@?6NumArgs?5?$DP?5NumTemps?5?$DP?7Selector?5?$DP@ 004923b0     checks.obj
 0003:000083e8       ??_C@_0BA@OFMC@?5VMethod?50x?$CFlx?6?$AA@ 004923e8     checks.obj
 0003:000083f8       ??_C@_0BN@PKMB@?$CFs?6?5NumArgs?5?$CFd?5?5NumTemps?5?$CFd?7?$AA@ 004923f8     checks.obj
 0003:00008418       ??_C@_0BD@NHCA@?5marked?5bizarrely?$CB?$AA@ 00492418     checks.obj
 0003:0000842c       ??_C@_0BD@GNIP@?5marked?5for?5handle?$AA@ 0049242c     checks.obj
 0003:00008440       ??_C@_0BD@GPKE@?5marked?5for?5unwind?$AA@ 00492440     checks.obj
 0003:00008454       ??_C@_0BN@GPKB@?$DOFrame?5at?50x?$CFlx?5is?5?$CFs?5and?5?$CFs?$AA@ 00492454     checks.obj
 0003:00008474       ??_C@_07JOIO@NonRoot?$AA@  00492474     checks.obj
 0003:0000847c       ??_C@_04PNFB@Root?$AA@     0049247c     checks.obj
 0003:00008484       ??_C@_08CFPF@Volatile?$AA@ 00492484     checks.obj
 0003:00008490       ??_C@_06BMIC@Hybrid?$AA@   00492490     checks.obj
 0003:00008498       ??_C@_0L@INPI@?$DMnm?$EA?$CF03lx?$DO?$AA@ 00492498     checks.obj
 0003:000084a4       ??_C@_09GNEH@?50x?$CF08lx?5?$AA@ 004924a4     checks.obj
 0003:000084b0       ??_C@_0M@DEEE@?6?50x?$CF08lx?3?5?$AA@ 004924b0     checks.obj
 0003:000084bc       ??_C@_0CK@DLIJ@Arg?50x?$CFlx?5isn?8t?5a?5frame?5pointer?0@ 004924bc     checks.obj
 0003:000084e8       ??_C@_0CD@EMMI@Abort?5because?5?$CFlx?5isn?8t?5sp?5of?5fp@ 004924e8     checks.obj
 0003:0000850c       ??_C@_0CB@HCOP@sp?9?$DO?5?5?5?5?5?5?5?5?5?5?5?50x?$CF08lx?7?7?$EA0x?$CFlx?6@ 0049250c     checks.obj
 0003:00008530       ??_C@_0CB@DPGP@?5?5?5?5?5?5?5?5?5?5?5?5?5?5?5?50x?$CF08lx?7?7?$EA0x?$CFlx?6@ 00492530     checks.obj
 0003:00008554       ??_C@_0CB@PALM@temp?3?5?5?5?5?5?5?5?5?5?5?50x?$CF08lx?7?7?$EA0x?$CFlx?6@ 00492554     checks.obj
 0003:00008578       ??_C@_0CB@ILDG@receiver?3?5?5?5?5?5?5?50x?$CF08lx?7?7?$EA0x?$CFlx?6@ 00492578     checks.obj
 0003:0000859c       ??_C@_0CB@POOB@nMethod?3?5?5?5?5?5?5?5?50x?$CF08lx?7?7?$EA0x?$CFlx?6@ 0049259c     checks.obj
 0003:000085c0       ??_C@_0CB@KLAJ@thisContext?3?5?5?5?50x?$CF08lx?7?7?$EA0x?$CFlx?6@ 004925c0     checks.obj
 0003:000085e4       ??_C@_0CB@HANH@saved?5fp?3?5?5?5?5?5?5?50x?$CF08lx?7?7?$EA0x?$CFlx?6@ 004925e4     checks.obj
 0003:00008608       ??_C@_0CB@BMGF@retpc?3?5?5?5?5?5?5?5?5?5?50x?$CF08lx?7?7?$EA0x?$CFlx?6@ 00492608     checks.obj
 0003:0000862c       ??_C@_0CB@MCDD@pushed?5arg?3?5?5?5?5?50x?$CF08lx?7?7?$EA0x?$CFlx?6@ 0049262c     checks.obj
 0003:00008650       ??_C@_0CB@ICDO@pushed?5receiver?30x?$CF08lx?7?7?$EA0x?$CFlx?6@ 00492650     checks.obj
 0003:00008674       ??_C@_0BI@BMHM@frame?50x?$CF08lx?5is?5bogus?6?$AA@ 00492674     checks.obj
 0003:0000868c       ??_C@_0CE@CMFO@?$CIcontext?50x?$CF08lx?5is?5a?5dead?5hybri@ 0049268c     checks.obj
 0003:000086b0       ??_C@_0BB@MDPL@context?50x?$CF08lx?5?$AA@ 004926b0     checks.obj
 0003:000086c4       ??_C@_0BI@NPO@?5?$CInMethod?50x?$CFlx?5bogus?$CJ?6?$AA@ 004926c4     checks.obj
 0003:000086dc       ??_C@_0P@IENK@frame?50x?$CF08lx?5?$AA@ 004926dc     checks.obj
 0003:000086ec       ??_C@_02JJJH@?6?6?$AA@     004926ec     checks.obj
 0003:000086f0       ??_C@_0CD@FKOD@currentStack?50x?$CFlx?5isn?8t?5a?5stack@ 004926f0     checks.obj
 0003:00008714       ??_C@_0BP@DPMJ@?$CBprobablyObj?$CIscheduler?30x?$CFlx?$CJ?6?$AA@ 00492714     checks.obj
 0003:00008734       ??_C@_0BN@FFKJ@?$CBprobablyObj?$CIprocess?30x?$CFlx?$CJ?6?$AA@ 00492734     checks.obj
 0003:00008754       ??_C@_0BK@DBCG@?$CBprobablyObj?$CIctxt?30x?$CFlx?$CJ?6?$AA@ 00492754     checks.obj
 0003:00008770       ??_C@_0DA@KJCF@?$CB?$CIobjOopDataSlots?$CIctxt?$CJ?5?$DO?$DN?5oopsi@ 00492770     checks.obj
 0003:000087a0       ??_C@_0BD@EPCL@?$CBobjHasPtrs?$CIctxt?$CJ?6?$AA@ 004927a0     checks.obj
 0003:000087b4       ??_C@_0BM@LMPG@?$CB?$CIctxt?5?$CB?$DN?5sysOop?$CInilOopX?$CJ?$CJ?6?$AA@ 004927b4     checks.obj
 0003:000087d0       ??_C@_0CO@CDPN@?$CB?$CIobjOopDataSlots?$CIprocess?$CJ?5?$DO?$DN?5su@ 004927d0     checks.obj
 0003:00008800       ??_C@_0BG@LBMF@?$CBobjHasPtrs?$CIprocess?$CJ?6?$AA@ 00492800     checks.obj
 0003:00008818       ??_C@_0BP@PMOA@?$CB?$CIprocess?5?$CB?$DN?5sysOop?$CInilOopX?$CJ?$CJ?6?$AA@ 00492818     checks.obj
 0003:00008838       ??_C@_0BI@GJCN@?$CBobjHasPtrs?$CIscheduler?$CJ?6?$AA@ 00492838     checks.obj
 0003:00008850       ??_C@_0BP@JBHA@Could?5not?5find?5any?5processes?$CB?6?$AA@ 00492850     checks.obj
 0003:00008870       ??_C@_07EOBJ@Process?$AA@  00492870     checks.obj
 0003:00008878       ??_C@_0BE@HPHM@?$CBprobablyObj?$CIctxt?$CJ?6?$AA@ 00492878     checks.obj
 0003:0000888c       ??_C@_0CG@POHA@activeProcess?8s?5currentStack?5is?5@ 0049288c     checks.obj
 0003:000088b4       ??_C@_0BJ@GCIE@suspendedContext?5is?5nil?6?$AA@ 004928b4     checks.obj
 0003:000088d0       ??_C@_0BC@IDDN@?6process?50x?$CFlx?$CFs?6?$AA@ 004928d0     checks.obj
 0003:000088e4       ??_C@_0BB@IGJG@?5?$CIactiveProcess?$CJ?$AA@ 004928e4     checks.obj
 0003:000088f8       ??_C@_0O@PFPP@processes?4txt?$AA@ 004928f8     checks.obj
 0003:00008908       ??_C@_03KNAP@?6?6?6?$AA@   00492908     checks.obj
 0003:0000890c       ??_C@_09GHBI@stack?4txt?$AA@ 0049290c     checks.obj
 0003:00008918       ??_C@_06PBLE@?$CF?4?$CKs?6?6?$AA@ 00492918     checks.obj
 0003:00008920       ??_C@_0BM@LIGG@?7Newest?50x?$CFlx?7Oldest?50x?$CFlx?6?$AA@ 00492920     checks.obj
 0003:0000893c       ??_C@_0BH@MFOA@currentStack?5at?50x?$CFlx?7?$AA@ 0049293c     checks.obj
 0003:00008954       ??_C@_0BC@PEDN@Allocated?5chain?3?5?$AA@ 00492954     checks.obj
 0003:00008968       ??_C@_0BD@MMPK@?5?$CInull?$CJ?5?5?$CFd?5total?6?$AA@ 00492968     checks.obj
 0003:0000897c       ??_C@_0M@DHGI@0x?$CF0lx?5?9?9?$DO?5?$AA@ 0049297c     checks.obj
 0003:00008988       ??_C@_0BA@IKAF@0x?$CF0lx?5?4?4?4?6?7?9?$DO?5?$AA@ 00492988     checks.obj
 0003:00008998       ??_C@_0N@NDIE@Free?5chain?3?5?$AA@ 00492998     checks.obj
 0003:000089a8       ??_C@_0BI@FBGE@Current?5stack?5at?50x?$CFlx?6?$AA@ 004929a8     checks.obj
 0003:000089c0       ??_C@_0M@IGFO@?$DMBogus?5Oop?$DO?$AA@ 004929c0     checks.obj
 0003:000089cc       ??_C@_0O@BGHN@HybridContext?$AA@ 004929cc     checks.obj
 0003:000089dc       ??_C@_0O@NBIK@?$DMno?5selector?$DO?$AA@ 004929dc     checks.obj
 0003:000089ec       ??_C@_0CN@EGLL@?7receiver?50x?$CFlx?5?$CI?$CFs?5?$CFs?$CJ?5selector@ 004929ec     checks.obj
 0003:00008a1c       ??_C@_02DFLH@an?$AA@       00492a1c     checks.obj
 0003:00008a20       ??_C@_0N@BNEP@aeiouyAEIOUY?$AA@ 00492a20     checks.obj
 0003:00008a30       ??_C@_05LGKP@class?$AA@    00492a30     checks.obj
 0003:00008a38       ??_C@_0BP@CGJ@Send?5log?5?$CImost?5recent?5first?$CJ?3?6?$AA@ 00492a38     checks.obj
 0003:00008a58       ??_C@_0BD@EMFB@fetch?5hybrid?5stack?$AA@ 00492a58     contexts.obj
 0003:00008a6c       ??_C@_0BO@MAJ@?4?4?2?4?4?2?4?4?2src?2stack?2contexts?4c?$AA@ 00492a6c     contexts.obj
 0003:00008a8c       ??_C@_0CK@CLIF@access?5to?5invalid?5hybrid?5context@ 00492a8c     contexts.obj
 0003:00008ab8       ??_C@_0DL@BIEE@Three?9argument?5doesNotUnderstand@ 00492ab8     dnu.obj
 0003:00008af4       ??_C@_0BK@FHP@doesNotUnderstand?5message?$AA@ 00492af4     dnu.obj
 0003:00008b10       ??_C@_0BM@LGAI@doesNotUnderstand?5arguments?$AA@ 00492b10     dnu.obj
 0003:00008b2c       ??_C@_0CH@JHE@No?5method?5found?5for?5doesNotUnder@ 00492b2c     dnu.obj
 0003:00008b54       ??_C@_0BJ@EPBE@?4?4?2?4?4?2?4?4?2src?2stack?2dnu?4c?$AA@ 00492b54     dnu.obj
 0003:00008b70       ??_C@_0BO@MGIL@?4?4?2?4?4?2?4?4?2src?2stack?2nsupport?4c?$AA@ 00492b70     nsupport.obj
 0003:00008b90       ??_C@_0BE@PFDC@block?5copied?5values?$AA@ 00492b90     nsupport.obj
 0003:00008ba4       ??_C@_0O@HAGD@copying?5block?$AA@ 00492ba4     nsupport.obj
 0003:00008bb4       ??_C@_0BB@OCJJ@copying?5block?$CI1?$CJ?$AA@ 00492bb4     nsupport.obj
 0003:00008bc8       ??_C@_0L@IDAB@full?5block?$AA@ 00492bc8     nsupport.obj
 0003:00008bd4       ??_C@_0BD@NHG@full?5copying?5block?$AA@ 00492bd4     nsupport.obj
 0003:00008be8       ??_C@_0L@HPHB@cons?5array?$AA@ 00492be8     nsupport.obj
 0003:00008bf4       ??_C@_0N@GDMM@create?5array?$AA@ 00492bf4     nsupport.obj
 0003:00008c04       ??_C@_0CD@JOCK@No?5method?5found?5for?5badBytecodeA@ 00492c04     nsupport.obj
 0003:00008c28       ??_C@_0CK@PLJO@Bad?5bytecode?5?$CIno?5badBytecodeAt?3?5@ 00492c28     nsupport.obj
 0003:00008c54       ??_C@_0BE@LEOG@badBytecodeAt?3?5?$CFld?6?$AA@ 00492c54     nsupport.obj
 0003:00008c68       ??_C@_0BK@NKHF@?4?4?2?4?4?2?4?4?2src?2stack?2send?4c?$AA@ 00492c68     send.obj
 0003:00008c84       ??_C@_0DL@FAFM@unexpected?5translation?5failure?5?$CI@ 00492c84     send.obj
 0003:00008cc0       ??_C@_09OOJM@?$DMunknown?$DO?$AA@ 00492cc0     send.obj
 0003:00008ccc       ??_C@_0BB@GBFA@relocating?5frame?$AA@ 00492ccc     stackframe.obj
 0003:00008ce0       ??_C@_0N@JGAB@hybrid?5frame?$AA@ 00492ce0     stackframe.obj
 0003:00008cf0       ??_C@_0CA@GKCP@?4?4?2?4?4?2?4?4?2src?2stack?2stackframe?4c?$AA@ 00492cf0     stackframe.obj
 0003:00008d10       ??_C@_0CI@IACF@Can?8t?5allocate?5for?5stabilizeThis@ 00492d10     stackframe.obj
 0003:00008d38       ??_C@_0N@HHMJ@stable?5frame?$AA@ 00492d38     stackframe.obj
 0003:00008d48       ??_C@_0EB@IPC@Unable?5to?5translate?5method?5for?5e@ 00492d48     stackframe.obj
 0003:00008d8c       ??_C@_0DK@JOBK@Unable?5to?5translate?5method?5for?5e@ 00492d8c     stackframe.obj
 0003:00008dc8       ??_C@_0CO@KDFM@rootReturn?5encountered?5a?5valid?5h@ 00492dc8     stackframe.obj
 0003:00008df8       ??_C@_0BG@JGLI@Can?8t?5allocate?5stacks?$AA@ 00492df8     stackzone.obj
 0003:00008e10       ??_C@_0BP@KBHO@?4?4?2?4?4?2?4?4?2src?2stack?2stackzone?4c?$AA@ 00492e10     stackzone.obj
 0003:00008e30       ??_C@_0BB@KLGH@Can?8t?5free?5stack?$AA@ 00492e30     stackzone.obj
 0003:00008e44       ??_C@_0BP@IPKL@?4?4?2?4?4?2?4?4?2src?2stack?2vmsupport?4c?$AA@ 00492e44     vmsupport.obj
 0003:00008e64       ??_C@_0BM@NAAL@?4?4?2?4?4?2?4?4?2src?2tran?2nmalloc?4c?$AA@ 00492e64     nmalloc.obj
 0003:00008e80       ??_C@_0DA@HPOH@Could?5not?5provide?5scratch?5space?5@ 00492e80     nmalloc.obj
 0003:00008eb0       ??_C@_05HHF@?$CF10lx?$AA@  00492eb0     nmalloc.obj
 0003:00008eb8       ??_C@_0P@DPOF@nMethod?5list?3?6?$AA@ 00492eb8     nmalloc.obj
 0003:00008ec8       ??_C@_0DO@ICEO@nMethodZone?6?7bottom?$DN?$CFlx?5free?$DN?$CFlx@ 00492ec8     nmalloc.obj
 0003:00008f08       ??_C@_05HOIM@0x?$CFx?6?$AA@ 00492f08     nmalloc.obj
 0003:00008f10       ??_C@_0IH@EEPJ@nMethod?50x?$CFlx?3?5?$CFs?5?$CIentry?3?50x?$CFlx?$CJ@ 00492f10     nmalloc.obj
 0003:00008f98       ??_C@_0M@HLHD@?$CIextended?$CJ?5?$AA@ 00492f98     nmalloc.obj
 0003:00008fa4       ??_C@_0L@LHAA@?0?5UNLINKED?$AA@ 00492fa4     nmalloc.obj
 0003:00008fb0       ??_C@_0M@OFAF@?0?5is?5handle?$AA@ 00492fb0     nmalloc.obj
 0003:00008fbc       ??_C@_0M@OHCO@?0?5is?5unwind?$AA@ 00492fbc     nmalloc.obj
 0003:00008fc8       ??_C@_0L@EMNM@?0?5has?5prim?$AA@ 00492fc8     nmalloc.obj
 0003:00008fd4       ??_C@_0O@IEHC@?0?5has?5new?5ref?$AA@ 00492fd4     nmalloc.obj
 0003:00008fe4       ??_C@_07FFGC@?0?5block?$AA@ 00492fe4     nmalloc.obj
 0003:00008fec       ??_C@_02MECO@?$CFd?$AA@    00492fec     nmalloc.obj
 0003:00008ff0       ??_C@_07EDDN@?0?5mark?$DN?$AA@ 00492ff0     nmalloc.obj
 0003:00008ff8       ??_C@_06DNHM@in?9use?$AA@  00492ff8     nmalloc.obj
 0003:00009000       ??_C@_04KHAP@free?$AA@     00493000     nmalloc.obj
 0003:00009008       ??_C@_0BJ@HBAK@0x?$CFlx?5is?5not?5an?5nmethod?6?$AA@ 00493008     nmalloc.obj
 0003:00009024       ??_C@_0M@LIFM@0x?$CFx?3?5?$CF?4?$CKs?6?$AA@ 00493024     nmalloc.obj
 0003:00009030       ??_C@_01FBAH@1?$AA@        00493030     nmalloc.obj
 0003:00009034       ??_C@_02CNAK@?$DO?$DO?$AA@ 00493034     nmlookup.obj
 0003:00009038       ??_C@_01KMMP@?$CJ?$AA@     00493038     nmlookup.obj
 0003:0000903c       ??_C@_01GFI@?$CI?$AA@      0049303c     nmlookup.obj
 0003:00009040       ??_C@_0BB@OHEC@?$DO?$DOunboundMethod?6?$AA@ 00493040     nmlookup.obj
 0003:00009054       ??_C@_06ELFD@?$FL?$FN?5in?5?$AA@ 00493054     nmlookup.obj
 0003:0000905c       ??_C@_0BM@DPH@?4?4?2?4?4?2?4?4?2src?2tran?2taction?4c?$AA@ 0049305c     taction.obj
 0003:00009078       ??_C@_0BN@LFKB@Action?5table?5allocate?5failed?$AA@ 00493078     taction.obj
 0003:00009098       ??_C@_0BG@BLCG@Loop?5head?5stack?5error?$AA@ 00493098     taction.obj
 0003:000090b0       ??_C@_0CG@PPBC@This?5primitive?5type?5is?5not?5recog@ 004930b0     taux.obj
 0003:000090d8       ??_C@_0BJ@ICNL@?4?4?2?4?4?2?4?4?2src?2tran?2taux?4c?$AA@ 004930d8     taux.obj
 0003:000090f4       ??_C@_0CO@NBOE@nzone?5initialization?5phase?5error@ 004930f4     tcgencode.obj
 0003:00009124       ??_C@_0BM@MNFL@?4?4?2?4?4?2?4?4?2src?2tran?2cgen386?4h?$AA@ 00493124     tcgencode.obj
 0003:00009140       ??_C@_0L@NIEN@notBoolean?$AA@ 00493140     tcodes.obj
 0003:0000914c       ??_C@_0P@MBKC@Unknown?5action?$AA@ 0049314c     tloop.obj
 0003:0000915c       ??_C@_0BK@EJMH@Send?5to?5non?9literal?5super?$AA@ 0049315c     tloop.obj
 0003:00009178       ??_C@_0BN@LPPA@Bad?5dest?5type?5for?5temp?5store?$AA@ 00493178     tloop.obj
 0003:00009198       ??_C@_0BK@LGGD@?4?4?2?4?4?2?4?4?2src?2tran?2tloop?4c?$AA@ 00493198     tloop.obj
 0003:000091b4       ??_C@_0P@JPAD@store?5inst?5var?$AA@ 004931b4     tloadstore.obj
 0003:000091c4       ??_C@_0BB@ONIE@store?5inst?5var?5N?$AA@ 004931c4     tloadstore.obj
 0003:000091d8       ??_C@_09KIMP@tLoadInst?$AA@ 004931d8     tloadstore.obj
 0003:000091e4       ??_C@_03JEBB@bSP?$AA@      004931e4     tmain.obj
 0003:000091e8       ??_C@_06DLKF@bFrame?$AA@   004931e8     tmain.obj
 0003:000091f0       ??_C@_04DAGJ@bAux?$AA@     004931f0     tmain.obj
 0003:000091f8       ??_C@_0L@DGLJ@bPrimEntry?$AA@ 004931f8     tmain.obj
 0003:00009204       ??_C@_05HHOD@bInst?$AA@    00493204     tmain.obj
 0003:0000920c       ??_C@_05NMJI@bTemp?$AA@    0049320c     tmain.obj
 0003:00009214       ??_C@_08MPJE@rNumArgs?$AA@ 00493214     tmain.obj
 0003:00009220       ??_C@_06BPEK@rClass?$AA@   00493220     tmain.obj
 0003:00009228       ??_C@_07KLOE@rResult?$AA@  00493228     tmain.obj
 0003:00009230       ??_C@_09NFP@rReceiver?$AA@ 00493230     tmain.obj
 0003:0000923c       ??_C@_05NOMN@rTemp?$AA@    0049323c     tmain.obj
 0003:00009244       ??_C@_0BF@JMGL@Overran?5working?5area?$AA@ 00493244     tmain.obj
 0003:0000925c       ??_C@_0BK@GAHC@?4?4?2?4?4?2?4?4?2src?2tran?2tmain?4c?$AA@ 0049325c     tmain.obj
 0003:00009278       ??_C@_0BP@HLGH@?6?9?9?9?9?9?9?5Translating?5?$CFs?5?9?9?9?9?9?9?6?$AA@ 00493278     tmain.obj
 0003:00009298       ??_C@_0O@GKHM@CompactedCode?$AA@ 00493298     tmain.obj
 0003:000092a8       ??_C@_09DAEF@OtherCode?$AA@ 004932a8     tmain.obj
 0003:000092b4       ??_C@_0CA@OELM@OE_PROFILE?5nzone?5table?5overflow?$AA@ 004932b4     tmain.obj
 0003:000092d4       ??_C@_04MOFI@?$CFs?$CFd?$AA@ 004932d4     tmain.obj
 0003:000092dc       ??_C@_0N@HMDH@?5?5?5vPC?5?$DN?5?$CFd?6?$AA@ 004932dc     tmain.obj
 0003:000092ec       ??_C@_0BP@KEKH@?6Translator?5problem?5?$CFs?5?$CFd?3?5?$CFs?6?$AA@ 004932ec     tmain.obj
 0003:0000930c       ??_C@_03NBGP@?5?$CFx?$AA@  0049330c     tmain.obj
 0003:00009310       ??_C@_0M@MAPN@?6nbytes?$DN?$CFd?6?$AA@ 00493310     tmain.obj
 0003:0000931c       ??_C@_04GIDK@?5?$CFlx?$AA@ 0049331c     tmain.obj
 0003:00009324       ??_C@_0M@PODK@numLits?$DN?$CFd?6?$AA@ 00493324     tmain.obj
 0003:00009330       ??_C@_0CJ@BFMO@?5?5numArgs?$DN?$CFd?5?5numTemps?$DN?$CFd?5?5frame@ 00493330     tmain.obj
 0003:0000935c       ??_C@_0M@ED@?5?5bytes?$DN?$CFlx?$AA@ 0049335c     tmain.obj
 0003:00009368       ??_C@_08BNGJ@?5?9?9?9?9?9?9?6?$AA@ 00493368     tmain.obj
 0003:00009374       ??_C@_0BC@CMJB@?5?$FLfor?5PC?5mapping?$FN?$AA@ 00493374     tmain.obj
 0003:00009388       ??_C@_06DBMK@?1?$CFlx?5?$CI?$AA@ 00493388     tmain.obj
 0003:00009390       ??_C@_0BI@ELEF@?6?9?9?9?9?9?9?5Translating?5?$CFlx?$AA@ 00493390     tmain.obj
 0003:000093a8       ??_C@_08NMBG@PC?5map?3?6?$AA@ 004933a8     tmain.obj
 0003:000093b4       ??_C@_0BB@CCOG@Return?3?5?50x?$CF06x?6?$AA@ 004933b4     tmain.obj
 0003:000093c8       ??_C@_0BG@IJCN@Return?3?5?5?$CFs?5?$CI0x?$CF06x?$CJ?6?$AA@ 004933c8     tmain.obj
 0003:000093e0       ??_C@_0BB@DAEJ@Restart?3?50x?$CF06x?6?$AA@ 004933e0     tmain.obj
 0003:000093f4       ??_C@_0BG@NIBD@Restart?3?5?$CFs?5?$CI0x?$CF06x?$CJ?6?$AA@ 004933f4     tmain.obj
 0003:0000940c       ??_C@_02FLIJ@?7?$CB?$AA@   0049340c     tmain.obj
 0003:00009410       ??_C@_06LNBK@_?$CFlx?3?7?$AA@ 00493410     tmain.obj
 0003:00009418       ??_C@_04NDKD@?$CFs?3?7?$AA@ 00493418     tmain.obj
 0003:00009420       ??_C@_0BF@NMGE@?3?7?4word?50x?$CF04x?$CI?$CFs?$CJ?7?$CB?$AA@ 00493420     tmain.obj
 0003:00009438       ??_C@_0CD@EDDO@?$CFs?3?7?4word?50x?$CF04x?$CIoffset?5from?5nm?$CJ@ 00493438     tmain.obj
 0003:0000945c       ??_C@_04CMBK@?$CFs?3?6?$AA@ 0049345c     tmain.obj
 0003:00009464       ??_C@_08HHKJ@vpc?5?$CFd?3?6?$AA@ 00493464     tmain.obj
 0003:00009470       ??_C@_0O@OGOK@?$CFs?5?$CIvpc?5?$CFd?$CJ?3?6?$AA@ 00493470     tmain.obj
 0003:00009480       ??_C@_01FCOA@?5?$AA@       00493480     tmain.obj
 0003:00009484       ??_C@_04BOHM@map?3?$AA@    00493484     tmain.obj
 0003:0000948c       ??_C@_0N@HHBC@abort?5return?$AA@ 0049348c     tmain.obj
 0003:0000949c       ??_C@_0BE@LEAF@abort?5offset?5offset?$AA@ 0049349c     tmain.obj
 0003:000094b0       ??_C@_0BE@MIBJ@cannot?9resume?5entry?$AA@ 004934b0     tmain.obj
 0003:000094c4       ??_C@_0M@GJLM@prim?5return?$AA@ 004934c4     tmain.obj
 0003:000094d0       ??_C@_0N@DMML@prim?5restart?$AA@ 004934d0     tmain.obj
 0003:000094e0       ??_C@_0P@DHMA@no?9check?5entry?$AA@ 004934e0     tmain.obj
 0003:000094f0       ??_C@_0O@EDNJ@non?9imm?5entry?$AA@ 004934f0     tmain.obj
 0003:00009500       ??_C@_0BH@CBB@abort?5send?5miss?5return?$AA@ 00493500     tmain.obj
 0003:00009518       ??_C@_0L@MECE@glue?5entry?$AA@ 00493518     tmain.obj
 0003:00009524       ??_C@_05BAMO@entry?$AA@    00493524     tmain.obj
 0003:0000952c       ??_C@_06DCAO@?5?$CF02lx?$AA@ 0049352c     tmain.obj
 0003:00009534       ??_C@_06FIEM@rArg?$CFd?$AA@ 00493534     tmain.obj
 0003:0000953c       ??_C@_04BDPC@_?$CFlx?$AA@  0049353c     tmain.obj
 0003:00009544       ??_C@_08NEED@nm?$EA?$CF03lx?$AA@ 00493544     tmain.obj
 0003:00009550       ??_C@_05IFNH@0x?$CFx?$DP?$AA@ 00493550     tmaprt.obj
 0003:00009558       ??_C@_08PBIM@0x?$CFx?3?5?$CFs?$AA@ 00493558     tmaprt.obj
 0003:00009564       ??_C@_08CBA@loc?9prog?$AA@ 00493564     tmaprt.obj
 0003:00009570       ??_C@_08GAPF@rel?9call?$AA@ 00493570     tmaprt.obj
 0003:0000957c       ??_C@_07IOKF@new?9sel?$AA@ 0049357c     tmaprt.obj
 0003:00009584       ??_C@_07JDCN@new?9lit?$AA@ 00493584     tmaprt.obj
 0003:0000958c       ??_C@_03DNBD@end?$AA@      0049358c     tmaprt.obj
 0003:00009590       ??_C@_04PJAD@send?$AA@     00493590     tmaprt.obj
 0003:00009598       ??_C@_05MOGF@delta?$AA@    00493598     tmaprt.obj
 0003:000095a0       ??_C@_0O@FDMI@non?9imm?9send1?$AA@ 004935a0     tmaprt.obj
 0003:000095b0       ??_C@_0O@PJFP@non?9imm?9send0?$AA@ 004935b0     tmaprt.obj
 0003:000095c0       ??_C@_05GOPO@send1?$AA@    004935c0     tmaprt.obj
 0003:000095c8       ??_C@_0N@IFKD@0x?$CFx?3?5?$CFs?$CI?$CFd?$CJ?$AA@ 004935c8     tmaprt.obj
 0003:000095d8       ??_C@_05MEGJ@send0?$AA@    004935d8     tmaprt.obj
 0003:000095e0       ??_C@_06OMHN@unused?$AA@   004935e0     tmaprt.obj
 0003:000095e8       ??_C@_06JIDE@?5?$CD?$CF?4?$CKs?$AA@ 004935e8     tmaprt.obj
 0003:000095f0       ??_C@_0BM@LFNN@?4?4?2?4?4?2?4?4?2src?2tran?2tnmprim?4c?$AA@ 004935f0     tnmprim.obj
 0003:0000960c       ??_C@_09CNAK@?4NZoneEnd?$AA@ 0049360c     tnmprim.obj
 0003:00009618       ??_C@_0M@NENB@?4NMethodEnd?$AA@ 00493618     tnmprim.obj
 0003:00009624       ??_C@_06GOOI@?4NZone?$AA@  00493624     tnmprim.obj
 0003:0000962c       ??_C@_0M@JNMH@OpenPICSize?$AA@ 0049362c     tnmprim.obj
 0003:00009638       ??_C@_0O@DKJA@ClosedPICSize?$AA@ 00493638     tnmprim.obj
 0003:00009648       ??_C@_0BF@PCGB@PICFirstTargetOffset?$AA@ 00493648     tnmprim.obj
 0003:00009660       ??_C@_0BA@BGF@PICTypeCaseSize?$AA@ 00493660     tnmprim.obj
 0003:00009670       ??_C@_0BC@DJPO@primitiveJumpSize?$AA@ 00493670     tnmprim.obj
 0003:00009684       ??_C@_0BC@CM@cannotResumeEntry?$AA@ 00493684     tnmprim.obj
 0003:00009698       ??_C@_0BK@CIFD@abortSendMissReturnOffset?$AA@ 00493698     tnmprim.obj
 0003:000096b4       ??_C@_0P@NHKJ@blockGlueEntry?$AA@ 004936b4     tnmprim.obj
 0003:000096c4       ??_C@_0L@LPBA@blockEntry?$AA@ 004936c4     tnmprim.obj
 0003:000096d0       ??_C@_09PKED@glueEntry?$AA@ 004936d0     tnmprim.obj
 0003:000096dc       ??_C@_0N@KGGI@entryNoCheck?$AA@ 004936dc     tnmprim.obj
 0003:000096ec       ??_C@_0M@HHIJ@entryNonImm?$AA@ 004936ec     tnmprim.obj
 0003:000096f8       ??_C@_08KKDN@nmdc?4txt?$AA@ 004936f8     tnmprim.obj
 0003:00009704       ??_C@_03PDDH@wb?$CL?$AA@   00493704     tnmprim.obj
 0003:00009708       ??_C@_0CD@DHKB@Can?8t?5allocate?5primitive?5sub?9tab@ 00493708     tprim.obj
 0003:0000972c       ??_C@_0BK@EAFA@?4?4?2?4?4?2?4?4?2src?2tran?2tprim?4c?$AA@ 0049372c     tprim.obj
 0003:00009748       _tsInlineOnlyArithMaxIndex 00493748     tspecial.obj
 0003:0000974c       _tsInlineAllMaxIndex       0049374c     tspecial.obj
 0003:00009750       ??_C@_0L@FFMG@tAddSub?$CIc?$CJ?$AA@ 00493750     tspecial.obj
 0003:0000975c       ??_C@_0L@BCDK@tAddSub?$CIq?$CJ?$AA@ 0049375c     tspecial.obj
 0003:00009768       ??_C@_05NFOO@tReln?$AA@    00493768     tspecial.obj
 0003:00009770       ??_C@_0BL@DJOG@?4?4?2?4?4?2?4?4?2src?2tran?2tstack?4c?$AA@ 00493770     tstack.obj
 0003:0000978c       ??_C@_0BH@OHOP@Bad?5type?5in?5tStackPush?$AA@ 0049378c     tstack.obj
 0003:000097a4       ??_C@_0BH@KBPM@Bad?5type?5in?5tStackLoad?$AA@ 004937a4     tstack.obj
 0003:000097bc       ??_C@_0BL@BGFF@Bad?5type?5in?5tStackLoadBase?$AA@ 004937bc     tstack.obj
 0003:000097d8       ??_C@_0BO@JDGH@Bad?5type?5in?5tStackCompareBase?$AA@ 004937d8     tstack.obj
 0003:000097f8       _hasTransFloatPrims        004937f8     txarith.obj
 0003:000097fc       ??_C@_0BE@BBFC@abort?5send?5no?5frame?$AA@ 004937fc     txcontrol.obj
 0003:00009810       ??_C@_0BA@PIGM@abort?5prim?5fail?$AA@ 00493810     txcontrol.obj
 0003:00009820       ??_C@_0L@IBMG@abort?5send?$AA@ 00493820     txcontrol.obj
 0003:0000982c       ??_C@_0BL@HDNO@make?5copying?5block?51?5value?$AA@ 0049382c     txmem.obj
 0003:00009848       ??_C@_0BP@LAFE@threshold_refs?5table?5too?5small?$AA@ 00493848     txmem.obj
 0003:00009868       ??_C@_0BK@DBAM@?4?4?2?4?4?2?4?4?2src?2tran?2txmem?4c?$AA@ 00493868     txmem.obj
 0003:00009884       ??_C@_0BE@CBIN@closed?5PIC?5template?$AA@ 00493884     tpic.obj
 0003:00009898       ??_C@_0FN@NAEN@nPIC?5?$CFlx?3?5?$CFs?6?5?5usedSize?$DN0x?$CFx?5lin@ 00493898     tpic.obj
 0003:000098f8       ??_C@_07OPMI@?5in?9use?$AA@ 004938f8     tpic.obj
 0003:00009900       ??_C@_05JAJ@?5Open?$AA@    00493900     tpic.obj
 0003:00009908       ??_C@_0BC@MLKP@?5with?5MNU?5Case?$CIs?$CJ?$AA@ 00493908     tpic.obj
 0003:0000991c       ??_C@_07NIFA@?5Closed?$AA@ 0049391c     tpic.obj
 0003:00009924       ??_C@_0BN@ELNC@case?5?$CFd?3?50x?$CFlx?0?5class?50x?$CFlx?6?$AA@ 00493924     tpic.obj
 0003:00009944       ??_C@_0BN@JLOI@case?5?$CFd?5is?5MNU?0?5class?50x?$CFlx?6?$AA@ 00493944     tpic.obj
 0003:00009964       ??_C@_0P@JBEJ@case?50?3?50x?$CFlx?6?$AA@ 00493964     tpic.obj
 0003:00009974       ??_C@_0P@PPLC@case?50?5is?5MNU?6?$AA@ 00493974     tpic.obj
 0003:00009984       ??_C@_0BD@GNMA@mnuNMethod?3?50x?$CFlx?6?$AA@ 00493984     tpic.obj
 0003:00009998       ??_C@_0DN@KJFA@fadd?$AAfmul?$AAfcom?$AAfcomp?$AAfsub?$AAfsubr?$AA@ 00493998     procPentiumdis.obj
 0003:000099d8       ??_C@_0CC@GABI@rol?$AAror?$AArcl?$AArcr?$AAshl?$AAshr?$AAsh6?$DP?$DP?$AAsa@ 004939d8     procPentiumdis.obj
 0003:000099fc       ??_C@_0BP@JKFF@add?$AAor?$AAadc?$AAsbb?$AAand?$AAsub?$AAxor?$AAcmp?$AA@ 004939fc     procPentiumdis.obj
 0003:00009a1c       ??_C@_03CKG@std?$AA@       00493a1c     procPentiumdis.obj
 0003:00009a20       ??_C@_03PMDB@cld?$AA@      00493a20     procPentiumdis.obj
 0003:00009a24       ??_C@_03FHED@stc?$AA@      00493a24     procPentiumdis.obj
 0003:00009a28       ??_C@_03KJNE@clc?$AA@      00493a28     procPentiumdis.obj
 0003:00009a2c       ??_C@_03LPHO@cmc?$AA@      00493a2c     procPentiumdis.obj
 0003:00009a30       ??_C@_04NOME@repe?$AA@     00493a30     procPentiumdis.obj
 0003:00009a38       ??_C@_07HHHM@rep?$CIne?$CJ?$AA@ 00493a38     procPentiumdis.obj
 0003:00009a40       ??_C@_04GCHN@jmpJ?$AA@     00493a40     procPentiumdis.obj
 0003:00009a48       ??_C@_04JEML@jmp?5?$AA@    00493a48     procPentiumdis.obj
 0003:00009a50       ??_C@_03CLBE@jmp?$AA@      00493a50     procPentiumdis.obj
 0003:00009a54       ??_C@_04JNJF@call?$AA@     00493a54     procPentiumdis.obj
 0003:00009a5c       ??_C@_05ICAG@jcxzJ?$AA@    00493a5c     procPentiumdis.obj
 0003:00009a64       ??_C@_05PKAL@loopJ?$AA@    00493a64     procPentiumdis.obj
 0003:00009a6c       ??_C@_06BEPP@loopeJ?$AA@   00493a6c     procPentiumdis.obj
 0003:00009a74       ??_C@_07MLJP@loopneJ?$AA@  00493a74     procPentiumdis.obj
 0003:00009a7c       ??_C@_04DLH@xlat?$AA@      00493a7c     procPentiumdis.obj
 0003:00009a84       ??_C@_07MEKE@XF?5cl?0W?$AA@ 00493a84     procPentiumdis.obj
 0003:00009a8c       ??_C@_08DNCJ@XFb?5cl?0B?$AA@ 00493a8c     procPentiumdis.obj
 0003:00009a98       ??_C@_07EEKG@XF?5$1?0W?$AA@ 00493a98     procPentiumdis.obj
 0003:00009aa0       ??_C@_08LNCL@XFb?5$1?0B?$AA@ 00493aa0     procPentiumdis.obj
 0003:00009aac       ??_C@_04HLNH@retf?$AA@     00493aac     procPentiumdis.obj
 0003:00009ab4       ??_C@_06LIEJ@retf?5$?$AA@  00493ab4     procPentiumdis.obj
 0003:00009abc       ??_C@_05MCLP@leave?$AA@    00493abc     procPentiumdis.obj
 0003:00009ac4       ??_C@_06FKFA@enter?5?$AA@  00493ac4     procPentiumdis.obj
 0003:00009acc       ??_C@_09JJMB@Xmov?5$C?0W?$AA@ 00493acc     procPentiumdis.obj
 0003:00009ad8       ??_C@_0L@EOML@Xmovb?5$Q?0B?$AA@ 00493ad8     procPentiumdis.obj
 0003:00009ae4       ??_C@_08MHIH@Xlds?5W?0R?$AA@ 00493ae4     procPentiumdis.obj
 0003:00009af0       ??_C@_08FCCH@Xles?5W?0R?$AA@ 00493af0     procPentiumdis.obj
 0003:00009afc       ??_C@_03IFMD@ret?$AA@      00493afc     procPentiumdis.obj
 0003:00009b00       ??_C@_05ICJN@ret?5$?$AA@   00493b00     procPentiumdis.obj
 0003:00009b08       ??_C@_07JGCL@XF?5$K?0W?$AA@ 00493b08     procPentiumdis.obj
 0003:00009b10       ??_C@_08GPKG@XFb?5$K?0B?$AA@ 00493b10     procPentiumdis.obj
 0003:00009b1c       ??_C@_04DNOA@scas?$AA@     00493b1c     procPentiumdis.obj
 0003:00009b24       ??_C@_05GHDD@scasb?$AA@    00493b24     procPentiumdis.obj
 0003:00009b2c       ??_C@_04CMAA@lods?$AA@     00493b2c     procPentiumdis.obj
 0003:00009b34       ??_C@_05KBCC@lodsb?$AA@    00493b34     procPentiumdis.obj
 0003:00009b3c       ??_C@_04GAEA@stos?$AA@     00493b3c     procPentiumdis.obj
 0003:00009b44       ??_C@_05LEGO@stosb?$AA@    00493b44     procPentiumdis.obj
 0003:00009b4c       ??_C@_0L@DLEM@test?5$C?0ZR?$AA@ 00493b4c     procPentiumdis.obj
 0003:00009b58       ??_C@_0M@FANO@testb?5$Q?0ZH?$AA@ 00493b58     procPentiumdis.obj
 0003:00009b64       ??_C@_04GIAA@cmps?$AA@     00493b64     procPentiumdis.obj
 0003:00009b6c       ??_C@_05ODGG@cmpsb?$AA@    00493b6c     procPentiumdis.obj
 0003:00009b74       ??_C@_04EOKO@movs?$AA@     00493b74     procPentiumdis.obj
 0003:00009b7c       ??_C@_05IEEA@movsb?$AA@    00493b7c     procPentiumdis.obj
 0003:00009b84       ??_C@_09GLLM@movb?5ZR?0D?$AA@ 00493b84     procPentiumdis.obj
 0003:00009b90       ??_C@_09HOEO@movb?5ZH?0D?$AA@ 00493b90     procPentiumdis.obj
 0003:00009b9c       ??_C@_09GFJF@movb?5D?0ZR?$AA@ 00493b9c     procPentiumdis.obj
 0003:00009ba8       ??_C@_09MNHD@movb?5D?0ZH?$AA@ 00493ba8     procPentiumdis.obj
 0003:00009bb4       ??_C@_04BGIH@lahf?$AA@     00493bb4     procPentiumdis.obj
 0003:00009bbc       ??_C@_04JDII@sahf?$AA@     00493bbc     procPentiumdis.obj
 0003:00009bc4       ??_C@_04FPEB@popf?$AA@     00493bc4     procPentiumdis.obj
 0003:00009bcc       ??_C@_05MGII@pushf?$AA@    00493bcc     procPentiumdis.obj
 0003:00009bd4       ??_C@_05OLHN@call?5?$AA@   00493bd4     procPentiumdis.obj
 0003:00009bdc       ??_C@_03BIDD@cwd?$AA@      00493bdc     procPentiumdis.obj
 0003:00009be0       ??_C@_03GIFD@cbw?$AA@      00493be0     procPentiumdis.obj
 0003:00009be4       ??_C@_03EOBL@nop?$AA@      00493be4     procPentiumdis.obj
 0003:00009be8       ??_C@_06NEFK@Xpop?5W?$AA@  00493be8     procPentiumdis.obj
 0003:00009bf0       ??_C@_08HANE@Xmov?5W?0S?$AA@ 00493bf0     procPentiumdis.obj
 0003:00009bfc       ??_C@_08BADI@Xlea?5W?0R?$AA@ 00493bfc     procPentiumdis.obj
 0003:00009c08       ??_C@_08JCNC@Xmov?5S?0W?$AA@ 00493c08     procPentiumdis.obj
 0003:00009c14       ??_C@_09KCJJ@Xxchg?5W?0R?$AA@ 00493c14     procPentiumdis.obj
 0003:00009c20       ??_C@_0L@HDNE@Xxchgb?5B?0H?$AA@ 00493c20     procPentiumdis.obj
 0003:00009c2c       ??_C@_09IPPD@Xtest?5W?0R?$AA@ 00493c2c     procPentiumdis.obj
 0003:00009c38       ??_C@_0L@NCPJ@Xtestb?5B?0H?$AA@ 00493c38     procPentiumdis.obj
 0003:00009c44       ??_C@_03EJBD@jgJ?$AA@      00493c44     procPentiumdis.obj
 0003:00009c48       ??_C@_04BGMC@jleJ?$AA@     00493c48     procPentiumdis.obj
 0003:00009c50       ??_C@_04HAEM@jgeJ?$AA@     00493c50     procPentiumdis.obj
 0003:00009c58       ??_C@_03MHLI@jlJ?$AA@      00493c58     procPentiumdis.obj
 0003:00009c5c       ??_C@_04HHEG@jpoJ?$AA@     00493c5c     procPentiumdis.obj
 0003:00009c64       ??_C@_04OPEH@jpeJ?$AA@     00493c64     procPentiumdis.obj
 0003:00009c6c       ??_C@_04KPLJ@jnsJ?$AA@     00493c6c     procPentiumdis.obj
 0003:00009c74       ??_C@_03HJBA@jsJ?$AA@      00493c74     procPentiumdis.obj
 0003:00009c78       ??_C@_03DOOM@jaJ?$AA@      00493c78     procPentiumdis.obj
 0003:00009c7c       ??_C@_04GKAA@jbeJ?$AA@     00493c7c     procPentiumdis.obj
 0003:00009c84       ??_C@_04MEH@jnzJ?$AA@      00493c84     procPentiumdis.obj
 0003:00009c8c       ??_C@_03NKOO@jzJ?$AA@      00493c8c     procPentiumdis.obj
 0003:00009c90       ??_C@_04JMDL@jaeJ?$AA@     00493c90     procPentiumdis.obj
 0003:00009c98       ??_C@_03FBD@jbJ?$AA@       00493c98     procPentiumdis.obj
 0003:00009c9c       ??_C@_04CKOO@jnoJ?$AA@     00493c9c     procPentiumdis.obj
 0003:00009ca4       ??_C@_03PMEH@joJ?$AA@      00493ca4     procPentiumdis.obj
 0003:00009ca8       ??_C@_07ILDA@push?5$Q?$AA@ 00493ca8     procPentiumdis.obj
 0003:00009cb0       ??_C@_07HHGO@push?5$C?$AA@ 00493cb0     procPentiumdis.obj
 0003:00009cb8       ??_C@_04KKE@popa?$AA@      00493cb8     procPentiumdis.obj
 0003:00009cc0       ??_C@_05JDGN@pusha?$AA@    00493cc0     procPentiumdis.obj
 0003:00009cc8       ??_C@_03FNNN@aas?$AA@      00493cc8     procPentiumdis.obj
 0003:00009ccc       ??_C@_09LECG@cmp?5$C?0ZR?$AA@ 00493ccc     procPentiumdis.obj
 0003:00009cd8       ??_C@_0L@BLFB@cmpb?5$Q?0ZH?$AA@ 00493cd8     procPentiumdis.obj
 0003:00009ce4       ??_C@_03KBID@aaa?$AA@      00493ce4     procPentiumdis.obj
 0003:00009ce8       ??_C@_09JEL@xor?5$C?0ZR?$AA@ 00493ce8     procPentiumdis.obj
 0003:00009cf4       ??_C@_0L@BNOM@xorb?5$Q?0ZH?$AA@ 00493cf4     procPentiumdis.obj
 0003:00009d00       ??_C@_03EHJB@das?$AA@      00493d00     procPentiumdis.obj
 0003:00009d04       ??_C@_09OHEI@sub?5$C?0ZR?$AA@ 00493d04     procPentiumdis.obj
 0003:00009d10       ??_C@_0L@MDAC@subb?5$Q?0ZH?$AA@ 00493d10     procPentiumdis.obj
 0003:00009d1c       ??_C@_03LLMP@daa?$AA@      00493d1c     procPentiumdis.obj
 0003:00009d20       ??_C@_09LLMJ@and?5$C?0ZR?$AA@ 00493d20     procPentiumdis.obj
 0003:00009d2c       ??_C@_0L@OAFO@andb?5$Q?0ZH?$AA@ 00493d2c     procPentiumdis.obj
 0003:00009d38       ??_C@_08OEIG@or?5$C?0ZR?$AA@ 00493d38     procPentiumdis.obj
 0003:00009d44       ??_C@_09JHAB@orb?5$Q?0ZH?$AA@ 00493d44     procPentiumdis.obj
 0003:00009d50       ??_C@_09GKOA@add?5$C?0ZR?$AA@ 00493d50     procPentiumdis.obj
 0003:00009d5c       ??_C@_0L@HGIP@addb?5$Q?0ZH?$AA@ 00493d5c     procPentiumdis.obj
 0003:00009d68       ??_C@_0CP@DPEG@Xb?5H?0B?$AAX?5R?0W?$AAXb?5B?0H?$AAX?5W?0R?$AAb?5$Q?0Z@ 00493d68     procPentiumdis.obj
 0003:00009d98       ??_C@_0BK@IDI@b?5$Q?0B?$AA?5$C?0W?$AAb?5$Q?0B?$AA?5$Q?0W?$AA@ 00493d98     procPentiumdis.obj
 0003:00009db4       ??_C@_0BI@PMGF@es?$AAcs?$AAss?$AAds?$AAfs?$AAgs?$AGs?$DP?$AHs?$DP?$AA@ 00493db4     procPentiumdis.obj
 0003:00009dcc       ??_C@_06ECAN@?4byte?5?$AA@ 00493dcc     procPentiumdis.obj
 0003:00009dd4       ??_C@_0M@PJHJ@?4byte?50x0f?0?$AA@ 00493dd4     procPentiumdis.obj
 0003:00009de0       ??_C@_05DLFL@cpuid?$AA@    00493de0     procPentiumdis.obj
 0003:00009de8       ??_C@_05LLHN@?5$K?0W?$AA@  00493de8     procPentiumdis.obj
 0003:00009df0       ??_C@_0CD@BDLL@bt0?$DP?$AAbt1?$DP?$AAbt2?$DP?$AAbt3?$DP?$AAbt?$AAbts?$AAbtr?$AAb@ 00493df0     procPentiumdis.obj
 0003:00009e14       ??_C@_09COOI@Ximul?5W?0R?$AA@ 00493e14     procPentiumdis.obj
 0003:00009e20       ??_C@_08HFOF@Xlss?5W?0R?$AA@ 00493e20     procPentiumdis.obj
 0003:00009e2c       ??_C@_08HJGH@Xlgs?5W?0R?$AA@ 00493e2c     procPentiumdis.obj
 0003:00009e38       ??_C@_08OMMH@Xlfs?5W?0R?$AA@ 00493e38     procPentiumdis.obj
 0003:00009e44       ??_C@_09IOBM@Xmovs?5W?0R?$AA@ 00493e44     procPentiumdis.obj
 0003:00009e50       ??_C@_0L@CDBO@Xmovsb?5B?0R?$AA@ 00493e50     procPentiumdis.obj
 0003:00009e5c       ??_C@_09CPBD@Xmovz?5W?0R?$AA@ 00493e5c     procPentiumdis.obj
 0003:00009e68       ??_C@_0L@BLLP@Xmovzb?5B?0R?$AA@ 00493e68     procPentiumdis.obj
 0003:00009e74       ??_C@_0JN@PPFL@fchs?$AAfabs?$AA?$AA?$AAftst?$AAfxam?$AA?$AA?$AAfld1?$AAfld@ 00493e74     procPentiumdis.obj
 0003:00009f14       ??_C@_04GEEH@?5ST?$CI?$AA@ 00493f14     procPentiumdis.obj
 0003:00009f1c       ??_C@_0BI@CLBI@fld?$AAffree?$AAfxch?$AAfst?$AAfstp?$AA@ 00493f1c     procPentiumdis.obj
 0003:00009f34       ??_C@_08BMNL@fstsw?5ax?$AA@ 00493f34     procPentiumdis.obj
 0003:00009f40       ??_C@_0BD@MNCM@fclex?$AAfinit?$AAfsetpm?$AA@ 00493f40     procPentiumdis.obj
 0003:00009f54       ??_C@_06GEDN@fcompp?$AA@   00493f54     procPentiumdis.obj
 0003:00009f5c       ??_C@_04GPDA@fnop?$AA@     00493f5c     procPentiumdis.obj
 0003:00009f64       ??_C@_07FBDA@?$AAp?$AA?$HO?$AA?$HOp?$AA@ 00493f64     procPentiumdis.obj
 0003:00009f6c       ??_C@_02IMAH@?5W?$AA@      00493f6c     procPentiumdis.obj
 0003:00009f70       ??_C@_0FB@CMBL@fldenv?$AA?$AAfrstor?$AAfldb?$AAfldcw?$AAfldx?$AA?$AA@ 00493f70     procPentiumdis.obj
 0003:00009fc4       ??_C@_0BA@FMJD@s?5W?$AAh?5W?$AAd?5W?$AAi?5W?$AA@ 00493fc4     procPentiumdis.obj
 0003:00009fd4       ??_C@_06GBMB@b?5B?$AA?5W?$AA@ 00493fd4     procPentiumdis.obj
 0003:00009fdc       ??_C@_0FE@LFEJ@test?$AAf6?11?$DP?$AAnot?$AAneg?$AAmul?$AAimul?$AAdiv?$AA@ 00493fdc     procPentiumdis.obj
 0003:0000a030       ??_C@_01PFH@A?$AA@         00494030     procPentiumdis.obj
 0003:0000a034       ??_C@_03JFOM@?$CFld?$AA@   00494034     procPentiumdis.obj
 0003:0000a038       ??_C@_05EFPB@0x?$CFlx?$AA@ 00494038     procPentiumdis.obj
 0003:0000a040       ??_C@_06JPNE@?90x?$CFlx?$AA@ 00494040     procPentiumdis.obj
 0003:0000a048       ??_C@_0DA@HGFB@ax?$AAcx?$AAdx?$AAbx?$AAsp?$AAbp?$AAsi?$AAdi?$AAal?$AAcl?$AAdl@ 00494048     procPentiumdis.obj
 0003:0000a088       ??_C@_0BA@FKCH@need?5dictionary?$AA@ 00494088     zlib:inflate.obj
 0003:0000a098       ??_C@_0BF@OBFI@incorrect?5data?5check?$AA@ 00494098     zlib:inflate.obj
 0003:0000a0b0       ??_C@_0BH@NLIB@incorrect?5header?5check?$AA@ 004940b0     zlib:inflate.obj
 0003:0000a0c8       ??_C@_0BE@FAJE@invalid?5window?5size?$AA@ 004940c8     zlib:inflate.obj
 0003:0000a0dc       ??_C@_0BL@KPEJ@unknown?5compression?5method?$AA@ 004940dc     zlib:inflate.obj
 0003:0000a0f8       ??_C@_0BF@HPBB@incompatible?5version?$AA@ 004940f8     zlib:zutil.obj
 0003:0000a110       ??_C@_0N@EHHN@buffer?5error?$AA@ 00494110     zlib:zutil.obj
 0003:0000a120       ??_C@_0BE@EMHE@insufficient?5memory?$AA@ 00494120     zlib:zutil.obj
 0003:0000a134       ??_C@_0L@EBEB@data?5error?$AA@ 00494134     zlib:zutil.obj
 0003:0000a140       ??_C@_0N@OPOA@stream?5error?$AA@ 00494140     zlib:zutil.obj
 0003:0000a150       ??_C@_0L@DFEP@file?5error?$AA@ 00494150     zlib:zutil.obj
 0003:0000a15c       ??_C@_0L@JPFB@stream?5end?$AA@ 0049415c     zlib:zutil.obj
 0003:0000a168       ??_C@_0BF@KHAC@?$CFc?$CFc?$CFc?$CFc?$CFc?$CFc?$CFc?$CFc?$CFc?$CFc?$AA@ 00494168     zlib:gzio.obj
 0003:0000a180       ??_C@_07GLHK@?$DMfd?3?$CFd?$DO?$AA@ 00494180     zlib:gzio.obj
 0003:0000a188       ??_C@_02HFBK@?3?5?$AA@     00494188     zlib:gzio.obj
 0003:0000a190       _deflate_copyright         00494190     zlib:deflate.obj
 0003:0000a68c       ??_C@_0BK@BNJN@invalid?5bit?5length?5repeat?$AA@ 0049468c     zlib:infblock.obj
 0003:0000a6a8       ??_C@_0CE@LAKP@too?5many?5length?5or?5distance?5symb@ 004946a8     zlib:infblock.obj
 0003:0000a6cc       ??_C@_0BN@DBOJ@invalid?5stored?5block?5lengths?$AA@ 004946cc     zlib:infblock.obj
 0003:0000a6ec       ??_C@_0BD@IFBC@invalid?5block?5type?$AA@ 004946ec     zlib:infblock.obj
 0003:0000ad44       __dist_code                00494d44     zlib:trees.obj
 0003:0000af44       __length_code              00494f44     zlib:trees.obj
 0003:0000b130       ??_C@_0BG@EGK@invalid?5distance?5code?$AA@ 00495130     zlib:infcodes.obj
 0003:0000b148       ??_C@_0BM@CHJP@invalid?5literal?1length?5code?$AA@ 00495148     zlib:infcodes.obj
 0003:0000b164       _inflate_copyright         00495164     zlib:inftrees.obj
 0003:0000b37c       ??_C@_0CE@MFNM@incomplete?5dynamic?5bit?5lengths?5t@ 0049537c     zlib:inftrees.obj
 0003:0000b3a0       ??_C@_0CI@BBGL@oversubscribed?5dynamic?5bit?5lengt@ 004953a0     zlib:inftrees.obj
 0003:0000b3c8       ??_C@_0BP@KPP@incomplete?5literal?1length?5tree?$AA@ 004953c8     zlib:inftrees.obj
 0003:0000b3e8       ??_C@_0CD@ODII@oversubscribed?5literal?1length?5tr@ 004953e8     zlib:inftrees.obj
 0003:0000b40c       ??_C@_0CB@INA@empty?5distance?5tree?5with?5lengths@ 0049540c     zlib:inftrees.obj
 0003:0000b430       ??_C@_0BJ@NKOC@incomplete?5distance?5tree?$AA@ 00495430     zlib:inftrees.obj
 0003:0000b44c       ??_C@_0BN@OAAG@oversubscribed?5distance?5tree?$AA@ 0049544c     zlib:inftrees.obj
 0003:0000b46c       __IMPORT_DESCRIPTOR_MSVCRT 0049546c     msvcrt:MSVCRT.dll
 0003:0000b480       __IMPORT_DESCRIPTOR_KERNEL32 00495480     kernel32:KERNEL32.dll
 0003:0000b494       __IMPORT_DESCRIPTOR_WSOCK32 00495494     wsock32:WSOCK32.dll
 0003:0000b4a8       __IMPORT_DESCRIPTOR_ADVAPI32 004954a8     advapi32:ADVAPI32.dll
 0003:0000b4bc       __IMPORT_DESCRIPTOR_USER32 004954bc     user32:USER32.dll
 0003:0000b4d0       __IMPORT_DESCRIPTOR_GDI32  004954d0     gdi32:GDI32.dll
 0003:0000b4e4       __IMPORT_DESCRIPTOR_comdlg32 004954e4     comdlg32:comdlg32.dll
 0003:0000b4f8       __IMPORT_DESCRIPTOR_WINMM  004954f8     winmm:WINMM.dll
 0003:0000b50c       __IMPORT_DESCRIPTOR_MPR    0049550c     mpr:MPR.dll
 0003:0000b520       __IMPORT_DESCRIPTOR_SHELL32 00495520     shell32:SHELL32.dll
 0003:0000b534       __NULL_IMPORT_DESCRIPTOR   00495534     msvcrt:MSVCRT.dll
 0004:00000000       ___xc_a                    00497000     msvcrt:cinitexe.obj
 0004:00000004       ___xc_z                    00497004     msvcrt:cinitexe.obj
 0004:00000008       ___xi_a                    00497008     msvcrt:cinitexe.obj
 0004:0000000c       ___xi_z                    0049700c     msvcrt:cinitexe.obj
 0004:00000010       _SccsId                    00497010     prUdummy.obj
 0004:00000060       __upKeyInc                 00497060     prUdummy.obj
 0004:00000064       _versionString             00497064     prUdummy.obj
 0004:00000068       _vm_id3                    00497068     prUdummy.obj
 0004:00000420       _programName               00497420     ntmain.obj
 0004:00000424       _saveScreenBackground      00497424     ntmain.obj
 0004:00000428       _winPlatformId             00497428     ntmain.obj
 0004:0000042a       _winMajorVersion           0049742a     ntmain.obj
 0004:0000042b       _winMinorVersion           0049742b     ntmain.obj
 0004:00000a0c       _BitBltPlugin_exports      00497a0c     exBitBlt.obj
 0004:00000ae8       _CCompositeClassX          00497ae8     exCallC.obj
 0004:00000aec       _CCompositePointerClassX   00497aec     exCallC.obj
 0004:00000af0       _CPointerClassX            00497af0     exCallC.obj
 0004:00000af4       _CProcedurePointerClassX   00497af4     exCallC.obj
 0004:00000af8       _CCallbackClassX           00497af8     exCallC.obj
 0004:00000afc       _CDatumClassX              00497afc     exCallC.obj
 0004:00000b00       _catchExternalCallErrors   00497b00     exCallC.obj
 0004:00000bac       _showHerald                00497bac     exInit.obj
 0004:00000bb0       _vm_id0                    00497bb0     exInit.obj
 0004:00000bb1       _vm_id1                    00497bb1     exInit.obj
 0004:00000bb2       _vm_id2                    00497bb2     exInit.obj
 0004:00000bbc       _callbackClassX            00497bbc     exMessage.obj
 0004:00000bc0       _callbackSelectorX         00497bc0     exMessage.obj
 0004:00000bc4       _callbackSemaphoreX        00497bc4     exMessage.obj
 0004:00000bc8       _nbCallbackSelectorX       00497bc8     exMessage.obj
 0004:00000bcc       _nbForeignCallbackProcessX 00497bcc     exMessage.obj
 0004:00000bd8       _platformStringClassX      00497bd8     exPrimUtil.obj
 0004:00000be8       _classNameX                00497be8     mmDebug.obj
 0004:00000bec       _thisClassX                00497bec     mmDebug.obj
 0004:00000c6c       _currentIncGCState         00497c6c     mmIncGC.obj
 0004:00000d1c       _permSpaceExists           00497d1c     mmPermSpace.obj
 0004:00000d24       _scavengeSemaphoreX        00497d24     mmScavenge.obj
 0004:00000d90       __CheckFunctions           00497d90     checks.obj
 0004:00000e08       _interruptPollCount        00497e08     services.obj
 0004:00000e0c       _interruptPoll             00497e0c     services.obj
 0004:00000e10       _allVToNTables             00497e10     nmlookup.obj
 0004:00000e48       _optEmpty                  00497e48     taction.obj
 0004:00000e68       _enableASOpt               00497e68     taction.obj
 0004:00000e6c       _enableLIOpt               00497e6c     taction.obj
 0004:00000e70       _enableROpt                00497e70     taction.obj
 0004:00000e78       _PrimGlueTable             00497e78     taux.obj
 0004:00000e8c       _FastPrimGlueTable         00497e8c     taux.obj
 0004:00000ea0       _UserPrimGlueTable         00497ea0     taux.obj
 0004:00000eb4       _rtFlushICache             00497eb4     tcgencode.obj
 0004:00000eb8       _notBTable                 00497eb8     tcodes.obj
 0004:00000ed0       _effectiveMaxVBytesJumpShort 00497ed0     tcodes.obj
 0004:00000ed4       _SendTable                 00497ed4     tinit.obj
 0004:00000f24       _sendTableSize             00497f24     tinit.obj
 0004:00000f28       _generatingRuntimeRoutines 00497f28     tinit.obj
 0004:00000f30       _maxTDebugVal              00497f30     tmain.obj
 0004:00000f34       _firstTimeFlag             00497f34     tmain.obj
 0004:00000fa8       _tSpecialProcs             00497fa8     tspecial.obj
 0004:00001004       _tsMaxIndex                00498004     tspecial.obj
 0004:000012f8       _emiss                     004982f8     txcontrol.obj
 0004:00001420       _enableTP                  00498420     txprim.obj
 0004:00001424       _enableTFP                 00498424     txprim.obj
 0004:00001a20       ___defaultmatherr          00498a20     msvcrt:merr.obj
 0004:00001a24       _z_errmsg                  00498a24     zlib:zutil.obj
 0004:00002ba8       _inflate_mask              00499ba8     zlib:infutil.obj
 0004:00002bf0       _userPollHandler           00499bf0     prUdummy.obj
 0004:00002c48       _gblhcursorSmalltalk       00499c48     ntcurs.obj
 0004:00002c4c       _CPOK16LoadLibrary         00499c4c     ntdynld.obj
 0004:00002c50       _CPOK16FreeLibrary         00499c50     ntdynld.obj
 0004:00002c54       _CPOK16GetProcAddress      00499c54     ntdynld.obj
 0004:00002c58       _CPOK16InitCall            00499c58     ntdynld.obj
 0004:00002c5c       _CPOK16CallFar             00499c5c     ntdynld.obj
 0004:00002c60       _CPOK16Xlate1632           00499c60     ntdynld.obj
 0004:00002c64       _CPOK16Alloc               00499c64     ntdynld.obj
 0004:00002c68       _CPOK16Free                00499c68     ntdynld.obj
 0004:00002c6c       _CPOK16AllocCB             00499c6c     ntdynld.obj
 0004:00002c70       _CPOK16FreeCB              00499c70     ntdynld.obj
 0004:00002c74       _CPOK16Xlate3216           00499c74     ntdynld.obj
 0004:00002c78       _CPOK16AllocCbThunk        00499c78     ntdynld.obj
 0004:00002c7c       _CPOK16FreeCbThunk         00499c7c     ntdynld.obj
 0004:00002d24       _colorsUpdated             00499d24     ntgraph.obj
 0004:00002f34       _logoBitmap                00499f34     ntherald.obj
 0004:0000303c       _logoSound                 0049a03c     ntherald.obj
 0004:00003144       _gblhwndHerald             0049a144     ntherald.obj
 0004:00003160       _g_pfnGetSystemMetrics     0049a160     ntmain.obj
 0004:00003164       _g_pfnMonitorFromWindow    0049a164     ntmain.obj
 0004:00003168       _g_pfnMonitorFromRect      0049a168     ntmain.obj
 0004:0000316c       _g_pfnMonitorFromPoint     0049a16c     ntmain.obj
 0004:00003170       _g_pfnGetMonitorInfo       0049a170     ntmain.obj
 0004:00003174       _g_pfnEnumDisplayMonitors  0049a174     ntmain.obj
 0004:00003178       _g_fMultiMonInitDone       0049a178     ntmain.obj
 0004:0000317c       _program_argv              0049a17c     ntmain.obj
 0004:00003180       _gblhInstance              0049a180     ntmain.obj
 0004:00003184       _ourNTProcess              0049a184     ntmain.obj
 0004:00003188       _isConsoleApp              0049a188     ntmain.obj
 0004:0000318c       _screenCount               0049a18c     ntmain.obj
 0004:00003190       _screenOriginX             0049a190     ntmain.obj
 0004:00003194       _screenOriginY             0049a194     ntmain.obj
 0004:00003198       _screenCornerX             0049a198     ntmain.obj
 0004:0000319c       _screenCornerY             0049a19c     ntmain.obj
 0004:000031c0       _eh_classX                 0049a1c0     ntfile.obj
 0004:000031c4       _imageResource             0049a1c4     ntfile.obj
 0004:00003200       _useSystemTime             0049a200     nttime.obj
 0004:00003204       _eventFlag                 0049a204     ntwin.obj
 0004:00003208       _quitInProgress            0049a208     ntwin.obj
 0004:0000320c       _callbacksCreated          0049a20c     ntcallbk.obj
 0004:00003c18       _windowLabelEncoding       0049ac18     exEnviron.obj
 0004:00003c78       _hpsErrorStatus            0049ac78     exError.obj
 0004:00003c8c       _reportVersionOnly         0049ac8c     exInit.obj
 0004:00003c90       _acceptQuitEvents          0049ac90     exInit.obj
 0004:00003cbc       _dumpStackOnExit           0049acbc     exLeave.obj
 0004:00003cf0       _calloutResult             0049acf0     exMessage.obj
 0004:00003cf4       _calloutIsLongComp         0049acf4     exMessage.obj
 0004:00003cf8       _imageFilename             0049acf8     exOption.obj
 0004:00003cfc       _hpsOptions                0049acfc     exOption.obj
 0004:00003d00       _printHelp                 0049ad00     exOption.obj
 0004:00004054       _NBAPITableIndex           0049b054     exThapi.obj
 0004:00004080       _IEEEInfNaN                0049b080     prFloat.obj
 0004:00004130       _metaclassInstSize         0049b130     mmDebug.obj
 0004:00004134       _allInstancesCallsPerMillisecond 0049b134     mmEnumerate.obj
 0004:00004174       _numGCs                    0049b174     mmGarbage.obj
 0004:00004178       _numGlobalGCs              0049b178     mmGarbage.obj
 0004:00004190       _numIncGCs                 0049b190     mmIncGC.obj
 0004:000041d4       _scavengeWarningThreshold  0049b1d4     mmInit.obj
 0004:000041d8       _totalInitialAllocBytes    0049b1d8     mmInit.obj
 0004:000041dc       _initialHeadroomBytes      0049b1dc     mmInit.obj
 0004:000041e0       _useLinearSearchPriorToRehash 0049b1e0     mmInit.obj
 0004:00004210       _desiredLoadPolicyName     0049b210     mmInit.obj
 0004:0000421c       _extraHeapBytesOption      0049b21c     mmInit.obj
 0004:00004220       _nmZoneSizeOption          0049b220     mmInit.obj
 0004:0000422c       _oldNewSpaceBoundary       0049b22c     mmNewSpace.obj
 0004:00004230       _newSpaceUpperBound        0049b230     mmNewSpace.obj
 0004:00004234       _newSpaceLowerBound        0049b234     mmNewSpace.obj
 0004:0000427c       _osReserveSlots            0049b27c     mmOldSpace.obj
 0004:00004280       _permSpaceAbsorbed         0049b280     mmOldSpace.obj
 0004:000042a4       _lowSpaceLimit             0049b2a4     mmResources.obj
 0004:000042b4       _scavengeInProgress        0049b2b4     mmScavenge.obj
 0004:000042b8       _tenureToShrinkRememberedTable 0049b2b8     mmScavenge.obj
 0004:000042dc       _numScavenges              0049b2dc     mmScavenge.obj
 0004:000042fc       _sysOopRegistryOop         0049b2fc     mmSysOop.obj
 0004:00004300       _sysOopRegistry            0049b300     mmSysOop.obj
 0004:00004304       _prevFirstFreeSlotX        0049b304     mmSysOop.obj
 0004:0000430c       _dassertsOn                0049b30c     assertFail.obj
 0004:00004838       _debugLog                  0049b838     checks.obj
 0004:00004848       _runtimeBase               0049b848     nsupport.obj
 0004:000048a8       _needMessageToWakeup       0049b8a8     services.obj
 0004:000048ac       _contextOnTop              0049b8ac     stackframe.obj
 0004:000048b0       _currentStack              0049b8b0     stackzone.obj
 0004:000048b4       _NumStacks                 0049b8b4     stackzone.obj
 0004:000048b8       _stackZone                 0049b8b8     stackzone.obj
 0004:000048bc       _freeStacks                0049b8bc     stackzone.obj
 0004:000048c0       _endOfStackZone            0049b8c0     stackzone.obj
 0004:000048c4       _startOfStackZone          0049b8c4     stackzone.obj
 0004:000048c8       _CStack                    0049b8c8     vmsupport.obj
 0004:000048cc       _CFrame                    0049b8cc     vmsupport.obj
 0004:000048dc       _relocatingNMethods        0049b8dc     nmcompact.obj
 0004:000057bc       _tDebug                    0049c7bc     tmain.obj
 0004:000057c0       _nzoneRTSymbolTable        0049c7c0     tmain.obj
 0004:00005874       _superLookupClassLoadOffset 0049c874     tmaprt.obj
 0004:000058b8       _collectingProfileData     0049c8b8     tnmprim.obj
 0004:000058bc       _engineData                0049c8bc     tnmprim.obj
 0004:000058c0       _nzoneData                 0049c8c0     tnmprim.obj
 0004:00005d1c       _enableXTP                 0049cd1c     txprim.obj
 0004:00005d2c       _nPICtable                 0049cd2c     tpic.obj
 0004:00005f2c       _nPICLoadThisPICOffset     0049cf2c     tpic.obj
 0004:00005f30       _nPICOpenSize              0049cf30     tpic.obj
 0004:00005f40       __dowildcard               0049cf40     msvcrt:wildcard.obj
 0004:00005f44       __newmode                  0049cf44     msvcrt:_newmode.obj
 0004:00005f48       __commode                  0049cf48     msvcrt:xncommod.obj
 0004:00005f4c       __fmode                    0049cf4c     msvcrt:xtxtmode.obj
 0004:00005f50       _nPICFirstTargetOffset     0049cf50     <common>
 0004:00005f54       _nPICGlueEntry             0049cf54     <common>
 0004:00005f58       _nPICClosedSize            0049cf58     <common>
 0004:00005f5c       _nPICMNUMethodOffset       0049cf5c     <common>
 0004:00005f60       _nPICTypeCaseSize          0049cf60     <common>
 0004:00005f64       _spill                     0049cf64     <common>
 0004:00005f68       _stackEmpty                0049cf68     <common>
 0004:00005f70       _seSelfNormal              0049cf70     <common>
 0004:00005f78       _seSelfFrameless           0049cf78     <common>
 0004:00005f80       _stackLocals               0049cf80     <common>
 0004:00005f90       _stackLocalsFrameless      0049cf90     <common>
 0004:00005fa0       _stackSim                  0049cfa0     <common>
 0004:00005fa4       _emptyRegSummary           0049cfa4     <common>
 0004:00005fc0       _assignedRegs              0049cfc0     <common>
 0004:000060a0       _regsInitialized           0049d0a0     <common>
 0004:000060a4       _assignedRegSummary        0049d0a4     <common>
 0004:000060a8       _profile_text_hipc         0049d0a8     <common>
 0004:000060ac       _profile_nzone_lopc        0049d0ac     <common>
 0004:000060b0       _profile_compaction_area   0049d0b0     <common>
 0004:000060b4       _profile_nzone_hipc        0049d0b4     <common>
 0004:000060b8       _profile_text_lopc         0049d0b8     <common>
 0004:000060bc       _profile_other_area        0049d0bc     <common>
 0004:000060c0       _nMethodGlueEntry          0049d0c0     <common>
 0004:000060c4       _sendTypeTable             0049d0c4     <common>
 0004:000060c8       _nMethodAbortSendMissReturnOffset 0049d0c8     <common>
 0004:000060cc       _tPVToN                    0049d0cc     <common>
 0004:000060d0       _startNMethod              0049d0d0     <common>
 0004:000060d4       _primReturnEntry           0049d0d4     <common>
 0004:000060d8       _tSelector                 0049d0d8     <common>
 0004:000060e0       _tVInfo                    0049d0e0     <common>
 0004:00006108       _tVMethod                  0049d108     <common>
 0004:0000610c       _tNil                      0049d10c     <common>
 0004:00006110       _tFalse                    0049d110     <common>
 0004:00006114       _tTrue                     0049d114     <common>
 0004:00006118       _tHasCleanSends            0049d118     <common>
 0004:0000611c       _stackTemps                0049d11c     <common>
 0004:00006120       _AbortPrimFailTable        0049d120     <common>
 0004:00006130       _AbortSendTable            0049d130     <common>
 0004:0000613c       _nMethodPrimitiveJumpSize  0049d13c     <common>
 0004:00006140       _CreateArray               0049d140     <common>
 0004:00006144       _MakeCopyingBlock1         0049d144     <common>
 0004:00006148       _AbortNoFrame              0049d148     <common>
 0004:0000614c       _bxpStandardSize           0049d14c     <common>
 0004:00006150       _bxpStandardOffset         0049d150     <common>
 0004:00006154       _nMethodAbortSendMissOffset 0049d154     <common>
 0004:00006158       _nMethodBlockEntry         0049d158     <common>
 0004:00006160       _seStackLimit              0049d160     <common>
 0004:00006168       _primHasReturn             0049d168     <common>
 0004:0000616c       _nMethodAbortOffsetOffset  0049d16c     <common>
 0004:00006170       _superForSend              0049d170     <common>
 0004:00006178       _seSelf                    0049d178     <common>
 0004:00006180       _abortOffsetSkip           0049d180     <common>
 0004:00006184       _nMethodEntry              0049d184     <common>
 0004:00006188       _nMethodEntryNonImmediate  0049d188     <common>
 0004:0000618c       _stackBase                 0049d18c     <common>
 0004:00006190       _nMethodCannotResumeEntry  0049d190     <common>
 0004:00006194       _nMethodEntryNoCheck       0049d194     <common>
 0004:00006198       _nMethodBlockGlueEntry     0049d198     <common>
 0004:0000619c       _actFree                   0049d19c     <common>
 0004:000061a0       _actNext                   0049d1a0     <common>
 0004:000061a4       _mCache                    0049d1a4     <common>
 0004:000061a8       _nmAllocRequest            0049d1a8     <common>
 0004:000061ac       _minNZoneRTPC              0049d1ac     <common>
 0004:000061b0       _maxNZonePC                0049d1b0     <common>
 0004:000061c0       _nmZone                    0049d1c0     <common>
 0004:000061d8       _minNZonePC                0049d1d8     <common>
 0004:000061dc       _CStackMain                0049d1dc     <common>
 0004:000061e0       _dummyStack                0049d1e0     <common>
 0004:000061e8       _anyAck                    0049d1e8     <common>
 0004:000061ec       _stackLimit                0049d1ec     <common>
 0004:000061f0       _anyReq                    0049d1f0     <common>
 0004:00006200       _immediateTable            0049d200     <common>
 0004:0000620c       _additionalTenureCriterion 0049d20c     <common>
 0004:00006220       _rt                        0049d220     <common>
 0004:00006234       _rtOop                     0049d234     <common>
 0004:00006240       _permSpace                 0049d240     <common>
 0004:00006280       _permSpaceSegs             0049d280     <common>
 0004:000062a4       _threadedDataForSnapshot   0049d2a4     <common>
 0004:000062a8       _oldPermSpaceBoundary      0049d2a8     <common>
 0004:000062c0       _oldSpace                  0049d2c0     <common>
 0004:00006300       _oldSpaceSegs              0049d300     <common>
 0004:00006428       _oldRtOop                  0049d428     <common>
 0004:00006430       _pastSpace                 0049d430     <common>
 0004:00006440       _futureSpace               0049d440     <common>
 0004:00006450       _eden                      0049d450     <common>
 0004:00006460       _fixedSpaceSegs            0049d460     <common>
 0004:00006480       _fixedSpace                0049d480     <common>
 0004:000064a0       _largeSpace                0049d4a0     <common>
 0004:000064bc       _viSig                     0049d4bc     <common>
 0004:000064c0       _permSpaceUpperBound       0049d4c0     <common>
 0004:000064c4       _fileId                    0049d4c4     <common>
 0004:000064c8       _oldSpaceMap               0049d4c8     <common>
 0004:000064d0       _temp1RegisteredOopX       0049d4d0     <common>
 0004:000064d4       _permSpaceLowerBound       0049d4d4     <common>
 0004:000064e0       _viHeraldString            0049d4e0     <common>
 0004:00006548       _vmThumb                   0049d548     <common>
 0004:00006560       _vmIdString                0049d560     <common>
 0004:000065a0       _imageLayout               0049d5a0     <common>
 0004:00006654       _temp2RegisteredOopX       0049d654     <common>
 0004:00006660       _slots                     0049d660     <common>
 0004:00006684       _incGCWeakBytes            0049d684     <common>
 0004:00006688       _incGCWeakNilBytes         0049d688     <common>
 0004:0000668c       _incGCMarkBytes            0049d68c     <common>
 0004:00006690       _incGCMarkCount            0049d690     <common>
 0004:00006694       _incGCWeakCount            0049d694     <common>
 0004:00006698       _incGCWeakNilCount         0049d698     <common>
 0004:0000669c       _maxPtr                    0049d69c     <common>
 0004:000066a0       _lastHash                  0049d6a0     <common>
 0004:000066a4       _maxOopUInt                0049d6a4     <common>
 0004:000066a8       _smalltalkThread           0049d6a8     <common>
 0004:000066ac       _timerSemaphoreX           0049d6ac     <common>
 0004:000066b0       _imageFilePtr              0049d6b0     <common>
 0004:000066b4       _inputSemaphoreX           0049d6b4     <common>
 0004:000066b8       _needToReInitTime          0049d6b8     <common>
 0004:000066bc       _program_argc              0049d6bc     <common>
 0004:000066c0       _AppName                   0049d6c0     <common>
 0004:000067e0       _ExeName                   0049d7e0     <common>
 0004:00006900       _gblpaletteSystem          0049d900     <common>
 0004:00006d18       _gbliBitsPerPixel          0049dd18     <common>
 0004:00006d1c       _usePalette                0049dd1c     <common>
 0004:00006d20       _hdcGlobal                 0049dd20     <common>
 0004:00006d24       ___onexitend               0049dd24     <common>
 0004:00006d28       ___onexitbegin             0049dd28     <common>
 0004:00006d2c       __adjust_fdiv              0049dd2c     <common>
 0005:00000000       _minGluePC                 0049e000     glueNT86.obj
 0005:00000004       _maxGluePC                 0049e004     glueNT86.obj
 0005:00000008       _rootReturnPC              0049e008     glueNT86.obj
 0005:0000000c       _cantReturnPC              0049e00c     glueNT86.obj
 0005:00000010       _dnuPChAddr                0049e010     glueNT86.obj
 0005:00000024       _primFailGlueShort         0049e024     glueNT86.obj
 0005:00000028       _primFailGlueLong          0049e028     glueNT86.obj

 entry point at        0001:000802ff

 Static symbols

 0001:0007f840       _disl2                     00480840 f   procPentiumdis.obj
 0001:0007f860       _disl4                     00480860 f   procPentiumdis.obj
 0001:0007f8a0       _noProc                    004808a0 f   procPentiumdis.obj
 0001:0007f8b0       _disExit                   004808b0 f   procPentiumdis.obj
 0001:0007f8e0       _p                         004808e0 f   procPentiumdis.obj
 0001:0007f920       _dis_psp                   00480920 f   procPentiumdis.obj
 0001:0007f930       _pc                        00480930 f   procPentiumdis.obj
 0001:0007f940       _dis_pd                    00480940 f   procPentiumdis.obj
 0001:0007f980       _dis_pl                    00480980 f   procPentiumdis.obj
 0001:0007f9d0       _dis_sw                    004809d0 f   procPentiumdis.obj
 0001:0007fa00       _dis_psw                   00480a00 f   procPentiumdis.obj
 0001:0007fa20       _dis_px                    00480a20 f   procPentiumdis.obj
 0001:0007fd10       _dis_preg                  00480d10 f   procPentiumdis.obj
 0001:0007fd50       _dis_pxs                   00480d50 f   procPentiumdis.obj
 0001:0007d920       _trClosedPICTemplate       0047e920 f   tpic.obj
 0001:0007de30       _buildMNUPIC               0047ee30 f   tpic.obj
 0001:0007df50       _setSelectorAndAddToTable  0047ef50 f   tpic.obj
 0001:0007dfd0       _patchToOpenPIC            0047efd0 f   tpic.obj
 0001:0007e070       _buildOpenPIC              0047f070 f   tpic.obj
 0001:0007e2b0       _buildClosedPIC            0047f2b0 f   tpic.obj
 0001:0007c060       _tpAt                      0047d060 f   txsubscript.obj
 0001:0007c250       _tpAtPut                   0047d250 f   txsubscript.obj
 0001:0007c510       _tAtPutSpanFix             0047d510 f   txsubscript.obj
 0001:0007c560       _tpSize                    0047d560 f   txsubscript.obj
 0001:0007c6c0       _tpStringAt                0047d6c0 f   txsubscript.obj
 0001:0007c790       _tpStringAtPut             0047d790 f   txsubscript.obj
 0001:0007c880       _tpString2At               0047d880 f   txsubscript.obj
 0001:0007c8a0       _tp16BitAt                 0047d8a0 f   txsubscript.obj
 0001:0007c990       _tpWordAt                  0047d990 f   txsubscript.obj
 0001:0007c9b0       _tpString2AtPut            0047d9b0 f   txsubscript.obj
 0001:0007c9d0       _tp16BitAtPut              0047d9d0 f   txsubscript.obj
 0001:0007cb10       _tpWordAtPut               0047db10 f   txsubscript.obj
 0001:0007cb30       _tpByteAt                  0047db30 f   txsubscript.obj
 0001:0007cb90       _tpByteAtPut               0047db90 f   txsubscript.obj
 0001:0007cc40       _tpUShortAt                0047dc40 f   txsubscript.obj
 0001:0007ccd0       _tpULongAt                 0047dcd0 f   txsubscript.obj
 0001:0007cd60       _tpFloatAt                 0047dd60 f   txsubscript.obj
 0001:0007cd80       _tFPAt                     0047dd80 f   txsubscript.obj
 0001:0007cee0       _tpDoubleAt                0047dee0 f   txsubscript.obj
 0001:0007cf00       _tpFloatAtPut              0047df00 f   txsubscript.obj
 0001:0007cf20       _tFPAtPut                  0047df20 f   txsubscript.obj
 0001:0007d020       _tpDoubleAtPut             0047e020 f   txsubscript.obj
 0001:0007d0a0       _tJumpSizeLEUR             0047e0a0 f   txsubscript.obj
 0001:0007d1c0       _tGetSize                  0047e1c0 f   txsubscript.obj
 0001:0007d290       _tGetSizeFailIfImmutable   0047e290 f   txsubscript.obj
 0001:0007d380       _tFailIfNotCharOfMaxValue  0047e380 f   txsubscript.obj
 0001:0007d3f0       _tByteSetup                0047e3f0 f   txsubscript.obj
 0001:0007d4f0       _tByteFinish               0047e4f0 f   txsubscript.obj
 0001:0007d590       _tpNextPut                 0047e590 f   txsubscript.obj
 0001:0007d650       _tStreamSetup              0047e650 f   txsubscript.obj
 0001:0007d800       _tpNext                    0047e800 f   txsubscript.obj
 0001:0007d830       _tpAtEnd                   0047e830 f   txsubscript.obj
 0001:0007bc50       _defineTxPrims             0047cc50 f   txprim.obj
 0001:0007b050       _trMakeCopyingBlock1       0047c050 f   txmem.obj
 0001:0007b0d0       _trCreateArray             0047c0d0 f   txmem.obj
 0001:0007b120       _tpMakePoint               0047c120 f   txmem.obj
 0001:0007b1a0       _tpNew                     0047c1a0 f   txmem.obj
 0001:0007b260       _tpNewWithArg              0047c260 f   txmem.obj
 0001:0007b4c0       _tpHash                    0047c4c0 f   txmem.obj
 0001:0007b550       _tpNotEquivalent           0047c550 f   txmem.obj
 0001:0007b580       _tpEquivalent              0047c580 f   txmem.obj
 0001:0007b5b0       _tpClass                   0047c5b0 f   txmem.obj
 0001:0007b5d0       _tpCharAsInt               0047c5d0 f   txmem.obj
 0001:0007b5f0       _tpCharWithValue           0047c5f0 f   txmem.obj
 0001:0007b670       _tpImmAsInt                0047c670 f   txmem.obj
 0001:0007b6a0       _tpMaxHash                 0047c6a0 f   txmem.obj
 0001:0007b740       _tAllocate                 0047c740 f   txmem.obj
 0001:0007bb20       _tFill                     0047cb20 f   txmem.obj
 0001:0007a750       _tpValueAny                0047b750 f   txcontrol.obj
 0001:0007a870       _tpPerform0                0047b870 f   txcontrol.obj
 0001:0007a900       _tpPerform1                0047b900 f   txcontrol.obj
 0001:0007a9a0       _trAbortSend               0047b9a0 f   txcontrol.obj
 0001:0007a9c0       _trAbortPrimFail           0047b9c0 f   txcontrol.obj
 0001:0007a9e0       _trAbortEntry              0047b9e0 f   txcontrol.obj
 0001:0007aa80       _trAbortNoFrame            0047ba80 f   txcontrol.obj
 0001:0007ad70       _tPerform                  0047bd70 f   txcontrol.obj
 0001:0007ae30       _tFindMethod               0047be30 f   txcontrol.obj
 0001:00079670       _tpIntAdd                  0047a670 f   txarith.obj
 0001:00079700       _tpIntSub                  0047a700 f   txarith.obj
 0001:00079790       _tpIntLt                   0047a790 f   txarith.obj
 0001:000797b0       _tpIntGt                   0047a7b0 f   txarith.obj
 0001:000797d0       _tpIntLe                   0047a7d0 f   txarith.obj
 0001:000797f0       _tpIntGe                   0047a7f0 f   txarith.obj
 0001:00079810       _tpIntEq                   0047a810 f   txarith.obj
 0001:00079830       _tpIntNe                   0047a830 f   txarith.obj
 0001:00079850       _tpMul                     0047a850 f   txarith.obj
 0001:000798f0       _tpDivide                  0047a8f0 f   txarith.obj
 0001:00079a00       _tpMod                     0047aa00 f   txarith.obj
 0001:00079ab0       _tpDiv                     0047aab0 f   txarith.obj
 0001:00079b70       _tpQuo                     0047ab70 f   txarith.obj
 0001:00079be0       _tpBitAnd                  0047abe0 f   txarith.obj
 0001:00079c40       _tpBitOr                   0047ac40 f   txarith.obj
 0001:00079ca0       _tpBitXor                  0047aca0 f   txarith.obj
 0001:00079d10       _tpBitShift                0047ad10 f   txarith.obj
 0001:00079ee0       _tpAsFloat                 0047aee0 f   txarith.obj
 0001:00079f80       _tpAsDouble                0047af80 f   txarith.obj
 0001:0007a020       _tpFloatArith              0047b020 f   txarith.obj
 0001:0007a050       _tpDoubleArith             0047b050 f   txarith.obj
 0001:0007a080       _tpFloatCompare            0047b080 f   txarith.obj
 0001:0007a0b0       _tpDoubleCompare           0047b0b0 f   txarith.obj
 0001:0007a0e0       _tpIntRel                  0047b0e0 f   txarith.obj
 0001:0007a150       _tPreDiv                   0047b150 f   txarith.obj
 0001:0007a1b0       _tPostDiv                  0047b1b0 f   txarith.obj
 0001:0007a230       _tFloatCompare             0047b230 f   txarith.obj
 0001:0007a3b0       _tPreFloat2                0047b3b0 f   txarith.obj
 0001:0007a4a0       _tFloatArith2              0047b4a0 f   txarith.obj
 0001:000775c0       _regRelease                004785c0 f   tregs.obj
 0001:00077640       _stackReplace              00478640 f   tregs.obj
 0001:00075bc0       _distributeThroughout      00476bc0 f   tnmprim.obj
 0001:00075ca0       _primFlushCache            00476ca0 f   tnmprim.obj
 0001:00075cb0       _primFlushEntries          00476cb0 f   tnmprim.obj
 0001:00075cd0       _primFlushCachedCodeForMethod 00476cd0 f   tnmprim.obj
 0001:00075d80       _primQuerySetInlineNonArithSpecialSelectors 00476d80 f   tnmprim.obj
 0001:00075ed0       _enableProfiling           00476ed0 f   tnmprim.obj
 0001:00076180       _nzoneSymbolTable          00477180 f   tnmprim.obj
 0001:000762c0       _nzoneSymbolTableInto      004772c0 f   tnmprim.obj
 0001:00076530       _totalFromUpto             00477530 f   tnmprim.obj
 0001:00076560       _getProfileRanges          00477560 f   tnmprim.obj
 0001:00076870       _primNMethodInfo           00477870 f   tnmprim.obj
 0001:00076c30       _primDumpStack             00477c30 f   tnmprim.obj
 0001:00076c90       _primNMethodFor            00477c90 f   tnmprim.obj
 0001:00076d60       _decompileNMethod          00477d60 f   tnmprim.obj
 0001:00074e10       _enumerateNewLits          00475e10 f   tmaprt.obj
 0001:00075210       _getPrimMap                00476210 f   tmaprt.obj
 0001:00073580       _addToOEPTable             00474580 f   tmain.obj
 0001:000736f0       _tGenerate1Proc            004746f0 f   tmain.obj
 0001:00073bf0       _fprintCurrentVMethod      00474bf0 f   tmain.obj
 0001:00073df0       _printNMethodFields        00474df0 f   tmain.obj
 0001:00074360       _fprintBytes               00475360 f   tmain.obj
 0001:00074410       _lblProc                   00475410 f   tmain.obj
 0001:000725e0       _genStoreInst              004735e0 f   tloadstore.obj
 0001:00070470       _genBxpNotBool             00471470 f   tcodes.obj
 0001:00070820       _tCondBranch               00471820 f   tcodes.obj
 0001:00070290       _doNothing                 00471290 f   tcgencode.obj
 0001:0006f6d0       _entryCode                 004706d0 f   taux.obj
 0001:0006f890       _entryNeedsFrame           00470890 f   taux.obj
 0001:0006fa20       _saveSelectorInstructions  00470a20 f   taux.obj
 0001:0006fab0       _saveEntryInstruction      00470ab0 f   taux.obj
 0001:0006fbb0       _entryCallPrim             00470bb0 f   taux.obj
 0001:0006ef80       _actionGrow                0046ff80 f   taction.obj
 0001:0006d870       _nTableFor                 0046e870 f   nmlookup.obj
 0001:0006d8e0       _vToNMethodInTable         0046e8e0 f   nmlookup.obj
 0001:0006dab0       _nTableForNMethod          0046eab0 f   nmlookup.obj
 0001:0006db50       _addNMethodInTable         0046eb50 f   nmlookup.obj
 0001:0006e450       _clearBACCache             0046f450 f   nmlookup.obj
 0001:0006e9b0       _getAccessPrimitive        0046f9b0 f   nmlookup.obj
 0001:0006eb10       _printMethodWho            0046fb10 f   nmlookup.obj
 0001:0006cea0       _invalidatePostFreePICs    0046dea0 f   nmcompact.obj
 0001:0006cf60       _freeNMethods              0046df60 f   nmcompact.obj
 0001:0006d080       _reverseAllChains          0046e080 f   nmcompact.obj
 0001:0006d390       _doPlanCompactNMethods     0046e390 f   nmcompact.obj
 0001:0006d410       _markFrameNMethod          0046e410 f   nmcompact.obj
 0001:0006d430       _fixFrameNMethod           0046e430 f   nmcompact.obj
 0001:0006d470       _fixMoveNMethods           0046e470 f   nmcompact.obj
 0001:0006d520       _fixListNMethod            0046e520 f   nmcompact.obj
 0001:0006d540       _moveNMethodsAndCollectFreeSpace 0046e540 f   nmcompact.obj
 0001:0006d5a0       _moveNMethods              0046e5a0 f   nmcompact.obj
 0001:0006d6a0       _moveNMethodsAndProfile    0046e6a0 f   nmcompact.obj
 0001:0006c500       _tryCompactNMethods        0046d500 f   nmalloc.obj
 0001:0006ba10       _buildPrimitiveFrame       0046ca10 f   vmsupport.obj
 0001:0006bf10       _failCommittedPrimitive    0046cf10 f   vmsupport.obj
 0001:0006b380       _stackReInit               0046c380 f   stackzone.obj
 0001:0006b5a0       _compactStacks             0046c5a0 f   stackzone.obj
 0001:0006ab20       _stabilizeTopFrame         0046bb20 f   stackframe.obj
 0001:00069df0       _anySynchronousRequests    0046adf0 f   services.obj
 0001:000682a0       _value0                    004692a0 f   primSends.obj
 0001:00068380       _handleBlockValueTranFailure 00469380 f   primSends.obj
 0001:00068480       _value1                    00469480 f   primSends.obj
 0001:00068560       _value2                    00469560 f   primSends.obj
 0001:00068650       _value3                    00469650 f   primSends.obj
 0001:00068740       _valueWithArgs             00469740 f   primSends.obj
 0001:00068990       _perform0                  00469990 f   primSends.obj
 0001:00068ae0       _perform1                  00469ae0 f   primSends.obj
 0001:00068c40       _perform2                  00469c40 f   primSends.obj
 0001:00068dc0       _performWithArgs           00469dc0 f   primSends.obj
 0001:00068de0       _doPerformWithArgs         00469de0 f   primSends.obj
 0001:00069190       _performAboveWithArgs      0046a190 f   primSends.obj
 0001:000691b0       _mirrorPerformWithArgs     0046a1b0 f   primSends.obj
 0001:000691e0       _mirrorPerformAboveWithArgs 0046a1e0 f   primSends.obj
 0001:00069210       _execWithReceiverAndArgs   0046a210 f   primSends.obj
 0001:00067bb0       _mustBeBoolean             00468bb0 f   nsupport.obj
 0001:00066010       _popAllVolatile            00467010 f   nlreturn.obj
 0001:00066270       _onChainCheckUnwinds       00467270 f   nlreturn.obj
 0001:000663b0       _sendNLR                   004673b0 f   nlreturn.obj
 0001:000640c0       _primContextNFromVPC       004650c0 f   contexts.obj
 0001:00064150       _primContextVFromNPC       00465150 f   contexts.obj
 0001:00064220       _firstOnSenderChain        00465220 f   contexts.obj
 0001:00064260       _onChain                   00465260 f   contexts.obj
 0001:00064300       _hasSender                 00465300 f   contexts.obj
 0001:00064340       _findNextMarkedUpto        00465340 f   contexts.obj
 0001:00064460       _sender                    00465460 f   contexts.obj
 0001:00064530       _primTerminateTo           00465530 f   contexts.obj
 0001:00064650       _contextLocalAt            00465650 f   contexts.obj
 0001:00064950       _contextLocalAtPut         00465950 f   contexts.obj
 0001:00064c10       _contextAt                 00465c10 f   contexts.obj
 0001:00064cd0       _contextAtPut              00465cd0 f   contexts.obj
 0001:00064e20       _contextSize               00465e20 f   contexts.obj
 0001:00064eb0       _contextInstVarAt          00465eb0 f   contexts.obj
 0001:00064f40       _contextInstVarAtPut       00465f40 f   contexts.obj
 0001:00062f90       _printIfProcess            00463f90 f   checks.obj
 0001:00063260       _dumpStringOop             00464260 f   checks.obj
 0001:000635d0       _selectorName              004645d0 f   checks.obj
 0001:000610b0       _growSysOopRegistry        004620b0 f   mmSysOop.obj
 0001:0005d1a0       _objectAt                  0045e1a0 f   mmSubscript.obj
 0001:0005d2b0       _objectAtPut               0045e2b0 f   mmSubscript.obj
 0001:0005d4c0       _objectSize                0045e4c0 f   mmSubscript.obj
 0001:0005d570       _stringAt                  0045e570 f   mmSubscript.obj
 0001:0005d5f0       _stringAtPut               0045e5f0 f   mmSubscript.obj
 0001:0005d6c0       _streamNext                0045e6c0 f   mmSubscript.obj
 0001:0005d7b0       _streamNextPut             0045e7b0 f   mmSubscript.obj
 0001:0005d8f0       _streamAtEnd               0045e8f0 f   mmSubscript.obj
 0001:0005d940       _instVarAt                 0045e940 f   mmSubscript.obj
 0001:0005d9d0       _instVarAtPut              0045e9d0 f   mmSubscript.obj
 0001:0005db20       _mirrorAt                  0045eb20 f   mmSubscript.obj
 0001:0005dc60       _mirrorAtPut               0045ec60 f   mmSubscript.obj
 0001:0005dea0       _mirrorSize                0045eea0 f   mmSubscript.obj
 0001:0005df80       _mirrorInstVarAt           0045ef80 f   mmSubscript.obj
 0001:0005e040       _mirrorInstVarAtPut        0045f040 f   mmSubscript.obj
 0001:0005e1b0       _stringReplaceFromToWith   0045f1b0 f   mmSubscript.obj
 0001:0005e200       _replaceFromToWith         0045f200 f   mmSubscript.obj
 0001:0005e330       _replaceBytesFromToWith    0045f330 f   mmSubscript.obj
 0001:0005e380       _replaceBytesFromToWithMap 0045f380 f   mmSubscript.obj
 0001:0005e3f0       _replaceFromToWithMap      0045f3f0 f   mmSubscript.obj
 0001:0005e5a0       _stringEq                  0045f5a0 f   mmSubscript.obj
 0001:0005e670       _immediateAsSmallInteger   0045f670 f   mmSubscript.obj
 0001:0005e690       _charWithValue             0045f690 f   mmSubscript.obj
 0001:0005e6d0       _string2At                 0045f6d0 f   mmSubscript.obj
 0001:0005e760       _string2AtPut              0045f760 f   mmSubscript.obj
 0001:0005e830       _asciiStringAt             0045f830 f   mmSubscript.obj
 0001:0005e8d0       _asciiStringAtPut          0045f8d0 f   mmSubscript.obj
 0001:0005e9a0       _stringCompare             0045f9a0 f   mmSubscript.obj
 0001:0005ebc0       _string2NextIndexOf        0045fbc0 f   mmSubscript.obj
 0001:0005ecd0       _stringNextIndexOf         0045fcd0 f   mmSubscript.obj
 0001:0005edd0       _string2PrevIndexOf        0045fdd0 f   mmSubscript.obj
 0001:0005eee0       _stringPrevIndexOf         0045fee0 f   mmSubscript.obj
 0001:0005efe0       _byteArrayAt               0045ffe0 f   mmSubscript.obj
 0001:0005f060       _byteArrayAtPut            00460060 f   mmSubscript.obj
 0001:0005f130       _arrayIndexOfReplaceWith   00460130 f   mmSubscript.obj
 0001:0005f340       _wordArrayAt               00460340 f   mmSubscript.obj
 0001:0005f3d0       _wordArrayAtPut            004603d0 f   mmSubscript.obj
 0001:0005f4a0       _largeWordArrayAt          004604a0 f   mmSubscript.obj
 0001:0005f5d0       _largeWordArrayAtPut       004605d0 f   mmSubscript.obj
 0001:0005f770       _scanForString             00460770 f   mmSubscript.obj
 0001:0005f970       _arrayReplaceFromToWith    00460970 f   mmSubscript.obj
 0001:0005fbe0       _isBigEndian               00460be0 f   mmSubscript.obj
 0001:0005fbf0       _uShortAt                  00460bf0 f   mmSubscript.obj
 0001:0005fc90       _uShortAtPut               00460c90 f   mmSubscript.obj
 0001:0005fd60       _shortAt                   00460d60 f   mmSubscript.obj
 0001:0005fe00       _shortAtPut                00460e00 f   mmSubscript.obj
 0001:0005fee0       _uLongAt                   00460ee0 f   mmSubscript.obj
 0001:00060020       _uLongAtPut                00461020 f   mmSubscript.obj
 0001:00060190       _longAt                    00461190 f   mmSubscript.obj
 0001:000602e0       _longAtPut                 004612e0 f   mmSubscript.obj
 0001:000604b0       _uLongLongAt               004614b0 f   mmSubscript.obj
 0001:00060560       _uLongLongAtPut            00461560 f   mmSubscript.obj
 0001:000606a0       _longLongAt                004616a0 f   mmSubscript.obj
 0001:00060750       _longLongAtPut             00461750 f   mmSubscript.obj
 0001:000608a0       _floatAt                   004618a0 f   mmSubscript.obj
 0001:000609f0       _floatAtPut                004619f0 f   mmSubscript.obj
 0001:00060b00       _doubleAt                  00461b00 f   mmSubscript.obj
 0001:00060c70       _doubleAtPut               00461c70 f   mmSubscript.obj
 0001:0005c170       _mustMapNToVPC             0045d170 f   mmSnapshot.obj
 0001:0005c1e0       _reportBadNPC              0045d1e0 f   mmSnapshot.obj
 0001:0005c270       _getHeraldString           0045d270 f   mmSnapshot.obj
 0001:0005c2c0       _setHeraldString           0045d2c0 f   mmSnapshot.obj
 0001:0005c300       _snapshot                  0045d300 f   mmSnapshot.obj
 0001:0005c870       _writeSnapshotFile         0045d870 f   mmSnapshot.obj
 0001:0005c9c0       _writeSnapshotHeader       0045d9c0 f   mmSnapshot.obj
 0001:00059950       _tenureAccordingToReferenceCount 0045a950 f   mmScavenge.obj
 0001:000599a0       _tenureAccordingToClass    0045a9a0 f   mmScavenge.obj
 0001:000599c0       _tenureAccordingToOwnership 0045a9c0 f   mmScavenge.obj
 0001:000599e0       _tenureEveryone            0045a9e0 f   mmScavenge.obj
 0001:000599f0       _tenureDesignatedObjs      0045a9f0 f   mmScavenge.obj
 0001:00059a20       _generationScavenger       0045aa20 f   mmScavenge.obj
 0001:00059e00       _tenureLargeSpaceObjects   0045ae00 f   mmScavenge.obj
 0001:00059e50       _badTimesTenureAge         0045ae50 f   mmScavenge.obj
 0001:00059e80       _ensureFinalQueueRegisteredIfRequired 0045ae80 f   mmScavenge.obj
 0001:00059f00       _oldSpaceTooFull           0045af00 f   mmScavenge.obj
 0001:00059f30       _scavengeMarkedRt          0045af30 f   mmScavenge.obj
 0001:0005a040       _scavengeRt                0045b040 f   mmScavenge.obj
 0001:0005a200       _referenceCountRt          0045b200 f   mmScavenge.obj
 0001:0005a420       _scavengeFutureSpace       0045b420 f   mmScavenge.obj
 0001:0005a570       _scavengeUnactivatedEphemerons 0045b570 f   mmScavenge.obj
 0001:0005a5a0       _scavengeUnactivatedFutureEphemerons 0045b5a0 f   mmScavenge.obj
 0001:0005a680       _scavengeUnactivatedRtEphemerons 0045b680 f   mmScavenge.obj
 0001:0005a7c0       _scanEphemeronList         0045b7c0 f   mmScavenge.obj
 0001:0005a8a0       _scavengeRtEphemeronsAndNewcomers 0045b8a0 f   mmScavenge.obj
 0001:0005ab70       _triggerEphemerons         0045bb70 f   mmScavenge.obj
 0001:0005ac40       _scavengeReferentsOf       0045bc40 f   mmScavenge.obj
 0001:0005ad80       _scavengeReferentsOfNoteForward 0045bd80 f   mmScavenge.obj
 0001:0005aee0       _scavengeRefBlock          0045bee0 f   mmScavenge.obj
 0001:0005aff0       _emergencyTenureObject     0045bff0 f   mmScavenge.obj
 0001:0005b030       _copyToFutureSpace         0045c030 f   mmScavenge.obj
 0001:0005b270       _tenureObject              0045c270 f   mmScavenge.obj
 0001:0005b650       _updateWeakPtrs            0045c650 f   mmScavenge.obj
 0001:0005b690       _updateWeakPtrsInRt        0045c690 f   mmScavenge.obj
 0001:0005b710       _updateWeakPtrsOf          0045c710 f   mmScavenge.obj
 0001:0005b890       _scavengeOccurredResponse  0045c890 f   mmScavenge.obj
 0001:0005b8e0       _setThresholds             0045c8e0 f   mmScavenge.obj
 0001:0005bbd0       _defaultThresholds         0045cbd0 f   mmScavenge.obj
 0001:000592b0       _growRt                    0045a2b0 f   mmRt.obj
 0001:00058610       _coreLeft                  00459610 f   mmResources.obj
 0001:00058650       _oopsLeft                  00459650 f   mmResources.obj
 0001:00058690       _otEntriesInOldSpaceMinusReserve 00459690 f   mmResources.obj
 0001:000586e0       _setLowSpaceSignal         004596e0 f   mmResources.obj
 0001:000587e0       _setSizesAtStartup         004597e0 f   mmResources.obj
 0001:000589f0       _sizesAtStartup            004599f0 f   mmResources.obj
 0001:00056210       _preemptActiveProcess      00457210 f   mmProcess.obj
 0001:00056510       _preemptActiveProcessEnd   00457510 f   mmProcess.obj
 0001:00056520       _getBestRunnableProcess    00457520 f   mmProcess.obj
 0001:00056a40       _removeFromList            00457a40 f   mmProcess.obj
 0001:000571b0       _signalSemaphore           004581b0 f   mmProcess.obj
 0001:00057490       _waitOnSemaphore           00458490 f   mmProcess.obj
 0001:00057710       _resumeProcess             00458710 f   mmProcess.obj
 0001:000579e0       _suspendProcess            004589e0 f   mmProcess.obj
 0001:00057a00       _suspendOrTerminateProcess 00458a00 f   mmProcess.obj
 0001:00057b20       _terminateProcess          00458b20 f   mmProcess.obj
 0001:00057b40       _changePriority            00458b40 f   mmProcess.obj
 0001:00057f80       _yieldProcess              00458f80 f   mmProcess.obj
 0001:00051810       _removeSmallest            00452810 f   mmOldSpace.obj
 0001:00052010       _allocateOldSpaceSegment   00453010 f   mmOldSpace.obj
 0001:00052090       _initOldSpaceSegment       00453090 f   mmOldSpace.obj
 0001:000522b0       _updateCachedDataPtrs      004532b0 f   mmOldSpace.obj
 0001:000522e0       _compactOt                 004532e0 f   mmOldSpace.obj
 0001:00052a50       _sweepOt                   00453a50 f   mmOldSpace.obj
 0001:00052ab0       _compactOsSlots            00453ab0 f   mmOldSpace.obj
 0001:00052b00       _compactSegmentData        00453b00 f   mmOldSpace.obj
 0001:00052c30       _copyToSegmentFromSegment  00453c30 f   mmOldSpace.obj
 0001:00052e00       _findFirstFreeBlock        00453e00 f   mmOldSpace.obj
 0001:00053430       _searchSpace               00454430 f   mmOldSpace.obj
 0001:000534b0       _searchSpaceSeg            004544b0 f   mmOldSpace.obj
 0001:00053c90       _applySearchCriterionFunc  00454c90 f   mmOldSpace.obj
 0001:00054a40       _reserveSpaceForData       00455a40 f   mmOldSpace.obj
 0001:00054b40       _setOsReserve              00455b40 f   mmOldSpace.obj
 0001:00054b80       _memoryUsage               00455b80 f   mmOldSpace.obj
 0001:000557f0       _growOldSpaceMemory        004567f0 f   mmOldSpace.obj
 0001:00055860       _shrinkOldSpaceMemory      00456860 f   mmOldSpace.obj
 0001:00055900       _shrinkOldSpace            00456900 f   mmOldSpace.obj
 0001:00055a30       _growFixedSpaceMemory      00456a30 f   mmOldSpace.obj
 0001:000504a0       _releaseOopStackSeg        004514a0 f   mmOopStack.obj
 0001:00050b40       _oopStackFirstSegOop       00451b40 f   mmOopStack.obj
 0001:0004fff0       _createBackPtrInPermObj    00450ff0 f   mmOldRt.obj
 0001:000500c0       _isEntryMarked             004510c0 f   mmOldRt.obj
 0001:00050100       _sweepPermObj              00451100 f   mmOldRt.obj
 0001:00050200       _setNotInOldRt             00451200 f   mmOldRt.obj
 0001:000502e0       _clearInOldRtFlag          004512e0 f   mmOldRt.obj
 0001:00050360       _compareOop                00451360 f   mmOldRt.obj
 0001:0004eaf0       _sweepAndCompactFixedSpaceSeg 0044faf0 f   mmFixedSpace.obj
 0001:0004eb40       _findFreeFsBlockIn         0044fb40 f   mmFixedSpace.obj
 0001:0004eb80       _compactFt                 0044fb80 f   mmFixedSpace.obj
 0001:0004ebd0       _compactFtIn               0044fbd0 f   mmFixedSpace.obj
 0001:0004ed40       _coalesceFreeFsBlocksIn    0044fd40 f   mmFixedSpace.obj
 0001:0004edc0       _fixedSegmentFor           0044fdc0 f   mmFixedSpace.obj
 0001:0004ee10       _fixedSegmentClaimsAddress 0044fe10 f   mmFixedSpace.obj
 0001:0004f1c0       _registerFixedObj          004501c0 f   mmFixedSpace.obj
 0001:0004f2f0       _findFreeFsBlock           004502f0 f   mmFixedSpace.obj
 0001:0004f320       _findContiguousSlotsInFixedSpace 00450320 f   mmFixedSpace.obj
 0001:0004f420       _newFixedSpaceSegment      00450420 f   mmFixedSpace.obj
 0001:0004e1f0       _compactLt                 0044f1f0 f   mmLargeSpace.obj
 0001:0004e360       _coalesceLsFreeBlocks      0044f360 f   mmLargeSpace.obj
 0001:0004e410       _moveOldObjectsFromLargeSpace 0044f410 f   mmLargeSpace.obj
 0001:0004e480       _moveLsDataToOldSpace      0044f480 f   mmLargeSpace.obj
 0001:0004e8b0       _registerLargeObj          0044f8b0 f   mmLargeSpace.obj
 0001:0004b270       _checkFundamentalAsserts   0044c270 f   mmInit.obj
 0001:0004b280       _launchSystem              0044c280 f   mmInit.obj
 0001:0004b2c0       _initMmBefore              0044c2c0 f   mmInit.obj
 0001:0004b430       _initMmAfter               0044c430 f   mmInit.obj
 0001:0004b650       _initMmPrims               0044c650 f   mmInit.obj
 0001:0004b6c0       _permSpaceLoadedCleanly    0044c6c0 f   mmInit.obj
 0001:0004b6e0       _defaultSizesAtStartup     0044c6e0 f   mmInit.obj
 0001:0004bd30       _allocAndLoadObjectMemory  0044cd30 f   mmInit.obj
 0001:0004bf90       _setSizesInSlots           0044cf90 f   mmInit.obj
 0001:0004c170       _setSpaceStarts            0044d170 f   mmInit.obj
 0001:0004c260       _allocHeadroom             0044d260 f   mmInit.obj
 0001:0004c340       _initPermSpace             0044d340 f   mmInit.obj
 0001:0004c410       _initCaches                0044d410 f   mmInit.obj
 0001:0004c520       _initNewSpace              0044d520 f   mmInit.obj
 0001:0004c660       _initLargeSpace            0044d660 f   mmInit.obj
 0001:0004c740       _initFixedSpace            0044d740 f   mmInit.obj
 0001:0004c810       _initOldSpace              0044d810 f   mmInit.obj
 0001:0004c920       _getSlotsInStackSpace      0044d920 f   mmInit.obj
 0001:0004c940       _getSlotsInNMethodZone     0044d940 f   mmInit.obj
 0001:0004c980       _getSlotsInSurvSpace       0044d980 f   mmInit.obj
 0001:0004c9c0       _getSlotsInEden            0044d9c0 f   mmInit.obj
 0001:0004c9e0       _getSlotsInLargeSpace      0044d9e0 f   mmInit.obj
 0001:0004ca10       _getSlotsInFixedSpace      0044da10 f   mmInit.obj
 0001:0004ca40       _getSlotsInPermSpace       0044da40 f   mmInit.obj
 0001:0004ca60       _getSlotsInOldSpace        0044da60 f   mmInit.obj
 0001:0004ca80       _getSlotsInHeadroom        0044da80 f   mmInit.obj
 0001:0004caa0       _convertImageFormat        0044daa0 f   mmInit.obj
 0001:0004cad0       _noteImageFormat           0044dad0 f   mmInit.obj
 0001:0004cae0       _loadPermIntoOld           0044dae0 f   mmInit.obj
 0001:0004cb80       _loadOldIntoPerm           0044db80 f   mmInit.obj
 0001:0004ccd0       _reverseImageByteOrder     0044dcd0 f   mmInit.obj
 0001:0004d080       _updatePtrs                0044e080 f   mmInit.obj
 0001:0004dca0       _updatedOldDataPtrFunc     0044eca0 f   mmInit.obj
 0001:0004dce0       _calculateDataSandbarOffset 0044ece0 f   mmInit.obj
 0001:0004dd30       _calculateOtSandbarOffset  0044ed30 f   mmInit.obj
 0001:0004dd60       _fixUpNonPtrData           0044ed60 f   mmInit.obj
 0001:0004a1e0       _resetIncMarkCounts        0044b1e0 f   mmIncGC.obj
 0001:0004a210       _incMarkSweep              0044b210 f   mmIncGC.obj
 0001:0004a370       _undoIncMark               0044b370 f   mmIncGC.obj
 0001:0004a7b0       _initiateIncMark           0044b7b0 f   mmIncGC.obj
 0001:0004a860       _incMark                   0044b860 f   mmIncGC.obj
 0001:0004aa80       _incMarkObjFunc            0044ba80 f   mmIncGC.obj
 0001:0004aaa0       _incMarkLoop               0044baa0 f   mmIncGC.obj
 0001:0004ade0       _addToEphemeronQueueGC     0044bde0 f   mmIncGC.obj
 0001:0004ae00       _pushMarkStackFunc         0044be00 f   mmIncGC.obj
 0001:0004ae60       _ephemeronNotActivatedFunc 0044be60 f   mmIncGC.obj
 0001:0004ae90       _alwaysFalse               0044be90 f   mmIncGC.obj
 0001:0004aea0       _incNilWeakPtrs            0044bea0 f   mmIncGC.obj
 0001:0004b0b0       _incGCPrim                 0044c0b0 f   mmIncGC.obj
 0001:0004b180       _abortIncMarkPrim          0044c180 f   mmIncGC.obj
 0001:00049340       _globalGarbageCollect      0044a340 f   mmGarbage.obj
 0001:000493a0       _garbageCollect            0044a3a0 f   mmGarbage.obj
 0001:00049400       _markSweepAndCompact       0044a400 f   mmGarbage.obj
 0001:00049510       _markLiveObjects           0044a510 f   mmGarbage.obj
 0001:00049800       _markObjFunc               0044a800 f   mmGarbage.obj
 0001:00049860       _markObjRefs               0044a860 f   mmGarbage.obj
 0001:000499d0       _markObjRefsIfPerm         0044a9d0 f   mmGarbage.obj
 0001:00049a00       _scanMarkedButUnscannedObjects 0044aa00 f   mmGarbage.obj
 0001:00049c80       _scanMarkedButUnscannedObjectsInNewSpace 0044ac80 f   mmGarbage.obj
 0001:00049e80       _moveIneligibleEphemeronsToMarkList 0044ae80 f   mmGarbage.obj
 0001:00049f00       _sweepWeakPtrs             0044af00 f   mmGarbage.obj
 0001:00049fe0       _flushNewSpacePrim         0044afe0 f   mmGarbage.obj
 0001:0004a020       _compactPrim               0044b020 f   mmGarbage.obj
 0001:00048a70       _makeRoomOnFinalQueue      00449a70 f   mmFinal.obj
 0001:00048f30       _installFinalizationSemaphore 00449f30 f   mmFinal.obj
 0001:00048fe0       _fetchFromFinalizationQueue 00449fe0 f   mmFinal.obj
 0001:00049080       _isWeak                    0044a080 f   mmFinal.obj
 0001:000490c0       _isActiveEphemeron         0044a0c0 f   mmFinal.obj
 0001:00049100       _makeWeak                  0044a100 f   mmFinal.obj
 0001:000491b0       _makeEphemeron             0044a1b0 f   mmFinal.obj
 0001:00047cd0       _someInstance              00448cd0 f   mmEnumerate.obj
 0001:00047db0       _objIsInstanceOf           00448db0 f   mmEnumerate.obj
 0001:00047dd0       _objIsInstanceOfContextClass 00448dd0 f   mmEnumerate.obj
 0001:00047e10       _nextInstance              00448e10 f   mmEnumerate.obj
 0001:00047eb0       _allInstancesWeakly        00448eb0 f   mmEnumerate.obj
 0001:00048080       _allInstancesOfAnyWeakly   00449080 f   mmEnumerate.obj
 0001:00048290       _objIsInstanceOfAny        00449290 f   mmEnumerate.obj
 0001:00048300       _firstOwner                00449300 f   mmEnumerate.obj
 0001:00048390       _ownerAfter                00449390 f   mmEnumerate.obj
 0001:00048400       _allOwnersWeakly           00449400 f   mmEnumerate.obj
 0001:000484e0       _deHybridizeCommittedContext 004494e0 f   mmEnumerate.obj
 0001:00048530       _allStrongOwnersWeakly     00449530 f   mmEnumerate.obj
 0001:00048610       _strongOopInObj            00449610 f   mmEnumerate.obj
 0001:000486f0       _someObject                004496f0 f   mmEnumerate.obj
 0001:00048780       _objIsActive               00449780 f   mmEnumerate.obj
 0001:00048790       _nextObject                00449790 f   mmEnumerate.obj
 0001:000487f0       _allObjectsWeakly          004497f0 f   mmEnumerate.obj
 0001:00047860       _printReferents            00448860 f   mmDebug.obj
 0001:000478f0       _safeOopInObj              004488f0 f   mmDebug.obj
 0001:00043120       _becomeDispatch            00444120 f   mmBecome.obj
 0001:000433a0       _oldAndOldBecome           004443a0 f   mmBecome.obj
 0001:00043410       _oldAndNewBecome           00444410 f   mmBecome.obj
 0001:00043be0       _oldAndPermBecome          00444be0 f   mmBecome.obj
 0001:00043ed0       _oldAndTaggedOldBecome     00444ed0 f   mmBecome.obj
 0001:00043f00       _oldAndTaggedNewBecome     00444f00 f   mmBecome.obj
 0001:00044240       _newAndNewBecome           00445240 f   mmBecome.obj
 0001:00044780       _newAndTaggedNewBecome     00445780 f   mmBecome.obj
 0001:00044a00       _newAndTaggedOldBecome     00445a00 f   mmBecome.obj
 0001:00044ea0       _permAndTaggedOldBecome    00445ea0 f   mmBecome.obj
 0001:00044ed0       _permAndTaggedNewBecome    00445ed0 f   mmBecome.obj
 0001:00045180       _taggedOldAndTaggedOldBecome 00446180 f   mmBecome.obj
 0001:00045220       _taggedOldAndTaggedNewBecome 00446220 f   mmBecome.obj
 0001:00045260       _taggedNewAndTaggedNewBecome 00446260 f   mmBecome.obj
 0001:00045280       _reRegisterTaggedObj       00446280 f   mmBecome.obj
 0001:000452c0       _swapOtEntries             004462c0 f   mmBecome.obj
 0001:000453a0       _swapTaggedObjects         004463a0 f   mmBecome.obj
 0001:00045450       _become                    00446450 f   mmBecome.obj
 0001:00045680       _mirrorBecome              00446680 f   mmBecome.obj
 0001:00045890       _oneWayBecome              00446890 f   mmBecome.obj
 0001:000459c0       _replaceOopInObj           004469c0 f   mmBecome.obj
 0001:00045b60       _replaceReference          00446b60 f   mmBecome.obj
 0001:00042430       _new                       00443430 f   mmAllocate.obj
 0001:00042610       _newWithArg                00443610 f   mmAllocate.obj
 0001:000429d0       _newWeakWithArg            004439d0 f   mmAllocate.obj
 0001:00042c10       _rawNewInFixedSpaceWithArg 00443c10 f   mmAllocate.obj
 0001:00042cc0       _newInFixedSpaceWithArg    00443cc0 f   mmAllocate.obj
 0001:00042e70       _rawNewWithArg             00443e70 f   mmAllocate.obj
 0001:00042f90       _objectDataIsFixed         00443f90 f   mmAllocate.obj
 0001:00042fe0       _addressOfFixedObject      00443fe0 f   mmAllocate.obj
 0001:00043060       _objectShallowCopy         00444060 f   mmAllocate.obj
 0001:00041220       _objectHash                00442220 f   mm.obj
 0001:00041260       _primHasHash               00442260 f   mm.obj
 0001:000412a0       _primGetHash               004422a0 f   mm.obj
 0001:000412f0       _primSetHash               004422f0 f   mm.obj
 0001:00041360       _primGetImmutability       00442360 f   mm.obj
 0001:00041390       _primSetImmutability       00442390 f   mm.obj
 0001:00041480       _mirrorGetImmutability     00442480 f   mm.obj
 0001:000414b0       _mirrorSetImmutability     004424b0 f   mm.obj
 0001:000415a0       _notEquivalent             004425a0 f   mm.obj
 0001:000415d0       _equivalent                004425d0 f   mm.obj
 0001:00041600       _objectClass               00442600 f   mm.obj
 0001:00041630       _mirrorHash                00442630 f   mm.obj
 0001:00041670       _mirrorNotEquivalent       00442670 f   mm.obj
 0001:000416a0       _mirrorEquivalent          004426a0 f   mm.obj
 0001:000416d0       _mirrorClass               004426d0 f   mm.obj
 0001:00041700       _changeClass               00442700 f   mm.obj
 0001:000419b0       _adoptInstance             004429b0 f   mm.obj
 0001:00040e00       _mapLinkedInExternalName   00441e00 f   prLinkRegistry.obj
 0001:0003d440       _largeIntAdd               0043e440 f   prLarge.obj
 0001:0003d600       _compress                  0043e600 f   prLarge.obj
 0001:0003d7a0       _digitAdd                  0043e7a0 f   prLarge.obj
 0001:0003d8e0       _newInteger                0043e8e0 f   prLarge.obj
 0001:0003d9d0       _digitSubtract             0043e9d0 f   prLarge.obj
 0001:0003db30       _largeIntSubtract          0043eb30 f   prLarge.obj
 0001:0003dcf0       _largeIntLess              0043ecf0 f   prLarge.obj
 0001:0003de50       _digitCompare              0043ee50 f   prLarge.obj
 0001:0003deb0       _largeIntGreater           0043eeb0 f   prLarge.obj
 0001:0003e020       _largeIntLessEq            0043f020 f   prLarge.obj
 0001:0003e180       _largeIntGreaterEq         0043f180 f   prLarge.obj
 0001:0003e2f0       _largeIntEq                0043f2f0 f   prLarge.obj
 0001:0003e450       _largeIntNotEq             0043f450 f   prLarge.obj
 0001:0003e5b0       _largeIntTimes             0043f5b0 f   prLarge.obj
 0001:0003e820       _largeIntDivide            0043f820 f   prLarge.obj
 0001:0003e9e0       _digitDiv                  0043f9e0 f   prLarge.obj
 0001:0003edb0       _high_bit                  0043fdb0 f   prLarge.obj
 0001:0003ee00       _largeLeftShift            0043fe00 f   prLarge.obj
 0001:0003ef10       _largeRightShift           0043ff10 f   prLarge.obj
 0001:0003f050       _digitDivSmall             00440050 f   prLarge.obj
 0001:0003f1e0       _largeIntMod               004401e0 f   prLarge.obj
 0001:0003f380       _largeIntDiv               00440380 f   prLarge.obj
 0001:0003f520       _largeIntQuo               00440520 f   prLarge.obj
 0001:0003f690       _largeIntAnd               00440690 f   prLarge.obj
 0001:0003f8f0       _largeIntOr                004408f0 f   prLarge.obj
 0001:0003fb50       _largeIntXor               00440b50 f   prLarge.obj
 0001:0003fdb0       _largeIntShift             00440db0 f   prLarge.obj
 0001:0003fef0       _largeIntGCD3              00440ef0 f   prLarge.obj
 0001:00040700       _gcdSubtract               00441700 f   prLarge.obj
 0001:000407e0       _gcdShift                  004417e0 f   prLarge.obj
 0001:00040920       _lowBit                    00441920 f   prLarge.obj
 0001:00040960       _largeHighBit              00441960 f   prLarge.obj
 0001:000409a0       _extractHigh               004419a0 f   prLarge.obj
 0001:000409f0       _productAndAdd             004419f0 f   prLarge.obj
 0001:00040be0       _smallIntGCD               00441be0 f   prLarge.obj
 0001:0003bf00       _asFloat                   0043cf00 f   prFloat.obj
 0001:0003bf90       _floatPlus                 0043cf90 f   prFloat.obj
 0001:0003c090       _floatMinus                0043d090 f   prFloat.obj
 0001:0003c190       _floatLt                   0043d190 f   prFloat.obj
 0001:0003c240       _floatGt                   0043d240 f   prFloat.obj
 0001:0003c2f0       _floatLe                   0043d2f0 f   prFloat.obj
 0001:0003c3a0       _floatGe                   0043d3a0 f   prFloat.obj
 0001:0003c450       _floatEq                   0043d450 f   prFloat.obj
 0001:0003c500       _floatNe                   0043d500 f   prFloat.obj
 0001:0003c5b0       _floatTimes                0043d5b0 f   prFloat.obj
 0001:0003c6b0       _floatDivide               0043d6b0 f   prFloat.obj
 0001:0003c7b0       _floatTruncated            0043d7b0 f   prFloat.obj
 0001:0003c800       _floatFractionPart         0043d800 f   prFloat.obj
 0001:0003c8f0       _floatExponent             0043d8f0 f   prFloat.obj
 0001:0003c920       _floatTimesTwoPower        0043d920 f   prFloat.obj
 0001:0003ca60       _floatRounded              0043da60 f   prFloat.obj
 0001:0003cae0       _floatSin                  0043dae0 f   prFloat.obj
 0001:0003cba0       _floatCos                  0043dba0 f   prFloat.obj
 0001:0003cc60       _floatTan                  0043dc60 f   prFloat.obj
 0001:0003cd20       _floatArcSin               0043dd20 f   prFloat.obj
 0001:0003cde0       _floatArcCos               0043dde0 f   prFloat.obj
 0001:0003cea0       _floatArcTan               0043dea0 f   prFloat.obj
 0001:0003cf60       _floatSqrt                 0043df60 f   prFloat.obj
 0001:0003d020       _floatLn                   0043e020 f   prFloat.obj
 0001:0003d0e0       _floatExp                  0043e0e0 f   prFloat.obj
 0001:0003d1a0       _floatRaisedTo             0043e1a0 f   prFloat.obj
 0001:0003d2a0       _floatFloorLog10           0043e2a0 f   prFloat.obj
 0001:0003a3b0       _doubleFromNumber          0043b3b0 f   prDouble.obj
 0001:0003a4a0       _doubleAsFloat             0043b4a0 f   prDouble.obj
 0001:0003a560       _doublePlus                0043b560 f   prDouble.obj
 0001:0003a6b0       _doubleMinus               0043b6b0 f   prDouble.obj
 0001:0003a800       _doubleLt                  0043b800 f   prDouble.obj
 0001:0003a8d0       _doubleGt                  0043b8d0 f   prDouble.obj
 0001:0003a9a0       _doubleLe                  0043b9a0 f   prDouble.obj
 0001:0003aa70       _doubleGe                  0043ba70 f   prDouble.obj
 0001:0003ab40       _doubleEq                  0043bb40 f   prDouble.obj
 0001:0003ac00       _doubleNe                  0043bc00 f   prDouble.obj
 0001:0003acc0       _doubleTimes               0043bcc0 f   prDouble.obj
 0001:0003ae10       _doubleDivide              0043be10 f   prDouble.obj
 0001:0003af60       _doubleTruncated           0043bf60 f   prDouble.obj
 0001:0003afe0       _doubleFractionPart        0043bfe0 f   prDouble.obj
 0001:0003b100       _doubleExponent            0043c100 f   prDouble.obj
 0001:0003b140       _doubleTimesTwoPower       0043c140 f   prDouble.obj
 0001:0003b270       _doubleRounded             0043c270 f   prDouble.obj
 0001:0003b310       _doubleSin                 0043c310 f   prDouble.obj
 0001:0003b3f0       _doubleCos                 0043c3f0 f   prDouble.obj
 0001:0003b4d0       _doubleTan                 0043c4d0 f   prDouble.obj
 0001:0003b5b0       _doubleArcSin              0043c5b0 f   prDouble.obj
 0001:0003b690       _doubleArcCos              0043c690 f   prDouble.obj
 0001:0003b770       _doubleArcTan              0043c770 f   prDouble.obj
 0001:0003b850       _doubleSqrt                0043c850 f   prDouble.obj
 0001:0003b930       _doubleLn                  0043c930 f   prDouble.obj
 0001:0003ba10       _doubleExp                 0043ca10 f   prDouble.obj
 0001:0003baf0       _doubleRaisedTo            0043caf0 f   prDouble.obj
 0001:0003bc40       _doubleFloorLog10          0043cc40 f   prDouble.obj
 0001:0003bcb0       _smallIntegerAsDouble      0043ccb0 f   prDouble.obj
 0001:00037d20       _cToOEint                  00438d20 f   prCtoST.obj
 0001:00037d80       _cToOEfloat                00438d80 f   prCtoST.obj
 0001:00039d90       _cToOEdouble               0043ad90 f   prCtoST.obj
 0001:00036fe0       _intPlus                   00437fe0 f   prArithmetic.obj
 0001:00037070       _intMinus                  00438070 f   prArithmetic.obj
 0001:000370f0       _intLt                     004380f0 f   prArithmetic.obj
 0001:00037130       _intGt                     00438130 f   prArithmetic.obj
 0001:00037170       _intLe                     00438170 f   prArithmetic.obj
 0001:000371b0       _intGe                     004381b0 f   prArithmetic.obj
 0001:000371f0       _intEq                     004381f0 f   prArithmetic.obj
 0001:00037230       _intNe                     00438230 f   prArithmetic.obj
 0001:00037270       _intTimes                  00438270 f   prArithmetic.obj
 0001:00037340       _intDivide                 00438340 f   prArithmetic.obj
 0001:000373d0       _intMod                    004383d0 f   prArithmetic.obj
 0001:00037440       _intDiv                    00438440 f   prArithmetic.obj
 0001:000374d0       _intQuo                    004384d0 f   prArithmetic.obj
 0001:00037540       _bitAnd                    00438540 f   prArithmetic.obj
 0001:00037570       _bitOr                     00438570 f   prArithmetic.obj
 0001:000375a0       _bitXor                    004385a0 f   prArithmetic.obj
 0001:000375d0       _bitShift                  004385d0 f   prArithmetic.obj
 0001:00037860       _makePoint                 00438860 f   prArithmetic.obj
 0001:00035aa0       _DoCallbackReturn          00436aa0 f   exThapi.obj
 0001:00035da0       _KillOtherThread           00436da0 f   exThapi.obj
 0001:00035e90       _NewIOThread               00436e90 f   exThapi.obj
 0001:00036180       _IOStateMachine            00437180 f   exThapi.obj
 0001:00036280       _InitialIOStateMachine@4   00437280 f   exThapi.obj
 0001:000369c0       _NewSmalltalkSemaphore     004379c0 f   exThapi.obj
 0001:00036a80       _NBAPIError                00437a80 f   exThapi.obj
 0001:00036af0       _CurrentThreadPriority     00437af0 f   exThapi.obj
 0001:00036b00       _NewThread                 00437b00 f   exThapi.obj
 0001:00036ba0       _InitSignals               00437ba0 f   exThapi.obj
 0001:00036bb0       _NewSemaphore              00437bb0 f   exThapi.obj
 0001:00036c00       _DestroySemaphore          00437c00 f   exThapi.obj
 0001:00034cb0       _signalTimerSemaphore      00435cb0 f   exTimer.obj
 0001:00034ce0       _setAbsTimer               00435ce0 f   exTimer.obj
 0001:00034d60       _checkTimers               00435d60 f   exTimer.obj
 0001:00034e70       _microseconds              00435e70 f   exTimer.obj
 0001:00034f30       _signalAtMicroseconds      00435f30 f   exTimer.obj
 0001:00034bb0       _registerCSCsem            00435bb0 f   exSignal.obj
 0001:00034570       _primScanCharacters        00435570 f   exScanCh.obj
 0001:00034810       _primScanByteIndexed       00435810 f   exScanCh.obj
 0001:000338d0       _checkIntArg               004348d0 f   exOption.obj
 0001:00032170       _saveCStack                00433170 f   exMessage.obj
 0001:000322c0       _markAndCallback           004332c0 f   exMessage.obj
 0001:00032460       _sendMessageMany           00433460 f   exMessage.obj
 0001:00032d40       _primExternalMessageReturn 00433d40 f   exMessage.obj
 0001:00032de0       _unsaveStack               00433de0 f   exMessage.obj
 0001:00032df0       _primExternalMessageInstall 00433df0 f   exMessage.obj
 0001:00032ed0       _primCallbackInstall       00433ed0 f   exMessage.obj
 0001:00033050       _primReturnToThread        00434050 f   exMessage.obj
 0001:000330a0       _primGetForeignCallbackProcess 004340a0 f   exMessage.obj
 0001:000330c0       _primSetForeignCallbackProcess 004340c0 f   exMessage.obj
 0001:00033130       _primThreadAttachment      00434130 f   exMessage.obj
 0001:00033200       _primGetThreadLevels       00434200 f   exMessage.obj
 0001:000332e0       _primSetThreadLevels       004342e0 f   exMessage.obj
 0001:00033340       _primInformSystemReady     00434340 f   exMessage.obj
 0001:000312a0       _exitToExec                004322a0 f   exLeave.obj
 0001:000312c0       _exitToExecWithErr         004322c0 f   exLeave.obj
 0001:00031300       _invokeDebugger            00432300 f   exLeave.obj
 0001:00031310       _breakIfBogus              00432310 f   exLeave.obj
 0001:00030fc0       _cursorLocPut              00431fc0 f   exIO.obj
 0001:00031050       _getSelection              00432050 f   exIO.obj
 0001:00031140       _putSelection              00432140 f   exIO.obj
 0001:00030bb0       _lastRepaintFor            00431bb0 f   exInQueue.obj
 0001:00030cf0       _setInputSemaphore         00431cf0 f   exInQueue.obj
 0001:00030d90       _enableInput               00431d90 f   exInQueue.obj
 0001:00030dc0       _primNextEvent             00431dc0 f   exInQueue.obj
 0001:00030f70       _primGetSizeOfInput        00431f70 f   exInQueue.obj
 0001:0002ff40       _setHPSFlags               00430f40 f   exInit.obj
 0001:0002ffc0       _startHerald               00430fc0 f   exInit.obj
 0001:00030010       _registerKnownIndices      00431010 f   exInit.obj
 0001:00030330       _initInflation             00431330 f   exInit.obj
 0001:00030500       _oeConflateInitAlloc       00431500 f   exInit.obj
 0001:00030540       _oeConflateAlloc           00431540 f   exInit.obj
 0001:00030690       _oeConflateFree            00431690 f   exInit.obj
 0001:00030950       _oeConflateInitHeapObj     00431950 f   exInit.obj
 0001:0002fc80       _primRegisterExportTable   00430c80 f   exExport.obj
 0001:0002fb10       _errorString               00430b10 f   exError.obj
 0001:0002fb50       _printBoth                 00430b50 f   exError.obj
 0001:0002e5c0       _regBoolean                0042f5c0 f   exEnviron.obj
 0001:0002e600       _regStringOrNil            0042f600 f   exEnviron.obj
 0001:0002e710       _regSemaphoreOrNil         0042f710 f   exEnviron.obj
 0001:0002e740       _regNop                    0042f740 f   exEnviron.obj
 0001:0002e810       _primTurnOffUnicode        0042f810 f   exEnviron.obj
 0001:0002e820       _getVersionId              0042f820 f   exEnviron.obj
 0001:0002e8e0       _platformStringEncoding    0042f8e0 f   exEnviron.obj
 0001:0002ec20       _bePreferredStringClass    0042fc20 f   exEnviron.obj
 0001:0002ecc0       _queryErrorCodes           0042fcc0 f   exEnviron.obj
 0001:0002ed30       _setErrorCodes             0042fd30 f   exEnviron.obj
 0001:0002ee00       _primTurnOnUnicode         0042fe00 f   exEnviron.obj
 0001:0002ee10       _primRegisterObjectByName  0042fe10 f   exEnviron.obj
 0001:0002ef70       _infoForName               0042ff70 f   exEnviron.obj
 0001:0002f090       _primRegisteredObject      00430090 f   exEnviron.obj
 0001:0002f5d0       _primRegistrationNames     004305d0 f   exEnviron.obj
 0001:0002e380       _ringBell                  0042f380 f   exDisplay.obj
 0001:0002e3d0       _openDisplay               0042f3d0 f   exDisplay.obj
 0001:0002bd40       _primFree                  0042cd40 f   exCallSup.obj
 0001:0002bdd0       _primNumBits               0042cdd0 f   exCallSup.obj
 0001:0002be20       _primMalloc                0042ce20 f   exCallSup.obj
 0001:0002bf00       _primCalloc                0042cf00 f   exCallSup.obj
 0001:0002c010       _primCopyFromExternalHeap  0042d010 f   exCallSup.obj
 0001:0002c0a0       _validateCParams           0042d0a0 f   exCallSup.obj
 0001:0002c170       _primCopyToExternalHeap    0042d170 f   exCallSup.obj
 0001:0002c200       _primCopyCStringFromHeap   0042d200 f   exCallSup.obj
 0001:0002c3d0       _primCopyDoubleByteStringFromHeap 0042d3d0 f   exCallSup.obj
 0001:0002c4e0       _primCopyCString           0042d4e0 f   exCallSup.obj
 0001:0002c570       _primCopyDoubleByteString  0042d570 f   exCallSup.obj
 0001:0002c610       _primMemberContentsAt      0042d610 f   exCallSup.obj
 0001:0002c8d0       _contentsAt                0042d8d0 f   exCallSup.obj
 0001:0002cfb0       _primMemberContentsAtPut   0042dfb0 f   exCallSup.obj
 0001:0002d2a0       _contentsAtPut             0042e2a0 f   exCallSup.obj
 0001:0002dca0       _primContentsAtIndex       0042eca0 f   exCallSup.obj
 0001:0002dd90       _primContentsAt            0042ed90 f   exCallSup.obj
 0001:0002de30       _primContentsAtIndexPut    0042ee30 f   exCallSup.obj
 0001:0002df10       _primContentsAtPut         0042ef10 f   exCallSup.obj
 0001:0002df80       _primCompositeContentsAt   0042ef80 f   exCallSup.obj
 0001:0002e0f0       _primCompositeContentsAtPut 0042f0f0 f   exCallSup.obj
 0001:0002e270       _primIndexOfMember         0042f270 f   exCallSup.obj
 0001:0002e330       _initializeKindSizeTable   0042f330 f   exCallSup.obj
 0001:0002b2f0       _primThunkCreate           0042c2f0 f   exCallback.obj
 0001:0002b4a0       _primThunkDestroy          0042c4a0 f   exCallback.obj
 0001:0002b530       _primCallbackProcess       0042c530 f   exCallback.obj
 0001:00029b30       _primRegisterCDatumClasses 0042ab30 f   exCallC.obj
 0001:00029c80       _primUnlinkedSendSelector  0042ac80 f   exCallC.obj
 0001:00029d30       _primCallVarArgC           0042ad30 f   exCallC.obj
 0001:0002a3e0       _unlinkedCall              0042b3e0 f   exCallC.obj
 0001:0002a650       _primCallCSlow             0042b650 f   exCallC.obj
 0001:0002ae10       _primCallVarArgUserC       0042be10 f   exCallC.obj
 0001:000287e0       _primCOMMethodInstVarOffset 004297e0 f   exCOM.obj
 0001:00028860       _primInterfaceInstVarOffset 00429860 f   exCOM.obj
 0001:000288a0       _primCallCOMMethod         004298a0 f   exCOM.obj
 0001:00028ef0       _primCallCOMMethodSlow     00429ef0 f   exCOM.obj
 0001:00029680       _primCreateCOMMethodTable  0042a680 f   exCOM.obj
 0001:000297d0       _enumerateMethodSignatures 0042a7d0 f   exCOM.obj
 0001:00029930       _primDestroyCOMMethodTable 0042a930 f   exCOM.obj
 0001:00021b70       _addWordwith               00422b70 f   exBitBlt.obj
 0001:00021b80       _alphaBlendwith            00422b80 f   exBitBlt.obj
 0001:00021bf0       _alphaBlendConstwith       00422bf0 f   exBitBlt.obj
 0001:00021d90       _alphaBlendScaledwith      00422d90 f   exBitBlt.obj
 0001:00021e60       _alphaPaintConstwith       00422e60 f   exBitBlt.obj
 0001:00022020       _bitAndwith                00423020 f   exBitBlt.obj
 0001:00022030       _bitAndInvertwith          00423030 f   exBitBlt.obj
 0001:00022040       _bitInvertAndwith          00423040 f   exBitBlt.obj
 0001:00022050       _bitInvertAndInvertwith    00423050 f   exBitBlt.obj
 0001:00022070       _bitInvertDestinationwith  00423070 f   exBitBlt.obj
 0001:00022080       _bitInvertOrwith           00423080 f   exBitBlt.obj
 0001:00022090       _bitInvertOrInvertwith     00423090 f   exBitBlt.obj
 0001:000220b0       _bitInvertSourcewith       004230b0 f   exBitBlt.obj
 0001:000220c0       _bitInvertXorwith          004230c0 f   exBitBlt.obj
 0001:000220d0       _bitOrwith                 004230d0 f   exBitBlt.obj
 0001:000220e0       _bitOrInvertwith           004230e0 f   exBitBlt.obj
 0001:000220f0       _bitXorwith                004230f0 f   exBitBlt.obj
 0001:00022100       _clearWordwith             00423100 f   exBitBlt.obj
 0001:00022630       _alphaSourceBlendBits16    00423630 f   exBitBlt.obj
 0001:00022a30       _alphaSourceBlendBits32    00423a30 f   exBitBlt.obj
 0001:00022c60       _alphaSourceBlendBits8     00423c60 f   exBitBlt.obj
 0001:00022f60       _clipRange                 00423f60 f   exBitBlt.obj
 0001:00023100       _copyLoop                  00424100 f   exBitBlt.obj
 0001:000236d0       _copyLoopNoSource          004246d0 f   exBitBlt.obj
 0001:000238d0       _copyLoopPixMap            004248d0 f   exBitBlt.obj
 0001:00023e20       _default8To32Table         00424e20 f   exBitBlt.obj
 0001:00023e30       _destinationWordwith       00424e30 f   exBitBlt.obj
 0001:00023e40       _dstLongAt                 00424e40 f   exBitBlt.obj
 0001:00023e80       _dstLongAtput              00424e80 f   exBitBlt.obj
 0001:00023ed0       _fixAlphawith              00424ed0 f   exBitBlt.obj
 0001:00023f50       _byteArrayCopyBitsstridewidthxysourcestridewidthxywidthheigthrule 00424f50 f   exBitBlt.obj
 0001:00023fa0       _byteArrayCopyBitsstridewidthxysourcestridewidthxyhalftonestridewidthheigthrule 00424fa0 f   exBitBlt.obj
 0001:000249d0       _loadBitBltFromwarping     004259d0 f   exBitBlt.obj
 0001:00025110       _fetchIntOrFloatofObjectifNil 00426110 f   exBitBlt.obj
 0001:000251d0       _loadColorMapFromintoCLUTshiftsmasks 004261d0 f   exBitBlt.obj
 0001:00025470       _loadHalftoneForm          00426470 f   exBitBlt.obj
 0001:00025540       _lockSurfaces              00426540 f   exBitBlt.obj
 0001:00025790       _loadSurfacePlugin         00426790 f   exBitBlt.obj
 0001:00025810       _palettesMatch             00426810 f   exBitBlt.obj
 0001:000258c0       _pixClearwith              004268c0 f   exBitBlt.obj
 0001:00025920       _pixMaskwith               00426920 f   exBitBlt.obj
 0001:00025960       _pixPaintwith              00426960 f   exBitBlt.obj
 0001:000259a0       _partitionedANDtonBitsnPartitions 004269a0 f   exBitBlt.obj
 0001:000259e0       _pixSwapwith               004269e0 f   exBitBlt.obj
 0001:00026040       _fetchIntegerofObject      00427040 f   exBitBlt.obj
 0001:000267d0       _queryDestSurface          004277d0 f   exBitBlt.obj
 0001:00026820       _querySourceSurface        00427820 f   exBitBlt.obj
 0001:00026870       _rgbAddwith                00427870 f   exBitBlt.obj
 0001:000268f0       _partitionedAddtonBitsnPartitions 004278f0 f   exBitBlt.obj
 0001:00026940       _rgbDiffwith               00427940 f   exBitBlt.obj
 0001:00026a30       _partitionedSubfromnBitsnPartitions 00427a30 f   exBitBlt.obj
 0001:00026a80       _rgbMaxwith                00427a80 f   exBitBlt.obj
 0001:00026b40       _partitionedMaxwithnBitsnPartitions 00427b40 f   exBitBlt.obj
 0001:00026b80       _rgbMinwith                00427b80 f   exBitBlt.obj
 0001:00026c40       _partitionedMinwithnBitsnPartitions 00427c40 f   exBitBlt.obj
 0001:00026c80       _rgbMinInvertwith          00427c80 f   exBitBlt.obj
 0001:00026d30       _rgbMulwith                00427d30 f   exBitBlt.obj
 0001:00026db0       _partitionedMulwithnBitsnPartitions 00427db0 f   exBitBlt.obj
 0001:00026e30       _rgbSubwith                00427e30 f   exBitBlt.obj
 0001:00026eb0       _setWordwith               00427eb0 f   exBitBlt.obj
 0001:00027530       _sourceWordwith            00428530 f   exBitBlt.obj
 0001:00027540       _srcLongAt                 00428540 f   exBitBlt.obj
 0001:00027580       _subWordwith               00428580 f   exBitBlt.obj
 0001:00027590       _tileArrayCopyBitsstridewidthxysourcestridewidthxywidthheigthrule 00428590 f   exBitBlt.obj
 0001:000275e0       _unlockSurfaces            004285e0 f   exBitBlt.obj
 0001:000276b0       _warpLoopSmoothing         004286b0 f   exBitBlt.obj
 0001:00027fd0       _deltaFromtonSteps         00428fd0 f   exBitBlt.obj
 0001:00028020       _fetchIntOrFloatofObject   00429020 f   exBitBlt.obj
 0001:000280d0       _mapDestPixel              004290d0 f   exBitBlt.obj
 0001:00028140       _warpPickSmoothPixelsxDeltahyDeltahxDeltavyDeltavsmoothingdstShiftInc 00429140 f   exBitBlt.obj
 0001:000218f0       _thunkArgumentsFar         004228f0 f   ntcbk16.obj
 0001:00020ba0       _processException          00421ba0 f   ntcallc.obj
 0001:0001eff0       _thunkProcess              0041fff0 f   ntcallbk.obj
 0001:0001f520       _thunkArguments            00420520 f   ntcallbk.obj
 0001:0001e090       _invokeCOMMethod           0041f090 f   ntcom.obj
 0001:0001cf50       _pollEvents                0041df50 f   ntwin.obj
 0001:0001cbe0       _pdReInitTime              0041dbe0 f   nttime.obj
 0001:0001abb0       _primNewPrinter            0041bbb0 f   ntprint.obj
 0001:0001ad70       _bInitCoordinateSystem     0041bd70 f   ntprint.obj
 0001:0001ae10       _primBeginPrintJob         0041be10 f   ntprint.obj
 0001:0001af10       _primSendToPrinter         0041bf10 f   ntprint.obj
 0001:0001afb0       _primClosePrinter          0041bfb0 f   ntprint.obj
 0001:0001b040       _primNewPage               0041c040 f   ntprint.obj
 0001:0001b0f0       _primListPrinterFonts      0041c0f0 f   ntprint.obj
 0001:0001b190       _primCreatePrinterFont     0041c190 f   ntprint.obj
 0001:0001b420       _primPrintImage            0041c420 f   ntprint.obj
 0001:0001b460       _bSTImageToDC              0041c460 f   ntprint.obj
 0001:0001b9a0       _primPrintMonoImage        0041c9a0 f   ntprint.obj
 0001:0001ba80       _primColorPrinterDepthAndBitsPerPixel 0041ca80 f   ntprint.obj
 0001:0001bb50       _primCoveragePrinterDepthAndBitsPerPixel 0041cb50 f   ntprint.obj
 0001:0001bbf0       _primGetPrinterDimensions  0041cbf0 f   ntprint.obj
 0001:0001c0b0       _primPrinterName           0041d0b0 f   ntprint.obj
 0001:0001c170       _primChangePrinterExtent   0041d170 f   ntprint.obj
 0001:0001c280       _primSetLandscape          0041d280 f   ntprint.obj
 0001:0001c390       _primPrinterEscape         0041d390 f   ntprint.obj
 0001:0001c430       _primStartPage             0041d430 f   ntprint.obj
 0001:0001c4e0       _primEndPage               0041d4e0 f   ntprint.obj
 0001:0001c570       _primSendJobToPrinter      0041d570 f   ntprint.obj
 0001:00017d80       _outputWSALastError        00418d80 f   ntsock.obj
 0001:00017fb0       _sockWSAEvent              00418fb0 f   ntsock.obj
 0001:000180a0       _sockSignalSemaphore       004190a0 f   ntsock.obj
 0001:00018150       _sockCleanup               00419150 f   ntsock.obj
 0001:00018320       _sockInit                  00419320 f   ntsock.obj
 0001:000184a0       _setSem                    004194a0 f   ntsock.obj
 0001:000186a0       _sockOpen                  004196a0 f   ntsock.obj
 0001:00018910       _sockAccept                00419910 f   ntsock.obj
 0001:00018d80       _sockBind                  00419d80 f   ntsock.obj
 0001:00018e60       _sockListen                00419e60 f   ntsock.obj
 0001:00018f30       _sockConnect               00419f30 f   ntsock.obj
 0001:00018fe0       _sockRecvfrom              00419fe0 f   ntsock.obj
 0001:00019200       _sockSendto                0041a200 f   ntsock.obj
 0001:00019420       _sockShutdown              0041a420 f   ntsock.obj
 0001:000194d0       _sockSetOptions            0041a4d0 f   ntsock.obj
 0001:00019640       _sockGetOptions            0041a640 f   ntsock.obj
 0001:000197f0       _sockGetName               0041a7f0 f   ntsock.obj
 0001:00019940       _sockGetPeer               0041a940 f   ntsock.obj
 0001:00019b30       _sockAtMark                0041ab30 f   ntsock.obj
 0001:00019be0       _getIPHostNum              0041abe0 f   ntsock.obj
 0001:00019d70       _getIPProtoNum             0041ad70 f   ntsock.obj
 0001:00019e30       _getIPServNum              0041ae30 f   ntsock.obj
 0001:00019f70       _getIPHostNam              0041af70 f   ntsock.obj
 0001:0001a0e0       _getIPProtoNam             0041b0e0 f   ntsock.obj
 0001:0001a1b0       _getIPServNam              0041b1b0 f   ntsock.obj
 0001:0001a2b0       _primGetHostname           0041b2b0 f   ntsock.obj
 0001:0001a390       _sockClose                 0041b390 f   ntsock.obj
 0001:0001a440       _loadSocketLibrary         0041b440 f   ntsock.obj
 0001:0001a450       _bCreateSocketWindow       0041b450 f   ntsock.obj
 0001:00016d80       _fileOpen                  00417d80 f   ntfio.obj
 0001:00017040       _fileClose                 00418040 f   ntfio.obj
 0001:000170f0       _fileRead                  004180f0 f   ntfio.obj
 0001:00017240       _fileWrite                 00418240 f   ntfio.obj
 0001:00017390       _fileSeek                  00418390 f   ntfio.obj
 0001:000174f0       _fileTruncate              004184f0 f   ntfio.obj
 0001:000175f0       _ioaCommit                 004185f0 f   ntfio.obj
 0001:000176a0       _fileSize                  004186a0 f   ntfio.obj
 0001:00017820       _lockOrUnlock              00418820 f   ntfio.obj
 0001:000179a0       _outstanding               004189a0 f   ntfio.obj
 0001:00017a40       _bufferSize                00418a40 f   ntfio.obj
 0001:00017a90       _primGetDescriptor         00418a90 f   ntfio.obj
 0001:00017b10       _primGetStdHandle          00418b10 f   ntfio.obj
 0001:00014570       _bFileSize                 00415570 f   ntfile.obj
 0001:00014780       _getDates                  00415780 f   ntfile.obj
 0001:00014920       _listDir                   00415920 f   ntfile.obj
 0001:00014f20       _invalidDrive              00415f20 f   ntfile.obj
 0001:00014f70       _deleteFile                00415f70 f   ntfile.obj
 0001:00015030       _isDirectory               00416030 f   ntfile.obj
 0001:000150e0       _renameFile                004160e0 f   ntfile.obj
 0001:000151e0       _makeDir                   004161e0 f   ntfile.obj
 0001:00015290       _defaultDir                00416290 f   ntfile.obj
 0001:00015330       _primFileSize              00416330 f   ntfile.obj
 0001:00015420       _isWritable                00416420 f   ntfile.obj
 0001:00015520       _setWritable               00416520 f   ntfile.obj
 0001:00015600       _fileExists                00416600 f   ntfile.obj
 0001:00015670       _getVolumeStrings          00416670 f   ntfile.obj
 0001:00015980       _fileSystem                00416980 f   ntfile.obj
 0001:00015b20       _fileSystemAttributes      00416b20 f   ntfile.obj
 0001:000163d0       _primPrintPostScriptFile   004173d0 f   ntfile.obj
 0001:000164c0       _primPrintTextFile         004174c0 f   ntfile.obj
 0001:000165d0       _primEnvironment           004175d0 f   ntfile.obj
 0001:000167e0       _commandLineArguments      004177e0 f   ntfile.obj
 0001:000169b0       _primProcessId             004179b0 f   ntfile.obj
 0001:000169f0       _IOinform                  004179f0 f   ntfile.obj
 0001:00016b40       _primGetLocale             00417b40 f   ntfile.obj
 0001:00014110       _imeSetSpot                00415110 f   ntnls.obj
 0001:00014190       _hAllocIME                 00415190 f   ntnls.obj
 0001:000141b0       _imeSetRoot                004151b0 f   ntnls.obj
 0001:00014220       _imeSetArea                00415220 f   ntnls.obj
 0001:00014260       _imeSetFont                00415260 f   ntnls.obj
 0001:00014270       _initIMEFuncs              00415270 f   ntnls.obj
 0001:00012f30       _realOeMain                00413f30 f   ntmain.obj
 0001:00013030       _getWinPlatformId          00414030 f   ntmain.obj
 0001:00013080       _initProgramOptions        00414080 f   ntmain.obj
 0001:00013110       _initFloatingPoint         00414110 f   ntmain.obj
 0001:00013130       _exceptionHandler          00414130 f   ntmain.obj
 0001:00013180       _innerOeMain               00414180 f   ntmain.obj
 0001:00013460       _verifyCurrentDirectory    00414460 f   ntmain.obj
 0001:00013600       _parseCommandLine          00414600 f   ntmain.obj
 0001:000136e0       _bRegisterWinClasses       004146e0 f   ntmain.obj
 0001:00013750       _bRegisterPopupWinClass    00414750 f   ntmain.obj
 0001:000137a0       _bRegisterDialogWinClass   004147a0 f   ntmain.obj
 0001:000137f0       _bRegisterNormalWinClass   004147f0 f   ntmain.obj
 0001:00013840       _bRegisterFullScreenHiddenWinClass 00414840 f   ntmain.obj
 0001:00013910       _HiddenWndProc@16          00414910 f   ntmain.obj
 0001:00013940       _bRegisterHiddenSocketWinClass 00414940 f   ntmain.obj
 0001:00013990       _MonitorSizeCallback@16    00414990 f   ntmain.obj
 0001:00012840       _InsertIOBlock             00413840 f   ntioblok.obj
 0001:00012880       _bInitIOSem                00413880 f   ntioblok.obj
 0001:00012930       _isOnList                  00413930 f   ntioblok.obj
 0001:00011f00       _primDisplayImage          00412f00 f   ntimage.obj
 0001:00012100       _hbmCreateImage            00413100 f   ntimage.obj
 0001:00012490       _primDisplayMonoImage      00413490 f   ntimage.obj
 0001:00011d60       _callIs686OrHigher         00412d60 f   nticache.obj
 0001:00010f90       _heraldWndProc@16          00411f90 f   ntherald.obj
 0001:00011470       _ReadResourceBitmap        00412470 f   ntherald.obj
 0001:00011510       _ReadBitmapFromFile        00412510 f   ntherald.obj
 0001:00011720       _MakeDIBPalette            00412720 f   ntherald.obj
 0001:00010e00       _primDeviceColormap        00411e00 f   ntgraph.obj
 0001:0000db80       _extractPort               0040eb80 f   ntgc.obj
 0001:0000e3f0       _primDisplayLine           0040f3f0 f   ntgc.obj
 0001:0000e690       _primDisplayPolyLine       0040f690 f   ntgc.obj
 0001:0000e7a0       _primDisplayPolygon        0040f7a0 f   ntgc.obj
 0001:0000e8b0       _primDisplayRectangle      0040f8b0 f   ntgc.obj
 0001:0000ea40       _primDisplayRectangularBorder 0040fa40 f   ntgc.obj
 0001:0000ec50       _primDisplayArc            0040fc50 f   ntgc.obj
 0001:0000f1b0       _calcArcPoint              004101b0 f   ntgc.obj
 0001:0000f250       _primDisplayWedge          00410250 f   ntgc.obj
 0001:0000f710       _primDisplayMask           00410710 f   ntgc.obj
 0001:0000f930       _primCopyRectangularArea   00410930 f   ntgc.obj
 0001:0000fd90       _primCopyMaskedArea        00410d90 f   ntgc.obj
 0001:00010340       _primIdentifierString      00411340 f   ntgc.obj
 0001:0000bca0       _iWinEnumFonts             0040cca0 f   ntfont.obj
 0001:0000be60       _appendFontToInfo          0040ce60 f   ntfont.obj
 0001:0000bf20       _collectFontFacesCallback@16 0040cf20 f   ntfont.obj
 0001:0000c000       _printFontSizeCallback@16  0040d000 f   ntfont.obj
 0001:0000c210       _primDisplayMappedString   0040d210 f   ntfont.obj
 0001:0000c4c0       _primDisplayWideChars      0040d4c0 f   ntfont.obj
 0001:0000c700       _primDisplayCharacter      0040d700 f   ntfont.obj
 0001:0000c820       _primOpenFontOnly          0040d820 f   ntfont.obj
 0001:0000ca80       _primGetFontWidths         0040da80 f   ntfont.obj
 0001:0000ceb0       _primUnLoadFont            0040deb0 f   ntfont.obj
 0001:0000cf30       _primListFonts             0040df30 f   ntfont.obj
 0001:0000b600       _getCursorPositions        0040c600 f   ntevent.obj
 0001:0000b650       _updateMetaState           0040c650 f   ntevent.obj
 0001:0000b740       _EnumAllMenus@8            0040c740 f   ntevent.obj
 0001:00009c30       _nameOfError               0040ac30 f   ntecode.obj
 0001:00009ce0       _cmpei                     0040ace0 f   ntecode.obj
 0001:00009d00       _getErrMsg                 0040ad00 f   ntecode.obj
 0001:00009680       _primLoadLibrary           0040a680 f   ntdynld.obj
 0001:000098d0       _primUnloadLibrary         0040a8d0 f   ntdynld.obj
 0001:00009a30       _primMapExternalName       0040aa30 f   ntdynld.obj
 0001:00009080       _createCursorResource      0040a080 f   ntcurs.obj
 0001:000092b0       _enableHostCursors         0040a2b0 f   ntcurs.obj
 0001:000092e0       _showCursorResource        0040a2e0 f   ntcurs.obj
 0001:00009350       _loadSystemCursorFor       0040a350 f   ntcurs.obj
 0001:000093e0       _freeCursorResource        0040a3e0 f   ntcurs.obj
 0001:000058d0       _undoModality              004068d0 f   ntcanvas.obj
 0001:00005950       _dwGetWindowProcessId      00406950 f   ntcanvas.obj
 0001:00005bc0       _primDestroyWindow         00406bc0 f   ntcanvas.obj
 0001:00005c80       _getDrawableAndGC          00406c80 f   ntcanvas.obj
 0001:00005d20       _primSetMinMaxConstraints  00406d20 f   ntcanvas.obj
 0001:00005e00       _hwndOfWindowOop           00406e00 f   ntcanvas.obj
 0001:00005e80       _primStoreLabels           00406e80 f   ntcanvas.obj
 0001:00005ef0       _primGetDimensions         00406ef0 f   ntcanvas.obj
 0001:00006180       _primXMoveResizeWindow     00407180 f   ntcanvas.obj
 0001:00006320       _primXRaiseWindow          00407320 f   ntcanvas.obj
 0001:000063a0       _primXLowerWindow          004073a0 f   ntcanvas.obj
 0001:00006440       _primCollapseWindow        00407440 f   ntcanvas.obj
 0001:00006480       _primExpandWindow          00407480 f   ntcanvas.obj
 0001:000064e0       _primCreateWindowOnScreen  004074e0 f   ntcanvas.obj
 0001:00006850       _hwndCreate                00407850 f   ntcanvas.obj
 0001:00006c10       _primWindowActivate        00407c10 f   ntcanvas.obj
 0001:00006c90       _primSetIcon               00407c90 f   ntcanvas.obj
 0001:00006d70       _createAndSetIcon          00407d70 f   ntcanvas.obj
 0001:00006e30       _primSetTransparentIcon    00407e30 f   ntcanvas.obj
 0001:00006f60       _primWinFlush              00407f60 f   ntcanvas.obj
 0001:00006f70       _primGetScreenDimensions   00407f70 f   ntcanvas.obj
 0001:000070a0       _MonitorSizeCallback@16    004080a0 f   ntcanvas.obj
 0001:00007210       _primWindowUnmap           00408210 f   ntcanvas.obj
 0001:00007260       _primNewPixmap             00408260 f   ntcanvas.obj
 0001:000073f0       _primNewMask               004083f0 f   ntcanvas.obj
 0001:000075e0       _primDestroyPixmap         004085e0 f   ntcanvas.obj
 0001:00007640       _primPixmapFromClipboard   00408640 f   ntcanvas.obj
 0001:00007940       _primPixmapToClipboard     00408940 f   ntcanvas.obj
 0001:00007af0       _primWindowBackground      00408af0 f   ntcanvas.obj
 0001:00007c40       _primQueryStackingOrder    00408c40 f   ntcanvas.obj
 0001:00007d00       _primPixmapMaskContentsInto 00408d00 f   ntcanvas.obj
 0001:000080e0       _getDrawableContentsInto   004090e0 f   ntcanvas.obj
 0001:000083a0       _primWindowContentsInto    004093a0 f   ntcanvas.obj
 0001:000088e0       _primScreenContentsInto    004098e0 f   ntcanvas.obj
 0001:00008d60       _primColorScreenDepthAndBitsPerPixel 00409d60 f   ntcanvas.obj
 0001:00008db0       _primCoverageScreenDepthAndBitsPerPixel 00409db0 f   ntcanvas.obj
 0001:00008e30       _primWindowAtPoint         00409e30 f   ntcanvas.obj
 0001:00008e90       _primHostColors            00409e90 f   ntcanvas.obj
 0001:00008f80       _primWindowHandle          00409f80 f   ntcanvas.obj
 0001:00003b00       _primDragShape             00404b00 f   ntanim.obj
 0001:00004610       _GetButtonState            00405610 f   ntanim.obj
 0001:00004660       _trackUser                 00405660 f   ntanim.obj
 0001:000046c0       _calculateBounds           004056c0 f   ntanim.obj
 0001:00004730       _getShape                  00405730 f   ntanim.obj
 0001:000047c0       _displayShape              004057c0 f   ntanim.obj
 0001:00004880       _primResizeRectangle       00405880 f   ntanim.obj
 0001:00005540       _primDisplayShape          00406540 f   ntanim.obj
 0001:00005700       _createHiddenFullScreenWindow 00406700 f   ntanim.obj
 0001:00005760       _destroyHiddenFullScreenWindow 00406760 f   ntanim.obj
 0001:00005780       _processDummyEvents        00406780 f   ntanim.obj
 0001:00003260       _changePollTimerState      00404260 f   ntalarm.obj
 0001:000034b0       _delayStateMachine@4       004044b0 f   ntalarm.obj
 0001:00003590       _pollHeartbeat@4           00404590 f   ntalarm.obj
 0001:00003640       _killTimerThread           00404640 f   ntalarm.obj
 0001:00003830       _startProfileThread        00404830 f   ntalarm.obj
 0001:00003920       _profileHeartbeat@4        00404920 f   ntalarm.obj
 0001:000039e0       _changeProfileTimerState   004049e0 f   ntalarm.obj
 0001:00000320       _cToSTint                  00401320 f   prUdummy.obj
 0001:000003b0       _cToSTfloat                004013b0 f   prUdummy.obj
 0001:00002970       _cToSTdouble               00403970 f   prUdummy.obj
 0001:000866d0       _huft_build                004876d0 f   zlib:inftrees.obj
 0001:000843a0       _tr_static_init            004853a0 f   zlib:trees.obj
 0001:000843b0       _init_block                004853b0 f   zlib:trees.obj
 0001:000848d0       _build_tree                004858d0 f   zlib:trees.obj
 0001:00084b00       _pqdownheap                00485b00 f   zlib:trees.obj
 0001:00084be0       _gen_bitlen                00485be0 f   zlib:trees.obj
 0001:00084df0       _gen_codes                 00485df0 f   zlib:trees.obj
 0001:00084e70       _build_bl_tree             00485e70 f   zlib:trees.obj
 0001:00084ef0       _scan_tree                 00485ef0 f   zlib:trees.obj
 0001:00084ff0       _send_all_trees            00485ff0 f   zlib:trees.obj
 0001:00085220       _send_tree                 00486220 f   zlib:trees.obj
 0001:00085830       _compress_block            00486830 f   zlib:trees.obj
 0001:00085c70       _set_data_type             00486c70 f   zlib:trees.obj
 0001:00085cf0       _bi_reverse                00486cf0 f   zlib:trees.obj
 0001:00085d20       _bi_flush                  00486d20 f   zlib:trees.obj
 0001:00085da0       _bi_windup                 00486da0 f   zlib:trees.obj
 0001:00085e10       _copy_block                00486e10 f   zlib:trees.obj
 0001:000822c0       _putShortMSB               004832c0 f   zlib:deflate.obj
 0001:000822f0       _flush_pending             004832f0 f   zlib:deflate.obj
 0001:000825d0       _lm_init                   004835d0 f   zlib:deflate.obj
 0001:00082670       _deflate_stored            00483670 f   zlib:deflate.obj
 0001:000827d0       _fill_window               004837d0 f   zlib:deflate.obj
 0001:00082910       _read_buf                  00483910 f   zlib:deflate.obj
 0001:00082990       _deflate_fast              00483990 f   zlib:deflate.obj
 0001:00082cb0       _longest_match             00483cb0 f   zlib:deflate.obj
 0001:00082e20       _deflate_slow              00483e20 f   zlib:deflate.obj
 0001:00080c50       _gz_open                   00481c50 f   zlib:gzio.obj
 0001:00080f50       _check_header              00481f50 f   zlib:gzio.obj
 0001:000810b0       _get_byte                  004820b0 f   zlib:gzio.obj
 0001:00081130       _destroy                   00482130 f   zlib:gzio.obj
 0001:00081660       _do_flush                  00482660 f   zlib:gzio.obj
 0001:00081940       _getLong                   00482940 f   zlib:gzio.obj
 0001:000819f0       _putLong                   004829f0 f   zlib:gzio.obj
